 ros_line_follower_all_sfun

 Timestamp is 60f0eb64 (Fri Jul 16 11:13:56 2021)

 Preferred load address is 0000000180000000

 Start         Length     Name                   Class
 0001:00000000 0004d6a0H .text$mn                CODE
 0001:0004d6a0 00000040H .text$mn$00             CODE
 0001:0004d6e0 00004515H .text$x                 CODE
 0002:00000000 00000620H .idata$5                DATA
 0002:00000620 00000028H .00cfg                  DATA
 0002:00000648 00000008H .CRT$XCA                DATA
 0002:00000650 00000008H .CRT$XCZ                DATA
 0002:00000658 00000008H .CRT$XIA                DATA
 0002:00000660 00000008H .CRT$XIZ                DATA
 0002:00000668 00000008H .CRT$XPA                DATA
 0002:00000670 00000008H .CRT$XPZ                DATA
 0002:00000678 00000008H .CRT$XTA                DATA
 0002:00000680 00000010H .CRT$XTZ                DATA
 0002:00000688 00000000H .gehcont$y              DATA
 0002:00000688 00000000H .gfids$y                DATA
 0002:00000690 000120f0H .rdata                  DATA
 0002:00012780 00000008H .rdata$CastGuardVftablesA DATA
 0002:00012788 00000008H .rdata$CastGuardVftablesC DATA
 0002:00012790 0000162cH .rdata$r                DATA
 0002:00013dbc 00000378H .rdata$voltmd           DATA
 0002:00014134 000002c4H .rdata$zzzdbg           DATA
 0002:000143f8 00000008H .rtc$IAA                DATA
 0002:00014400 00000008H .rtc$IZZ                DATA
 0002:00014408 00000008H .rtc$TAA                DATA
 0002:00014410 00000008H .rtc$TZZ                DATA
 0002:00014418 00007690H .xdata                  DATA
 0002:0001baa8 000001b8H .xdata$x                DATA
 0002:0001bc60 00000084H .edata                  DATA
 0002:0001bce4 00000168H .idata$2                DATA
 0002:0001be4c 00000014H .idata$3                DATA
 0002:0001be60 00000620H .idata$4                DATA
 0002:0001c480 000011e4H .idata$6                DATA
 0003:00000000 00000160H .data                   DATA
 0003:00000160 00000390H .data$r                 DATA
 0003:000004f0 00000950H .data$rs                DATA
 0003:00000e40 00000d60H .bss                    DATA
 0004:00000000 00007158H .pdata                  DATA

  Address         Publics by Value              Rva+Base               Lib:Object

 0000:00000000       __x64_code_ranges_to_entry_points_count 0000000000000000     <absolute>
 0000:00000000       __guard_eh_cont_table      0000000000000000     <absolute>
 0000:00000000       __guard_longjmp_count      0000000000000000     <absolute>
 0000:00000000       __guard_longjmp_table      0000000000000000     <absolute>
 0000:00000000       __hybrid_code_map_count    0000000000000000     <absolute>
 0000:00000000       ___safe_se_handler_count   0000000000000000     <absolute>
 0000:00000000       __guard_check_icall_a64n_fptr 0000000000000000     <absolute>
 0000:00000000       __enclave_config           0000000000000000     <absolute>
 0000:00000000       __hybrid_code_map          0000000000000000     <absolute>
 0000:00000000       __guard_eh_cont_count      0000000000000000     <absolute>
 0000:00000000       ___safe_se_handler_table   0000000000000000     <absolute>
 0000:00000000       __guard_iat_table          0000000000000000     <absolute>
 0000:00000000       __arm64x_redirection_metadata_count 0000000000000000     <absolute>
 0000:00000000       __arm64x_redirection_metadata 0000000000000000     <absolute>
 0000:00000000       __arm64x_native_entrypoint 0000000000000000     <absolute>
 0000:00000000       __arm64x_extra_rfe_table   0000000000000000     <absolute>
 0000:00000000       __x64_code_ranges_to_entry_points 0000000000000000     <absolute>
 0000:00000000       __guard_fids_count         0000000000000000     <absolute>
 0000:00000000       __hybrid_auxiliary_iat     0000000000000000     <absolute>
 0000:00000000       __hybrid_auxiliary_iat_copy 0000000000000000     <absolute>
 0000:00000000       __dynamic_value_reloc_table 0000000000000000     <absolute>
 0000:00000000       __guard_iat_count          0000000000000000     <absolute>
 0000:00000000       __guard_fids_table         0000000000000000     <absolute>
 0000:00000000       __arm64x_extra_rfe_table_size 0000000000000000     <absolute>
 0000:00000000       __AbsoluteZero             0000000000000000     <absolute>
 0000:00000100       __guard_flags              0000000000000100     <absolute>
 0000:00000000       __ImageBase                0000000180000000     <linker-defined>
 0001:00000000       ?propagateSize@MWAvgPoolingLayer@@UEAAXXZ 0000000180001000 f   MWAvgPoolingLayer.obj
 0001:000002f0       ??$?0$$V@?$_Compressed_pair@V?$allocator@D@std@@V?$_String_val@U?$_Simple_types@D@std@@@2@$00@std@@QEAA@U_Zero_then_variadic_args_t@1@@Z 00000001800012f0 f i MWAvgPoolingLayer.obj
 0001:00000320       ??$?0AEBH$$Z$$V@?$pair@$$CBHPEAVMWTensorBase@@@std@@QEAA@Upiecewise_construct_t@1@V?$tuple@AEBH@1@V?$tuple@$$V@1@@Z 0000000180001320 f i MWAvgPoolingLayer.obj
 0001:00000390       ??$?0AEBH$0A@@?$tuple@AEBH@std@@QEAA@AEBH@Z 0000000180001390 f i MWAvgPoolingLayer.obj
 0001:000003c0       ??$?0AEBH@?$_Tuple_val@AEBH@std@@QEAA@AEBH@Z 00000001800013c0 f i MWAvgPoolingLayer.obj
 0001:000003f0       ??$?0AEBQEAU?$_Tree_node@U?$pair@$$CBHPEAVMWTensorBase@@@std@@PEAX@std@@_N$0A@@?$pair@PEAU?$_Tree_node@U?$pair@$$CBHPEAVMWTensorBase@@@std@@PEAX@std@@_N@std@@QEAA@AEBQEAU?$_Tree_node@U?$pair@$$CBHPEAVMWTensorBase@@@std@@PEAX@1@$$QEA_N@Z 00000001800013f0 f i MWAvgPoolingLayer.obj
 0001:00000440       ??$?0AEBUpiecewise_construct_t@std@@V?$tuple@AEBH@1@V?$tuple@$$V@1@@?$_Tree_temp_node@V?$allocator@U?$_Tree_node@U?$pair@$$CBHPEAVMWTensorBase@@@std@@PEAX@std@@@std@@@std@@QEAA@AEAV?$allocator@U?$_Tree_node@U?$pair@$$CBHPEAVMWTensorBase@@@std@@PEAX@std@@@1@PEAU?$_Tree_node@U?$pair@$$CBHPEAVMWTensorBase@@@std@@PEAX@1@AEBUpiecewise_construct_t@1@$$QEAV?$tuple@AEBH@1@$$QEAV?$tuple@$$V@1@@Z 0000000180001440 f i MWAvgPoolingLayer.obj
 0001:00000550       ??$?0PEAU?$_Tree_node@U?$pair@$$CBHPEAVMWTensorBase@@@std@@PEAX@std@@_N$0A@@?$pair@PEAU?$_Tree_node@U?$pair@$$CBHPEAVMWTensorBase@@@std@@PEAX@std@@_N@std@@QEAA@$$QEAPEAU?$_Tree_node@U?$pair@$$CBHPEAVMWTensorBase@@@std@@PEAX@1@$$QEA_N@Z 0000000180001550 f i MWAvgPoolingLayer.obj
 0001:000005a0       ??$?0U_Exact_args_t@std@@$0A@@?$tuple@$$V@std@@QEAA@U_Exact_args_t@1@@Z 00000001800015a0 f i MWAvgPoolingLayer.obj
 0001:000005b0       ??$?0U_Exact_args_t@std@@AEBH$$V$0A@@?$tuple@AEBH@std@@QEAA@U_Exact_args_t@1@AEBH@Z 00000001800015b0 f i MWAvgPoolingLayer.obj
 0001:00000600       ??$?0V?$tuple@AEBH@std@@V?$tuple@$$V@1@$0A@$$Z$S@?$pair@$$CBHPEAVMWTensorBase@@@std@@QEAA@AEAV?$tuple@AEBH@1@AEAV?$tuple@$$V@1@U?$integer_sequence@_K$0A@@1@U?$integer_sequence@_K$S@1@@Z 0000000180001600 f i MWAvgPoolingLayer.obj
 0001:00000650       ??$_Allocate@$0BA@U_Default_allocate_traits@std@@$0A@@std@@YAPEAX_K@Z 0000000180001650 f i MWAvgPoolingLayer.obj
 0001:00000690       ??$_Allocate_manually_vector_aligned@U_Default_allocate_traits@std@@@std@@YAPEAX_K@Z 0000000180001690 f i MWAvgPoolingLayer.obj
 0001:00000720       ??$_Construct_in_place@PEADAEBQEAD@std@@YAXAEAPEADAEBQEAD@Z 0000000180001720 f i MWAvgPoolingLayer.obj
 0001:00000770       ??$_Construct_in_place@PEAU?$_Tree_node@U?$pair@$$CBHPEAVMWTensorBase@@@std@@PEAX@std@@AEAPEAU12@@std@@YAXAEAPEAU?$_Tree_node@U?$pair@$$CBHPEAVMWTensorBase@@@std@@PEAX@0@0@Z 0000000180001770 f i MWAvgPoolingLayer.obj
 0001:000007c0       ??$_Convert_size@_K@std@@YA_K_K@Z 00000001800017c0 f i MWAvgPoolingLayer.obj
 0001:000007d0       ??$_Deallocate@$0BA@$0A@@std@@YAXPEAX_K@Z 00000001800017d0 f i MWAvgPoolingLayer.obj
 0001:00000810       ??$_Destroy_in_place@PEAD@std@@YAXAEAPEAD@Z 0000000180001810 f i MWAvgPoolingLayer.obj
 0001:00000820       ??$_Destroy_in_place@PEAU?$_Tree_node@U?$pair@$$CBHPEAVMWTensorBase@@@std@@PEAX@std@@@std@@YAXAEAPEAU?$_Tree_node@U?$pair@$$CBHPEAVMWTensorBase@@@std@@PEAX@0@@Z 0000000180001820 f i MWAvgPoolingLayer.obj
 0001:00000830       ??$_Find@H@?$_Tree@V?$_Tmap_traits@HPEAVMWTensorBase@@U?$less@H@std@@V?$allocator@U?$pair@$$CBHPEAVMWTensorBase@@@std@@@3@$0A@@std@@@std@@AEBAPEAU?$_Tree_node@U?$pair@$$CBHPEAVMWTensorBase@@@std@@PEAX@1@AEBH@Z 0000000180001830 f i MWAvgPoolingLayer.obj
 0001:00000890       ??$_Find_lower_bound@H@?$_Tree@V?$_Tmap_traits@HPEAVMWTensorBase@@U?$less@H@std@@V?$allocator@U?$pair@$$CBHPEAVMWTensorBase@@@std@@@3@$0A@@std@@@std@@IEBA?AU?$_Tree_find_result@PEAU?$_Tree_node@U?$pair@$$CBHPEAVMWTensorBase@@@std@@PEAX@std@@@1@AEBH@Z 0000000180001890 f i MWAvgPoolingLayer.obj
 0001:000009a0       ??$_Get_size_of_n@$00@std@@YA_K_K@Z 00000001800019a0 f i MWAvgPoolingLayer.obj
 0001:000009c0       ??$_Get_size_of_n@$0DA@@std@@YA_K_K@Z 00000001800019c0 f i MWAvgPoolingLayer.obj
 0001:00000a00       ??$_Kfn@$$CBHPEAVMWTensorBase@@@?$_Tmap_traits@HPEAVMWTensorBase@@U?$less@H@std@@V?$allocator@U?$pair@$$CBHPEAVMWTensorBase@@@std@@@3@$0A@@std@@SAAEBHAEBU?$pair@$$CBHPEAVMWTensorBase@@@1@@Z 0000000180001a00 f i MWAvgPoolingLayer.obj
 0001:00000a10       ??$_Lower_bound_duplicate@H@?$_Tree@V?$_Tmap_traits@HPEAVMWTensorBase@@U?$less@H@std@@V?$allocator@U?$pair@$$CBHPEAVMWTensorBase@@@std@@@3@$0A@@std@@@std@@IEBA_NQEAU?$_Tree_node@U?$pair@$$CBHPEAVMWTensorBase@@@std@@PEAX@1@AEBH@Z 0000000180001a10 f i MWAvgPoolingLayer.obj
 0001:00000a90       ??$_Reallocate_for@V<lambda_66f57f934f28d61049862f64df852ff0>@@PEBD@?$basic_string@DU?$char_traits@D@std@@V?$allocator@D@2@@std@@AEAAAEAV01@_KV<lambda_66f57f934f28d61049862f64df852ff0>@@PEBD@Z 0000000180001a90 f i MWAvgPoolingLayer.obj
 0001:00000bb0       ??$_Traits_compare@U?$char_traits@D@std@@@std@@YAHQEBD_K01@Z 0000000180001bb0 f i MWAvgPoolingLayer.obj
 0001:00000c30       ??$_Try_emplace@AEBH$$V@?$map@HPEAVMWTensorBase@@U?$less@H@std@@V?$allocator@U?$pair@$$CBHPEAVMWTensorBase@@@std@@@3@@std@@AEAA?AU?$pair@PEAU?$_Tree_node@U?$pair@$$CBHPEAVMWTensorBase@@@std@@PEAX@std@@_N@1@AEBH@Z 0000000180001c30 f i MWAvgPoolingLayer.obj
 0001:00000dd0       ??$_Tuple_get@$0A@AEBH@std@@YA$$QEA_P$$QEAV?$tuple@AEBH@0@@Z 0000000180001dd0 f i MWAvgPoolingLayer.obj
 0001:00000de0       ??$_Unfancy@D@std@@YAPEADPEAD@Z 0000000180001de0 f i MWAvgPoolingLayer.obj
 0001:00000df0       ??$_Voidify_iter@PEAPEAD@std@@YAPEAXPEAPEAD@Z 0000000180001df0 f i MWAvgPoolingLayer.obj
 0001:00000e00       ??$_Voidify_iter@PEAPEAU?$_Tree_node@U?$pair@$$CBHPEAVMWTensorBase@@@std@@PEAX@std@@@std@@YAPEAXPEAPEAU?$_Tree_node@U?$pair@$$CBHPEAVMWTensorBase@@@std@@PEAX@0@@Z 0000000180001e00 f i MWAvgPoolingLayer.obj
 0001:00000e10       ??$_Voidify_iter@PEAU?$pair@$$CBHPEAVMWTensorBase@@@std@@@std@@YAPEAXPEAU?$pair@$$CBHPEAVMWTensorBase@@@0@@Z 0000000180001e10 f i MWAvgPoolingLayer.obj
 0001:00000e20       ??$addressof@$$CBV?$_Tree_val@U?$_Tree_simple_types@U?$pair@$$CBHPEAVMWTensorBase@@@std@@@std@@@std@@@std@@YAPEBV?$_Tree_val@U?$_Tree_simple_types@U?$pair@$$CBHPEAVMWTensorBase@@@std@@@std@@@0@AEBV10@@Z 0000000180001e20 f i MWAvgPoolingLayer.obj
 0001:00000e30       ??$addressof@PEAD@std@@YAPEAPEADAEAPEAD@Z 0000000180001e30 f i MWAvgPoolingLayer.obj
 0001:00000e40       ??$addressof@PEAU?$_Tree_node@U?$pair@$$CBHPEAVMWTensorBase@@@std@@PEAX@std@@@std@@YAPEAPEAU?$_Tree_node@U?$pair@$$CBHPEAVMWTensorBase@@@std@@PEAX@0@AEAPEAU10@@Z 0000000180001e40 f i MWAvgPoolingLayer.obj
 0001:00000e50       ??$addressof@U?$pair@$$CBHPEAVMWTensorBase@@@std@@@std@@YAPEAU?$pair@$$CBHPEAVMWTensorBase@@@0@AEAU10@@Z 0000000180001e50 f i MWAvgPoolingLayer.obj
 0001:00000e60       ??$addressof@V?$_Tree_val@U?$_Tree_simple_types@U?$pair@$$CBHPEAVMWTensorBase@@@std@@@std@@@std@@@std@@YAPEAV?$_Tree_val@U?$_Tree_simple_types@U?$pair@$$CBHPEAVMWTensorBase@@@std@@@std@@@0@AEAV10@@Z 0000000180001e60 f i MWAvgPoolingLayer.obj
 0001:00000e70       ??$allocateOutputTensor@C@MWCNNLayer@@IEAAXHHHHHPEACH@Z 0000000180001e70 f i MWAvgPoolingLayer.obj
 0001:00000fe0       ??$allocateOutputTensor@M@MWCNNLayer@@IEAAXHHHHHPEAMH@Z 0000000180001fe0 f i MWAvgPoolingLayer.obj
 0001:00001150       ??$construct@U?$pair@$$CBHPEAVMWTensorBase@@@std@@AEBUpiecewise_construct_t@2@V?$tuple@AEBH@2@V?$tuple@$$V@2@@?$_Default_allocator_traits@V?$allocator@U?$_Tree_node@U?$pair@$$CBHPEAVMWTensorBase@@@std@@PEAX@std@@@std@@@std@@SAXAEAV?$allocator@U?$_Tree_node@U?$pair@$$CBHPEAVMWTensorBase@@@std@@PEAX@std@@@1@QEAU?$pair@$$CBHPEAVMWTensorBase@@@1@AEBUpiecewise_construct_t@1@$$QEAV?$tuple@AEBH@1@$$QEAV?$tuple@$$V@1@@Z 0000000180002150 f i MWAvgPoolingLayer.obj
 0001:00001210       ??$createAvgPoolingLayer@CC@MWAvgPoolingLayer@@QEAAXPEAVMWTargetNetworkImpl@@PEAVMWTensorBase@@HHHHHHHHHPEBDHH@Z 0000000180002210 f i MWAvgPoolingLayer.obj
 0001:00001480       ??$createAvgPoolingLayer@MM@MWAvgPoolingLayer@@QEAAXPEAVMWTargetNetworkImpl@@PEAVMWTensorBase@@HHHHHHHHHPEBDHH@Z 0000000180002480 f i MWAvgPoolingLayer.obj
 0001:000016f0       ??$destroy@U?$pair@$$CBHPEAVMWTensorBase@@@std@@@?$_Default_allocator_traits@V?$allocator@U?$_Tree_node@U?$pair@$$CBHPEAVMWTensorBase@@@std@@PEAX@std@@@std@@@std@@SAXAEAV?$allocator@U?$_Tree_node@U?$pair@$$CBHPEAVMWTensorBase@@@std@@PEAX@std@@@1@QEAU?$pair@$$CBHPEAVMWTensorBase@@@1@@Z 00000001800026f0 f i MWAvgPoolingLayer.obj
 0001:00001700       ??$exchange@PEAU?$_Tree_node@U?$pair@$$CBHPEAVMWTensorBase@@@std@@PEAX@std@@$$T@std@@YAPEAU?$_Tree_node@U?$pair@$$CBHPEAVMWTensorBase@@@std@@PEAX@0@AEAPEAU10@$$QEA$$T@Z 0000000180002700 f i MWAvgPoolingLayer.obj
 0001:00001740       ??$forward@AEAPEAU?$_Tree_node@U?$pair@$$CBHPEAVMWTensorBase@@@std@@PEAX@std@@@std@@YAAEAPEAU?$_Tree_node@U?$pair@$$CBHPEAVMWTensorBase@@@std@@PEAX@0@AEAPEAU10@@Z 0000000180002740 f i MWAvgPoolingLayer.obj
 0001:00001750       ??$forward@AEBH@std@@YAAEBHAEBH@Z 0000000180002750 f i MWAvgPoolingLayer.obj
 0001:00001760       ??$forward@AEBQEAD@std@@YAAEBQEADAEBQEAD@Z 0000000180002760 f i MWAvgPoolingLayer.obj
 0001:00001770       ??$forward@AEBQEAU?$_Tree_node@U?$pair@$$CBHPEAVMWTensorBase@@@std@@PEAX@std@@@std@@YAAEBQEAU?$_Tree_node@U?$pair@$$CBHPEAVMWTensorBase@@@std@@PEAX@0@AEBQEAU10@@Z 0000000180002770 f i MWAvgPoolingLayer.obj
 0001:00001780       ??$forward@AEBUpiecewise_construct_t@std@@@std@@YAAEBUpiecewise_construct_t@0@AEBU10@@Z 0000000180002780 f i MWAvgPoolingLayer.obj
 0001:00001790       ??$forward@PEAU?$_Tree_node@U?$pair@$$CBHPEAVMWTensorBase@@@std@@PEAX@std@@@std@@YA$$QEAPEAU?$_Tree_node@U?$pair@$$CBHPEAVMWTensorBase@@@std@@PEAX@0@AEAPEAU10@@Z 0000000180002790 f i MWAvgPoolingLayer.obj
 0001:000017a0       ??$forward@V?$tuple@$$V@std@@@std@@YA$$QEAV?$tuple@$$V@0@AEAV10@@Z 00000001800027a0 f i MWAvgPoolingLayer.obj
 0001:000017b0       ??$forward@V?$tuple@AEBH@std@@@std@@YA$$QEAV?$tuple@AEBH@0@AEAV10@@Z 00000001800027b0 f i MWAvgPoolingLayer.obj
 0001:000017c0       ??$forward@_N@std@@YA$$QEA_NAEA_N@Z 00000001800027c0 f i MWAvgPoolingLayer.obj
 0001:000017d0       ??$forward_as_tuple@$$V@std@@YA?AV?$tuple@$$V@0@XZ 00000001800027d0 f i MWAvgPoolingLayer.obj
 0001:000017e0       ??$forward_as_tuple@AEBH@std@@YA?AV?$tuple@AEBH@0@AEBH@Z 00000001800027e0 f i MWAvgPoolingLayer.obj
 0001:00001810       ??$is_float@C@@YA_NXZ      0000000180002810 f i MWAvgPoolingLayer.obj
 0001:00001820       ??$is_float@M@@YA_NXZ      0000000180002820 f i MWAvgPoolingLayer.obj
 0001:00001830       ??$is_int8@C@@YA_NXZ       0000000180002830 f i MWAvgPoolingLayer.obj
 0001:00001840       ??$is_int8@M@@YA_NXZ       0000000180002840 f i MWAvgPoolingLayer.obj
 0001:00001850       ??$max@_K@std@@YAAEB_KAEB_K0@Z 0000000180002850 f i MWAvgPoolingLayer.obj
 0001:000018a0       ??$min@_K@std@@YAAEB_KAEB_K0@Z 00000001800028a0 f i MWAvgPoolingLayer.obj
 0001:000018f0       ??$move@AEAV?$tuple@AEBH@std@@@std@@YA$$QEAV?$tuple@AEBH@0@AEAV10@@Z 00000001800028f0 f i MWAvgPoolingLayer.obj
 0001:00001900       ??0?$MWTensor@C@@QEAA@HHHHHPEACPEAVMWCNNLayer@@H@Z 0000000180002900 f i MWAvgPoolingLayer.obj
 0001:00001990       ??0?$MWTensor@M@@QEAA@HHHHHPEAMPEAVMWCNNLayer@@H@Z 0000000180002990 f i MWAvgPoolingLayer.obj
 0001:00001a20       ??0?$_Alloc_construct_ptr@V?$allocator@U?$_Tree_node@U?$pair@$$CBHPEAVMWTensorBase@@@std@@PEAX@std@@@std@@@std@@QEAA@AEAV?$allocator@U?$_Tree_node@U?$pair@$$CBHPEAVMWTensorBase@@@std@@PEAX@std@@@1@@Z 0000000180002a20 f i MWAvgPoolingLayer.obj
 0001:00001a50       ??0?$_String_val@U?$_Simple_types@D@std@@@std@@QEAA@XZ 0000000180002a50 f i MWAvgPoolingLayer.obj
 0001:00001a90       ??0?$_Tree_const_iterator@V?$_Tree_val@U?$_Tree_simple_types@U?$pair@$$CBHPEAVMWTensorBase@@@std@@@std@@@std@@@std@@QEAA@PEAU?$_Tree_node@U?$pair@$$CBHPEAVMWTensorBase@@@std@@PEAX@1@PEBV?$_Tree_val@U?$_Tree_simple_types@U?$pair@$$CBHPEAVMWTensorBase@@@std@@@std@@@1@@Z 0000000180002a90 f i MWAvgPoolingLayer.obj
 0001:00001ad0       ??0?$_Tree_iterator@V?$_Tree_val@U?$_Tree_simple_types@U?$pair@$$CBHPEAVMWTensorBase@@@std@@@std@@@std@@@std@@QEAA@PEAU?$_Tree_node@U?$pair@$$CBHPEAVMWTensorBase@@@std@@PEAX@1@PEBV?$_Tree_val@U?$_Tree_simple_types@U?$pair@$$CBHPEAVMWTensorBase@@@std@@@std@@@1@@Z 0000000180002ad0 f i MWAvgPoolingLayer.obj
 0001:00001b10       ??0?$_Tree_temp_node_alloc@V?$allocator@U?$_Tree_node@U?$pair@$$CBHPEAVMWTensorBase@@@std@@PEAX@std@@@std@@@std@@QEAA@AEAV?$allocator@U?$_Tree_node@U?$pair@$$CBHPEAVMWTensorBase@@@std@@PEAX@std@@@1@@Z 0000000180002b10 f i MWAvgPoolingLayer.obj
 0001:00001b50       ??0?$_Tree_unchecked_const_iterator@V?$_Tree_val@U?$_Tree_simple_types@U?$pair@$$CBHPEAVMWTensorBase@@@std@@@std@@@std@@U_Iterator_base0@2@@std@@QEAA@PEAU?$_Tree_node@U?$pair@$$CBHPEAVMWTensorBase@@@std@@PEAX@1@PEBV?$_Tree_val@U?$_Tree_simple_types@U?$pair@$$CBHPEAVMWTensorBase@@@std@@@std@@@1@@Z 0000000180002b50 f i MWAvgPoolingLayer.obj
 0001:00001b90       ??0?$allocator@D@std@@QEAA@XZ 0000000180002b90 f i MWAvgPoolingLayer.obj
 0001:00001ba0       ??0?$basic_string@DU?$char_traits@D@std@@V?$allocator@D@2@@std@@QEAA@QEBD@Z 0000000180002ba0 f i MWAvgPoolingLayer.obj
 0001:00001c20       ??0?$tuple@$$V@std@@QEAA@AEBV01@@Z 0000000180002c20 f i MWAvgPoolingLayer.obj
 0001:00001c30       ??0?$tuple@AEBH@std@@QEAA@$$QEAV01@@Z 0000000180002c30 f i MWAvgPoolingLayer.obj
 0001:00001c70       ??0_Bxty@?$_String_val@U?$_Simple_types@D@std@@@std@@QEAA@XZ 0000000180002c70 f i MWAvgPoolingLayer.obj
 0001:00001c90       ??0_Fake_proxy_ptr_impl@std@@QEAA@AEBU_Fake_allocator@1@AEBU_Container_base0@1@@Z 0000000180002c90 f i MWAvgPoolingLayer.obj
 0001:00001cb0       ??0bad_alloc@std@@AEAA@QEBD@Z 0000000180002cb0 f i MWAvgPoolingLayer.obj
 0001:00001cf0       ??0bad_alloc@std@@QEAA@AEBV01@@Z 0000000180002cf0 f i MWAvgPoolingLayer.obj
 0001:00001d30       ??0bad_array_new_length@std@@QEAA@AEBV01@@Z 0000000180002d30 f i MWAvgPoolingLayer.obj
 0001:00001d70       ??0bad_array_new_length@std@@QEAA@XZ 0000000180002d70 f i MWAvgPoolingLayer.obj
 0001:00001db0       ??0exception@std@@QEAA@AEBV01@@Z 0000000180002db0 f i MWAvgPoolingLayer.obj
 0001:00001e10       ??0exception@std@@QEAA@QEBDH@Z 0000000180002e10 f i MWAvgPoolingLayer.obj
 0001:00001e60       ??1?$MWTensor@C@@UEAA@XZ   0000000180002e60 f i MWAvgPoolingLayer.obj
 0001:00001e90       ??1?$MWTensor@M@@UEAA@XZ   0000000180002e90 f i MWAvgPoolingLayer.obj
 0001:00001ec0       ??1?$_Alloc_construct_ptr@V?$allocator@U?$_Tree_node@U?$pair@$$CBHPEAVMWTensorBase@@@std@@PEAX@std@@@std@@@std@@QEAA@XZ 0000000180002ec0 f i MWAvgPoolingLayer.obj
 0001:00001f00       ??1?$_Compressed_pair@V?$allocator@D@std@@V?$_String_val@U?$_Simple_types@D@std@@@2@$00@std@@QEAA@XZ 0000000180002f00 f i MWAvgPoolingLayer.obj
 0001:00001f20       ??1?$_String_val@U?$_Simple_types@D@std@@@std@@QEAA@XZ 0000000180002f20 f i MWAvgPoolingLayer.obj
 0001:00001f40       ??1?$_Tree_temp_node@V?$allocator@U?$_Tree_node@U?$pair@$$CBHPEAVMWTensorBase@@@std@@PEAX@std@@@std@@@std@@QEAA@XZ 0000000180002f40 f i MWAvgPoolingLayer.obj
 0001:00001fd0       ??1?$_Tree_temp_node_alloc@V?$allocator@U?$_Tree_node@U?$pair@$$CBHPEAVMWTensorBase@@@std@@PEAX@std@@@std@@@std@@QEAA@XZ 0000000180002fd0 f i MWAvgPoolingLayer.obj
 0001:00001ff0       ??1?$basic_string@DU?$char_traits@D@std@@V?$allocator@D@2@@std@@QEAA@XZ 0000000180002ff0 f i MWAvgPoolingLayer.obj
 0001:00002020       ??1MWTensorBase@@UEAA@XZ   0000000180003020 f i MWAvgPoolingLayer.obj
 0001:00002040       ??1_Bxty@?$_String_val@U?$_Simple_types@D@std@@@std@@QEAA@XZ 0000000180003040 f i MWAvgPoolingLayer.obj
 0001:00002050       ??1bad_alloc@std@@UEAA@XZ  0000000180003050 f i MWAvgPoolingLayer.obj
 0001:00002070       ??1bad_array_new_length@std@@UEAA@XZ 0000000180003070 f i MWAvgPoolingLayer.obj
 0001:00002090       ??1exception@std@@UEAA@XZ  0000000180003090 f i MWAvgPoolingLayer.obj
 0001:000020c0       ??2@YAPEAX_KPEAX@Z         00000001800030c0 f i MWAvgPoolingLayer.obj
 0001:000020d0       ??8?$_Tree_const_iterator@V?$_Tree_val@U?$_Tree_simple_types@U?$pair@$$CBHPEAVMWTensorBase@@@std@@@std@@@std@@@std@@QEBA_NAEBV01@@Z 00000001800030d0 f i MWAvgPoolingLayer.obj
 0001:00002110       ??A?$map@HPEAVMWTensorBase@@U?$less@H@std@@V?$allocator@U?$pair@$$CBHPEAVMWTensorBase@@@std@@@3@@std@@QEAAAEAPEAVMWTensorBase@@AEBH@Z 0000000180003110 f i MWAvgPoolingLayer.obj
 0001:00002140       ??R<lambda_66f57f934f28d61049862f64df852ff0>@@QEBA@QEAD_KQEBD@Z 0000000180003140 f i MWAvgPoolingLayer.obj
 0001:000021a0       ??R?$less@H@std@@QEBA_NAEBH0@Z 00000001800031a0 f i MWAvgPoolingLayer.obj
 0001:000021e0       ??_G?$MWTensor@C@@UEAAPEAXI@Z 00000001800031e0 f i MWAvgPoolingLayer.obj
 0001:000021e0       ??_E?$MWTensor@C@@UEAAPEAXI@Z 00000001800031e0 f i MWAvgPoolingLayer.obj
 0001:00002220       ??_G?$MWTensor@M@@UEAAPEAXI@Z 0000000180003220 f i MWAvgPoolingLayer.obj
 0001:00002220       ??_E?$MWTensor@M@@UEAAPEAXI@Z 0000000180003220 f i MWAvgPoolingLayer.obj
 0001:00002260       ??_GMWTensorBase@@UEAAPEAXI@Z 0000000180003260 f i MWAvgPoolingLayer.obj
 0001:00002260       ??_EMWTensorBase@@UEAAPEAXI@Z 0000000180003260 f i MWAvgPoolingLayer.obj
 0001:000022a0       ??_Ebad_alloc@std@@UEAAPEAXI@Z 00000001800032a0 f i MWAvgPoolingLayer.obj
 0001:000022a0       ??_Gbad_alloc@std@@UEAAPEAXI@Z 00000001800032a0 f i MWAvgPoolingLayer.obj
 0001:000022e0       ??_Gbad_array_new_length@std@@UEAAPEAXI@Z 00000001800032e0 f i MWAvgPoolingLayer.obj
 0001:000022e0       ??_Ebad_array_new_length@std@@UEAAPEAXI@Z 00000001800032e0 f i MWAvgPoolingLayer.obj
 0001:00002320       ??_Eexception@std@@UEAAPEAXI@Z 0000000180003320 f i MWAvgPoolingLayer.obj
 0001:00002320       ??_Gexception@std@@UEAAPEAXI@Z 0000000180003320 f i MWAvgPoolingLayer.obj
 0001:00002360       ?_Adjust_manually_vector_aligned@std@@YAXAEAPEAXAEA_K@Z 0000000180003360 f i MWAvgPoolingLayer.obj
 0001:00002400       ?_Adopt@_Iterator_base0@std@@QEAAXPEBX@Z 0000000180003400 f i MWAvgPoolingLayer.obj
 0001:00002410       ?_Allocate@?$_Alloc_construct_ptr@V?$allocator@U?$_Tree_node@U?$pair@$$CBHPEAVMWTensorBase@@@std@@PEAX@std@@@std@@@std@@QEAAXXZ 0000000180003410 f i MWAvgPoolingLayer.obj
 0001:00002450       ?_Allocate@_Default_allocate_traits@std@@SAPEAX_K@Z 0000000180003450 f i MWAvgPoolingLayer.obj
 0001:00002470       ?_Calculate_growth@?$basic_string@DU?$char_traits@D@std@@V?$allocator@D@2@@std@@AEBA_K_K@Z 0000000180003470 f i MWAvgPoolingLayer.obj
 0001:000024b0       ?_Calculate_growth@?$basic_string@DU?$char_traits@D@std@@V?$allocator@D@2@@std@@CA_K_K00@Z 00000001800034b0 f i MWAvgPoolingLayer.obj
 0001:00002550       ?_Check_grow_by_1@?$_Tree@V?$_Tmap_traits@HPEAVMWTensorBase@@U?$less@H@std@@V?$allocator@U?$pair@$$CBHPEAVMWTensorBase@@@std@@@3@$0A@@std@@@std@@IEAAXXZ 0000000180003550 f i MWAvgPoolingLayer.obj
 0001:00002590       ?_Get_first@?$_Compressed_pair@U?$less@H@std@@V?$_Compressed_pair@V?$allocator@U?$_Tree_node@U?$pair@$$CBHPEAVMWTensorBase@@@std@@PEAX@std@@@std@@V?$_Tree_val@U?$_Tree_simple_types@U?$pair@$$CBHPEAVMWTensorBase@@@std@@@std@@@2@$00@2@$00@std@@QEBAAEBU?$less@H@2@XZ 0000000180003590 f i MWAvgPoolingLayer.obj
 0001:000025a0       ?_Get_first@?$_Compressed_pair@V?$allocator@D@std@@V?$_String_val@U?$_Simple_types@D@std@@@2@$00@std@@QEAAAEAV?$allocator@D@2@XZ 00000001800035a0 f i MWAvgPoolingLayer.obj
 0001:000025b0       ?_Get_first@?$_Compressed_pair@V?$allocator@D@std@@V?$_String_val@U?$_Simple_types@D@std@@@2@$00@std@@QEBAAEBV?$allocator@D@2@XZ 00000001800035b0 f i MWAvgPoolingLayer.obj
 0001:000025c0       ?_Get_first@?$_Compressed_pair@V?$allocator@U?$_Tree_node@U?$pair@$$CBHPEAVMWTensorBase@@@std@@PEAX@std@@@std@@V?$_Tree_val@U?$_Tree_simple_types@U?$pair@$$CBHPEAVMWTensorBase@@@std@@@std@@@2@$00@std@@QEAAAEAV?$allocator@U?$_Tree_node@U?$pair@$$CBHPEAVMWTensorBase@@@std@@PEAX@std@@@2@XZ 00000001800035c0 f i MWAvgPoolingLayer.obj
 0001:000025d0       ?_Get_first@?$_Compressed_pair@V?$allocator@U?$_Tree_node@U?$pair@$$CBHPEAVMWTensorBase@@@std@@PEAX@std@@@std@@V?$_Tree_val@U?$_Tree_simple_types@U?$pair@$$CBHPEAVMWTensorBase@@@std@@@std@@@2@$00@std@@QEBAAEBV?$allocator@U?$_Tree_node@U?$pair@$$CBHPEAVMWTensorBase@@@std@@PEAX@std@@@2@XZ 00000001800035d0 f i MWAvgPoolingLayer.obj
 0001:000025e0       ?_Get_scary@?$_Tree@V?$_Tmap_traits@HPEAVMWTensorBase@@U?$less@H@std@@V?$allocator@U?$pair@$$CBHPEAVMWTensorBase@@@std@@@3@$0A@@std@@@std@@IEAAPEAV?$_Tree_val@U?$_Tree_simple_types@U?$pair@$$CBHPEAVMWTensorBase@@@std@@@std@@@2@XZ 00000001800035e0 f i MWAvgPoolingLayer.obj
 0001:00002600       ?_Get_scary@?$_Tree@V?$_Tmap_traits@HPEAVMWTensorBase@@U?$less@H@std@@V?$allocator@U?$pair@$$CBHPEAVMWTensorBase@@@std@@@3@$0A@@std@@@std@@IEBAPEBV?$_Tree_val@U?$_Tree_simple_types@U?$pair@$$CBHPEAVMWTensorBase@@@std@@@std@@@2@XZ 0000000180003600 f i MWAvgPoolingLayer.obj
 0001:00002620       ?_Getal@?$_Tree@V?$_Tmap_traits@HPEAVMWTensorBase@@U?$less@H@std@@V?$allocator@U?$pair@$$CBHPEAVMWTensorBase@@@std@@@3@$0A@@std@@@std@@IEAAAEAV?$allocator@U?$_Tree_node@U?$pair@$$CBHPEAVMWTensorBase@@@std@@PEAX@std@@@2@XZ 0000000180003620 f i MWAvgPoolingLayer.obj
 0001:00002640       ?_Getal@?$_Tree@V?$_Tmap_traits@HPEAVMWTensorBase@@U?$less@H@std@@V?$allocator@U?$pair@$$CBHPEAVMWTensorBase@@@std@@@3@$0A@@std@@@std@@IEBAAEBV?$allocator@U?$_Tree_node@U?$pair@$$CBHPEAVMWTensorBase@@@std@@PEAX@std@@@2@XZ 0000000180003640 f i MWAvgPoolingLayer.obj
 0001:00002660       ?_Getal@?$basic_string@DU?$char_traits@D@std@@V?$allocator@D@2@@std@@AEAAAEAV?$allocator@D@2@XZ 0000000180003660 f i MWAvgPoolingLayer.obj
 0001:00002680       ?_Getal@?$basic_string@DU?$char_traits@D@std@@V?$allocator@D@2@@std@@AEBAAEBV?$allocator@D@2@XZ 0000000180003680 f i MWAvgPoolingLayer.obj
 0001:000026a0       ?_Getcomp@?$_Tree@V?$_Tmap_traits@HPEAVMWTensorBase@@U?$less@H@std@@V?$allocator@U?$pair@$$CBHPEAVMWTensorBase@@@std@@@3@$0A@@std@@@std@@IEBAAEBU?$less@H@2@XZ 00000001800036a0 f i MWAvgPoolingLayer.obj
 0001:000026c0       ?_Insert_node@?$_Tree_val@U?$_Tree_simple_types@U?$pair@$$CBHPEAVMWTensorBase@@@std@@@std@@@std@@QEAAPEAU?$_Tree_node@U?$pair@$$CBHPEAVMWTensorBase@@@std@@PEAX@2@U?$_Tree_id@PEAU?$_Tree_node@U?$pair@$$CBHPEAVMWTensorBase@@@std@@PEAX@std@@@2@QEAU32@@Z 00000001800036c0 f i MWAvgPoolingLayer.obj
 0001:000029b0       ?_Large_string_engaged@?$_String_val@U?$_Simple_types@D@std@@@std@@QEBA_NXZ 00000001800039b0 f i MWAvgPoolingLayer.obj
 0001:000029e0       ?_Lrotate@?$_Tree_val@U?$_Tree_simple_types@U?$pair@$$CBHPEAVMWTensorBase@@@std@@@std@@@std@@QEAAXPEAU?$_Tree_node@U?$pair@$$CBHPEAVMWTensorBase@@@std@@PEAX@2@@Z 00000001800039e0 f i MWAvgPoolingLayer.obj
 0001:00002ac0       ?_Myptr@?$_String_val@U?$_Simple_types@D@std@@@std@@QEAAPEADXZ 0000000180003ac0 f i MWAvgPoolingLayer.obj
 0001:00002b00       ?_Myptr@?$_String_val@U?$_Simple_types@D@std@@@std@@QEBAPEBDXZ 0000000180003b00 f i MWAvgPoolingLayer.obj
 0001:00002b40       ?_Orphan_all@_Container_base0@std@@QEAAXXZ 0000000180003b40 f i MWAvgPoolingLayer.obj
 0001:00002b50       ?_Release@?$_Alloc_construct_ptr@V?$allocator@U?$_Tree_node@U?$pair@$$CBHPEAVMWTensorBase@@@std@@PEAX@std@@@std@@@std@@QEAAPEAU?$_Tree_node@U?$pair@$$CBHPEAVMWTensorBase@@@std@@PEAX@2@XZ 0000000180003b50 f i MWAvgPoolingLayer.obj
 0001:00002b80       ?_Release@_Fake_proxy_ptr_impl@std@@QEAAXXZ 0000000180003b80 f i MWAvgPoolingLayer.obj
 0001:00002b90       ?_Rrotate@?$_Tree_val@U?$_Tree_simple_types@U?$pair@$$CBHPEAVMWTensorBase@@@std@@@std@@@std@@QEAAXPEAU?$_Tree_node@U?$pair@$$CBHPEAVMWTensorBase@@@std@@PEAX@2@@Z 0000000180003b90 f i MWAvgPoolingLayer.obj
 0001:00002c70       ?_Throw_bad_array_new_length@std@@YAXXZ 0000000180003c70 f i MWAvgPoolingLayer.obj
 0001:00002ca0       ?_Throw_tree_length_error@std@@YAXXZ 0000000180003ca0 f i MWAvgPoolingLayer.obj
 0001:00002cc0       ?_Tidy_deallocate@?$basic_string@DU?$char_traits@D@std@@V?$allocator@D@2@@std@@AEAAXXZ 0000000180003cc0 f i MWAvgPoolingLayer.obj
 0001:00002d80       ?_Tidy_init@?$basic_string@DU?$char_traits@D@std@@V?$allocator@D@2@@std@@AEAAXXZ 0000000180003d80 f i MWAvgPoolingLayer.obj
 0001:00002de0       ?_Xlen_string@std@@YAXXZ   0000000180003de0 f i MWAvgPoolingLayer.obj
 0001:00002e00       ?allocate@?$allocator@D@std@@QEAAPEAD_K@Z 0000000180003e00 f i MWAvgPoolingLayer.obj
 0001:00002e30       ?allocate@?$allocator@U?$_Tree_node@U?$pair@$$CBHPEAVMWTensorBase@@@std@@PEAX@std@@@std@@QEAAPEAU?$_Tree_node@U?$pair@$$CBHPEAVMWTensorBase@@@std@@PEAX@2@_K@Z 0000000180003e30 f i MWAvgPoolingLayer.obj
 0001:00002e60       ?assign@?$_Narrow_char_traits@DH@std@@SAXAEADAEBD@Z 0000000180003e60 f i MWAvgPoolingLayer.obj
 0001:00002e80       ?assign@?$basic_string@DU?$char_traits@D@std@@V?$allocator@D@2@@std@@QEAAAEAV12@QEBD@Z 0000000180003e80 f i MWAvgPoolingLayer.obj
 0001:00002ec0       ?assign@?$basic_string@DU?$char_traits@D@std@@V?$allocator@D@2@@std@@QEAAAEAV12@QEBD_K@Z 0000000180003ec0 f i MWAvgPoolingLayer.obj
 0001:00002f80       ?ceil@@YAMM@Z              0000000180003f80 f i MWAvgPoolingLayer.obj
 0001:00002fa0       ?compare@?$_Narrow_char_traits@DH@std@@SAHQEBD0_K@Z 0000000180003fa0 f i MWAvgPoolingLayer.obj
 0001:00002fd0       ?compare@?$basic_string@DU?$char_traits@D@std@@V?$allocator@D@2@@std@@QEBAHQEBD@Z 0000000180003fd0 f i MWAvgPoolingLayer.obj
 0001:00003020       ?copy@?$_Char_traits@DH@std@@SAPEADQEADQEBD_K@Z 0000000180004020 f i MWAvgPoolingLayer.obj
 0001:00003060       ?deallocate@?$allocator@D@std@@QEAAXQEAD_K@Z 0000000180004060 f i MWAvgPoolingLayer.obj
 0001:00003090       ?deallocate@?$allocator@U?$_Tree_node@U?$pair@$$CBHPEAVMWTensorBase@@@std@@PEAX@std@@@std@@QEAAXQEAU?$_Tree_node@U?$pair@$$CBHPEAVMWTensorBase@@@std@@PEAX@2@_K@Z 0000000180004090 f i MWAvgPoolingLayer.obj
 0001:000030c0       ?end@?$_Tree@V?$_Tmap_traits@HPEAVMWTensorBase@@U?$less@H@std@@V?$allocator@U?$pair@$$CBHPEAVMWTensorBase@@@std@@@3@$0A@@std@@@std@@QEAA?AV?$_Tree_iterator@V?$_Tree_val@U?$_Tree_simple_types@U?$pair@$$CBHPEAVMWTensorBase@@@std@@@std@@@std@@@2@XZ 00000001800040c0 f i MWAvgPoolingLayer.obj
 0001:00003100       ?find@?$_Tree@V?$_Tmap_traits@HPEAVMWTensorBase@@U?$less@H@std@@V?$allocator@U?$pair@$$CBHPEAVMWTensorBase@@@std@@@3@$0A@@std@@@std@@QEAA?AV?$_Tree_iterator@V?$_Tree_val@U?$_Tree_simple_types@U?$pair@$$CBHPEAVMWTensorBase@@@std@@@std@@@std@@@2@AEBH@Z 0000000180004100 f i MWAvgPoolingLayer.obj
 0001:00003150       ?getBatchSize@MWTensorBase@@QEBAHXZ 0000000180004150 f i MWAvgPoolingLayer.obj
 0001:00003170       ?getChannels@MWTensorBase@@QEBAHXZ 0000000180004170 f i MWAvgPoolingLayer.obj
 0001:00003190       ?getHeight@MWTensorBase@@QEBAHXZ 0000000180004190 f i MWAvgPoolingLayer.obj
 0001:000031b0       ?getSequenceLength@MWTensorBase@@QEBAHXZ 00000001800041b0 f i MWAvgPoolingLayer.obj
 0001:000031d0       ?getWidth@MWTensorBase@@QEBAHXZ 00000001800041d0 f i MWAvgPoolingLayer.obj
 0001:000031f0       ?isFloat@?$MWTensor@C@@UEBA_NXZ 00000001800041f0 f i MWAvgPoolingLayer.obj
 0001:00003210       ?isFloat@?$MWTensor@M@@UEBA_NXZ 0000000180004210 f i MWAvgPoolingLayer.obj
 0001:00003230       ?isInt8@?$MWTensor@C@@UEBA_NXZ 0000000180004230 f i MWAvgPoolingLayer.obj
 0001:00003250       ?isInt8@?$MWTensor@M@@UEBA_NXZ 0000000180004250 f i MWAvgPoolingLayer.obj
 0001:00003270       ?length@?$_Narrow_char_traits@DH@std@@SA_KQEBD@Z 0000000180004270 f i MWAvgPoolingLayer.obj
 0001:00003290       ?max@?$numeric_limits@_J@std@@SA_JXZ 0000000180004290 f i MWAvgPoolingLayer.obj
 0001:000032a0       ?max_size@?$_Default_allocator_traits@V?$allocator@D@std@@@std@@SA_KAEBV?$allocator@D@2@@Z 00000001800042a0 f i MWAvgPoolingLayer.obj
 0001:000032b0       ?max_size@?$_Default_allocator_traits@V?$allocator@U?$_Tree_node@U?$pair@$$CBHPEAVMWTensorBase@@@std@@PEAX@std@@@std@@@std@@SA_KAEBV?$allocator@U?$_Tree_node@U?$pair@$$CBHPEAVMWTensorBase@@@std@@PEAX@std@@@2@@Z 00000001800042b0 f i MWAvgPoolingLayer.obj
 0001:000032c0       ?max_size@?$_Tree@V?$_Tmap_traits@HPEAVMWTensorBase@@U?$less@H@std@@V?$allocator@U?$pair@$$CBHPEAVMWTensorBase@@@std@@@3@$0A@@std@@@std@@QEBA_KXZ 00000001800042c0 f i MWAvgPoolingLayer.obj
 0001:00003310       ?max_size@?$basic_string@DU?$char_traits@D@std@@V?$allocator@D@2@@std@@QEBA_KXZ 0000000180004310 f i MWAvgPoolingLayer.obj
 0001:00003380       ?move@?$_Char_traits@DH@std@@SAPEADQEADQEBD_K@Z 0000000180004380 f i MWAvgPoolingLayer.obj
 0001:000033c0       ?setopBufIndex@MWTensorBase@@QEAAXH@Z 00000001800043c0 f i MWAvgPoolingLayer.obj
 0001:000033e0       ?what@exception@std@@UEBAPEBDXZ 00000001800043e0 f i MWAvgPoolingLayer.obj
 0001:00003420       ??0MWCNNLayer@@QEAA@XZ     0000000180004420 f   MWCNNLayer.obj
 0001:000034b0       ??1MWCNNLayer@@UEAA@XZ     00000001800044b0 f   MWCNNLayer.obj
 0001:00003520       ?predict@MWCNNLayer@@UEAAXXZ 0000000180004520 f   MWCNNLayer.obj
 0001:00003560       ?cleanup@MWCNNLayer@@UEAAXXZ 0000000180004560 f   MWCNNLayer.obj
 0001:000036b0       ?allocate@MWCNNLayer@@UEAAXXZ 00000001800046b0 f   MWCNNLayer.obj
 0001:000037c0       ?deallocate@MWCNNLayer@@QEAAXXZ 00000001800047c0 f   MWCNNLayer.obj
 0001:000038e0       ?resetTensorDataPointers@MWCNNLayer@@QEAAXXZ 00000001800048e0 f   MWCNNLayer.obj
 0001:000039b0       ?postSetup@MWCNNLayer@@QEAAXXZ 00000001800049b0 f   MWCNNLayer.obj
 0001:000039f0       ?getInputTensor@MWCNNLayer@@QEAAPEAVMWTensorBase@@H@Z 00000001800049f0 f   MWCNNLayer.obj
 0001:00003a80       ?getLayerOutput@MWCNNLayer@@QEAAPEAMH@Z 0000000180004a80 f   MWCNNLayer.obj
 0001:00003ac0       ?getOutputTensor@MWCNNLayer@@QEAAPEAVMWTensorBase@@_K@Z 0000000180004ac0 f   MWCNNLayer.obj
 0001:00003b50       ?setName@MWCNNLayer@@QEAAXAEBV?$basic_string@DU?$char_traits@D@std@@V?$allocator@D@2@@std@@@Z 0000000180004b50 f   MWCNNLayer.obj
 0001:00003b80       ?getBatchSize@MWCNNLayer@@IEAAHXZ 0000000180004b80 f   MWCNNLayer.obj
 0001:00003bb0       ?getHeight@MWCNNLayer@@IEAAHH@Z 0000000180004bb0 f   MWCNNLayer.obj
 0001:00003bf0       ?getWidth@MWCNNLayer@@IEAAHH@Z 0000000180004bf0 f   MWCNNLayer.obj
 0001:00003c30       ?getNumInputFeatures@MWCNNLayer@@IEAAHH@Z 0000000180004c30 f   MWCNNLayer.obj
 0001:00003c60       ?getNumOutputFeatures@MWCNNLayer@@IEAAHH@Z 0000000180004c60 f   MWCNNLayer.obj
 0001:00003ca0       ?setInputTensor@MWCNNLayer@@IEAAXPEAVMWTensorBase@@H@Z 0000000180004ca0 f   MWCNNLayer.obj
 0001:00003ce0       ?resizeOutputTensor@MWCNNLayer@@IEAAXHHHHHH@Z 0000000180004ce0 f   MWCNNLayer.obj
 0001:00003de0       ?setupTensors@MWCNNLayer@@IEAAXHHZZ 0000000180004de0 f   MWCNNLayer.obj
 0001:00003f70       ?openBinaryFile@MWCNNLayer@@SAPEAU_iobuf@@PEBD@Z 0000000180004f70 f   MWCNNLayer.obj
 0001:000043a0       ?getFileOpenError@MWCNNLayer@@SA?AVruntime_error@std@@PEBD@Z 00000001800053a0 f   MWCNNLayer.obj
 0001:00004490       ?getFilePath@MWCNNLayer@@CA?AV?$basic_string@DU?$char_traits@D@std@@V?$allocator@D@2@@std@@V23@@Z 0000000180005490 f   MWCNNLayer.obj
 0001:00004630       ??$?0$$V@?$_Compressed_pair@V?$allocator@U?$_Tree_node@U?$pair@$$CBHH@std@@PEAX@std@@@std@@V?$_Tree_val@U?$_Tree_simple_types@U?$pair@$$CBHH@std@@@std@@@2@$00@std@@QEAA@U_Zero_then_variadic_args_t@1@@Z 0000000180005630 f i MWCNNLayer.obj
 0001:00004660       ??$?0$$V@?$_Compressed_pair@V?$allocator@U?$_Tree_node@U?$pair@$$CBHPEAVMWTensorBase@@@std@@PEAX@std@@@std@@V?$_Tree_val@U?$_Tree_simple_types@U?$pair@$$CBHPEAVMWTensorBase@@@std@@@std@@@2@$00@std@@QEAA@U_Zero_then_variadic_args_t@1@@Z 0000000180005660 f i MWCNNLayer.obj
 0001:00004690       ??$?0AEAV?$allocator@D@std@@$$V@?$_Compressed_pair@V?$allocator@D@std@@V?$_String_val@U?$_Simple_types@D@std@@@2@$00@std@@QEAA@U_One_then_variadic_args_t@1@AEAV?$allocator@D@1@@Z 0000000180005690 f i MWCNNLayer.obj
 0001:000046d0       ??$?0AEBU?$less@H@std@@U_Zero_then_variadic_args_t@1@@?$_Compressed_pair@U?$less@H@std@@V?$_Compressed_pair@V?$allocator@U?$_Tree_node@U?$pair@$$CBHH@std@@PEAX@std@@@std@@V?$_Tree_val@U?$_Tree_simple_types@U?$pair@$$CBHH@std@@@std@@@2@$00@2@$00@std@@QEAA@U_One_then_variadic_args_t@1@AEBU?$less@H@1@$$QEAU_Zero_then_variadic_args_t@1@@Z 00000001800056d0 f i MWCNNLayer.obj
 0001:00004720       ??$?0AEBU?$less@H@std@@U_Zero_then_variadic_args_t@1@@?$_Compressed_pair@U?$less@H@std@@V?$_Compressed_pair@V?$allocator@U?$_Tree_node@U?$pair@$$CBHPEAVMWTensorBase@@@std@@PEAX@std@@@std@@V?$_Tree_val@U?$_Tree_simple_types@U?$pair@$$CBHPEAVMWTensorBase@@@std@@@std@@@2@$00@2@$00@std@@QEAA@U_One_then_variadic_args_t@1@AEBU?$less@H@1@$$QEAU_Zero_then_variadic_args_t@1@@Z 0000000180005720 f i MWCNNLayer.obj
 0001:00004770       ??$?0AEBV?$allocator@D@std@@$$V@?$_Compressed_pair@V?$allocator@D@std@@V?$_String_val@U?$_Simple_types@D@std@@@2@$00@std@@QEAA@U_One_then_variadic_args_t@1@AEBV?$allocator@D@1@@Z 0000000180005770 f i MWCNNLayer.obj
 0001:000047b0       ??$?0V?$allocator@D@std@@$$V@?$_Compressed_pair@V?$allocator@D@std@@V?$_String_val@U?$_Simple_types@D@std@@@2@$00@std@@QEAA@U_One_then_variadic_args_t@1@$$QEAV?$allocator@D@1@@Z 00000001800057b0 f i MWCNNLayer.obj
 0001:000047f0       ??$?HDU?$char_traits@D@std@@V?$allocator@D@1@@std@@YA?AV?$basic_string@DU?$char_traits@D@std@@V?$allocator@D@2@@0@$$QEAV10@0@Z 00000001800057f0 f i MWCNNLayer.obj
 0001:00004840       ??$?HDU?$char_traits@D@std@@V?$allocator@D@1@@std@@YA?AV?$basic_string@DU?$char_traits@D@std@@V?$allocator@D@2@@0@$$QEAV10@AEBV10@@Z 0000000180005840 f i MWCNNLayer.obj
 0001:000048a0       ??$?HDU?$char_traits@D@std@@V?$allocator@D@1@@std@@YA?AV?$basic_string@DU?$char_traits@D@std@@V?$allocator@D@2@@0@AEBV10@0@Z 00000001800058a0 f i MWCNNLayer.obj
 0001:00004990       ??$_Allocators_equal@V?$allocator@D@std@@@std@@YA_NAEBV?$allocator@D@0@0@Z 0000000180005990 f i MWCNNLayer.obj
 0001:000049a0       ??$_Buyheadnode@V?$allocator@U?$_Tree_node@U?$pair@$$CBHH@std@@PEAX@std@@@std@@@?$_Tree_node@U?$pair@$$CBHH@std@@PEAX@std@@SAPEAU01@AEAV?$allocator@U?$_Tree_node@U?$pair@$$CBHH@std@@PEAX@std@@@1@@Z 00000001800059a0 f i MWCNNLayer.obj
 0001:00004a20       ??$_Buyheadnode@V?$allocator@U?$_Tree_node@U?$pair@$$CBHPEAVMWTensorBase@@@std@@PEAX@std@@@std@@@?$_Tree_node@U?$pair@$$CBHPEAVMWTensorBase@@@std@@PEAX@std@@SAPEAU01@AEAV?$allocator@U?$_Tree_node@U?$pair@$$CBHPEAVMWTensorBase@@@std@@PEAX@std@@@1@@Z 0000000180005a20 f i MWCNNLayer.obj
 0001:00004aa0       ??$_Construct_in_place@PEADAEAPEAD@std@@YAXAEAPEAD0@Z 0000000180005aa0 f i MWCNNLayer.obj
 0001:00004af0       ??$_Construct_in_place@PEAU?$_Tree_node@U?$pair@$$CBHH@std@@PEAX@std@@AEBQEAU12@@std@@YAXAEAPEAU?$_Tree_node@U?$pair@$$CBHH@std@@PEAX@0@AEBQEAU10@@Z 0000000180005af0 f i MWCNNLayer.obj
 0001:00004b40       ??$_Construct_in_place@PEAU?$_Tree_node@U?$pair@$$CBHPEAVMWTensorBase@@@std@@PEAX@std@@AEBQEAU12@@std@@YAXAEAPEAU?$_Tree_node@U?$pair@$$CBHPEAVMWTensorBase@@@std@@PEAX@0@AEBQEAU10@@Z 0000000180005b40 f i MWCNNLayer.obj
 0001:00004b90       ??$_Destroy_in_place@PEAU?$_Tree_node@U?$pair@$$CBHH@std@@PEAX@std@@@std@@YAXAEAPEAU?$_Tree_node@U?$pair@$$CBHH@std@@PEAX@0@@Z 0000000180005b90 f i MWCNNLayer.obj
 0001:00004ba0       ??$_Erase_head@V?$allocator@U?$_Tree_node@U?$pair@$$CBHH@std@@PEAX@std@@@std@@@?$_Tree_val@U?$_Tree_simple_types@U?$pair@$$CBHH@std@@@std@@@std@@QEAAXAEAV?$allocator@U?$_Tree_node@U?$pair@$$CBHH@std@@PEAX@std@@@1@@Z 0000000180005ba0 f i MWCNNLayer.obj
 0001:00004bf0       ??$_Erase_head@V?$allocator@U?$_Tree_node@U?$pair@$$CBHPEAVMWTensorBase@@@std@@PEAX@std@@@std@@@?$_Tree_val@U?$_Tree_simple_types@U?$pair@$$CBHPEAVMWTensorBase@@@std@@@std@@@std@@QEAAXAEAV?$allocator@U?$_Tree_node@U?$pair@$$CBHPEAVMWTensorBase@@@std@@PEAX@std@@@1@@Z 0000000180005bf0 f i MWCNNLayer.obj
 0001:00004c40       ??$_Erase_tree@V?$allocator@U?$_Tree_node@U?$pair@$$CBHH@std@@PEAX@std@@@std@@@?$_Tree_val@U?$_Tree_simple_types@U?$pair@$$CBHH@std@@@std@@@std@@QEAAXAEAV?$allocator@U?$_Tree_node@U?$pair@$$CBHH@std@@PEAX@std@@@1@PEAU?$_Tree_node@U?$pair@$$CBHH@std@@PEAX@1@@Z 0000000180005c40 f i MWCNNLayer.obj
 0001:00004ca0       ??$_Erase_tree@V?$allocator@U?$_Tree_node@U?$pair@$$CBHPEAVMWTensorBase@@@std@@PEAX@std@@@std@@@?$_Tree_val@U?$_Tree_simple_types@U?$pair@$$CBHPEAVMWTensorBase@@@std@@@std@@@std@@QEAAXAEAV?$allocator@U?$_Tree_node@U?$pair@$$CBHPEAVMWTensorBase@@@std@@PEAX@std@@@1@PEAU?$_Tree_node@U?$pair@$$CBHPEAVMWTensorBase@@@std@@PEAX@1@@Z 0000000180005ca0 f i MWCNNLayer.obj
 0001:00004d00       ??$_Freenode0@V?$allocator@U?$_Tree_node@U?$pair@$$CBHH@std@@PEAX@std@@@std@@@?$_Tree_node@U?$pair@$$CBHH@std@@PEAX@std@@SAXAEAV?$allocator@U?$_Tree_node@U?$pair@$$CBHH@std@@PEAX@std@@@1@PEAU01@@Z 0000000180005d00 f i MWCNNLayer.obj
 0001:00004d60       ??$_Freenode0@V?$allocator@U?$_Tree_node@U?$pair@$$CBHPEAVMWTensorBase@@@std@@PEAX@std@@@std@@@?$_Tree_node@U?$pair@$$CBHPEAVMWTensorBase@@@std@@PEAX@std@@SAXAEAV?$allocator@U?$_Tree_node@U?$pair@$$CBHPEAVMWTensorBase@@@std@@PEAX@std@@@1@PEAU01@@Z 0000000180005d60 f i MWCNNLayer.obj
 0001:00004dc0       ??$_Freenode@V?$allocator@U?$_Tree_node@U?$pair@$$CBHH@std@@PEAX@std@@@std@@@?$_Tree_node@U?$pair@$$CBHH@std@@PEAX@std@@SAXAEAV?$allocator@U?$_Tree_node@U?$pair@$$CBHH@std@@PEAX@std@@@1@PEAU01@@Z 0000000180005dc0 f i MWCNNLayer.obj
 0001:00004e10       ??$_Freenode@V?$allocator@U?$_Tree_node@U?$pair@$$CBHPEAVMWTensorBase@@@std@@PEAX@std@@@std@@@?$_Tree_node@U?$pair@$$CBHPEAVMWTensorBase@@@std@@PEAX@std@@SAXAEAV?$allocator@U?$_Tree_node@U?$pair@$$CBHPEAVMWTensorBase@@@std@@PEAX@std@@@1@PEAU01@@Z 0000000180005e10 f i MWCNNLayer.obj
 0001:00004e60       ??$_Get_size_of_n@$0CI@@std@@YA_K_K@Z 0000000180005e60 f i MWCNNLayer.obj
 0001:00004ea0       ??$_Pocca@V?$allocator@D@std@@@std@@YAXAEAV?$allocator@D@0@AEBV10@@Z 0000000180005ea0 f i MWCNNLayer.obj
 0001:00004eb0       ??$_Pocma@V?$allocator@D@std@@@std@@YAXAEAV?$allocator@D@0@0@Z 0000000180005eb0 f i MWCNNLayer.obj
 0001:00004ed0       ??$_Reallocate_grow_by@V<lambda_65e615be2a453ca0576c979606f46740>@@PEBD_K@?$basic_string@DU?$char_traits@D@std@@V?$allocator@D@2@@std@@AEAAAEAV01@_KV<lambda_65e615be2a453ca0576c979606f46740>@@PEBD_K@Z 0000000180005ed0 f i MWCNNLayer.obj
 0001:000050a0       ??$_Traits_find@U?$char_traits@D@std@@@std@@YA_KQEBD_K101@Z 00000001800060a0 f i MWCNNLayer.obj
 0001:000051b0       ??$_Traits_find_last_of@U?$char_traits@D@std@@@std@@YA_KQEBD_K101U?$integral_constant@_N$00@0@@Z 00000001800061b0 f i MWCNNLayer.obj
 0001:00005340       ??$_Traits_find_last_of@U?$char_traits@D@std@@@std@@YA_KQEBD_K101U?$integral_constant@_N$0A@@0@@Z 0000000180006340 f i MWCNNLayer.obj
 0001:00005400       ??$_Voidify_iter@PEAPEAU?$_Tree_node@U?$pair@$$CBHH@std@@PEAX@std@@@std@@YAPEAXPEAPEAU?$_Tree_node@U?$pair@$$CBHH@std@@PEAX@0@@Z 0000000180006400 f i MWCNNLayer.obj
 0001:00005410       ??$addressof@$$CBV?$_String_val@U?$_Simple_types@D@std@@@std@@@std@@YAPEBV?$_String_val@U?$_Simple_types@D@std@@@0@AEBV10@@Z 0000000180006410 f i MWCNNLayer.obj
 0001:00005420       ??$addressof@$$CBV?$basic_string@DU?$char_traits@D@std@@V?$allocator@D@2@@std@@@std@@YAPEBV?$basic_string@DU?$char_traits@D@std@@V?$allocator@D@2@@0@AEBV10@@Z 0000000180006420 f i MWCNNLayer.obj
 0001:00005430       ??$addressof@PEAU?$_Tree_node@U?$pair@$$CBHH@std@@PEAX@std@@@std@@YAPEAPEAU?$_Tree_node@U?$pair@$$CBHH@std@@PEAX@0@AEAPEAU10@@Z 0000000180006430 f i MWCNNLayer.obj
 0001:00005440       ??$addressof@U?$pair@$$CBHH@std@@@std@@YAPEAU?$pair@$$CBHH@0@AEAU10@@Z 0000000180006440 f i MWCNNLayer.obj
 0001:00005450       ??$addressof@V?$_String_val@U?$_Simple_types@D@std@@@std@@@std@@YAPEAV?$_String_val@U?$_Simple_types@D@std@@@0@AEAV10@@Z 0000000180006450 f i MWCNNLayer.obj
 0001:00005460       ??$addressof@V?$_Tree_val@U?$_Tree_simple_types@U?$pair@$$CBHH@std@@@std@@@std@@@std@@YAPEAV?$_Tree_val@U?$_Tree_simple_types@U?$pair@$$CBHH@std@@@std@@@0@AEAV10@@Z 0000000180006460 f i MWCNNLayer.obj
 0001:00005470       ??$addressof@V?$basic_string@DU?$char_traits@D@std@@V?$allocator@D@2@@std@@@std@@YAPEAV?$basic_string@DU?$char_traits@D@std@@V?$allocator@D@2@@0@AEAV10@@Z 0000000180006470 f i MWCNNLayer.obj
 0001:00005480       ??$allocateOutputData@C@MWCNNLayer@@QEAAXH@Z 0000000180006480 f i MWCNNLayer.obj
 0001:000054b0       ??$allocateOutputData@M@MWCNNLayer@@QEAAXH@Z 00000001800064b0 f i MWCNNLayer.obj
 0001:000054e0       ??$deallocateOutputData@C@MWCNNLayer@@QEAAXH@Z 00000001800064e0 f i MWCNNLayer.obj
 0001:00005570       ??$deallocateOutputData@M@MWCNNLayer@@QEAAXH@Z 0000000180006570 f i MWCNNLayer.obj
 0001:00005600       ??$destroy@U?$pair@$$CBHH@std@@@?$_Default_allocator_traits@V?$allocator@U?$_Tree_node@U?$pair@$$CBHH@std@@PEAX@std@@@std@@@std@@SAXAEAV?$allocator@U?$_Tree_node@U?$pair@$$CBHH@std@@PEAX@std@@@1@QEAU?$pair@$$CBHH@1@@Z 0000000180006600 f i MWCNNLayer.obj
 0001:00005610       ??$exchange@PEAU?$_Tree_node@U?$pair@$$CBHH@std@@PEAX@std@@AEAPEAU12@@std@@YAPEAU?$_Tree_node@U?$pair@$$CBHH@std@@PEAX@0@AEAPEAU10@0@Z 0000000180006610 f i MWCNNLayer.obj
 0001:00005650       ??$exchange@PEAU?$_Tree_node@U?$pair@$$CBHPEAVMWTensorBase@@@std@@PEAX@std@@AEAPEAU12@@std@@YAPEAU?$_Tree_node@U?$pair@$$CBHPEAVMWTensorBase@@@std@@PEAX@0@AEAPEAU10@0@Z 0000000180006650 f i MWCNNLayer.obj
 0001:00005690       ??$forward@AEAPEAD@std@@YAAEAPEADAEAPEAD@Z 0000000180006690 f i MWCNNLayer.obj
 0001:000056a0       ??$forward@AEAV?$allocator@D@std@@@std@@YAAEAV?$allocator@D@0@AEAV10@@Z 00000001800066a0 f i MWCNNLayer.obj
 0001:000056b0       ??$forward@AEBQEAU?$_Tree_node@U?$pair@$$CBHH@std@@PEAX@std@@@std@@YAAEBQEAU?$_Tree_node@U?$pair@$$CBHH@std@@PEAX@0@AEBQEAU10@@Z 00000001800066b0 f i MWCNNLayer.obj
 0001:000056c0       ??$forward@AEBU?$less@H@std@@@std@@YAAEBU?$less@H@0@AEBU10@@Z 00000001800066c0 f i MWCNNLayer.obj
 0001:000056d0       ??$forward@AEBV?$allocator@D@std@@@std@@YAAEBV?$allocator@D@0@AEBV10@@Z 00000001800066d0 f i MWCNNLayer.obj
 0001:000056e0       ??$forward@U_Zero_then_variadic_args_t@std@@@std@@YA$$QEAU_Zero_then_variadic_args_t@0@AEAU10@@Z 00000001800066e0 f i MWCNNLayer.obj
 0001:000056f0       ??$forward@V?$allocator@D@std@@@std@@YA$$QEAV?$allocator@D@0@AEAV10@@Z 00000001800066f0 f i MWCNNLayer.obj
 0001:00005700       ??$move@AEAV?$allocator@D@std@@@std@@YA$$QEAV?$allocator@D@0@AEAV10@@Z 0000000180006700 f i MWCNNLayer.obj
 0001:00005710       ??$move@AEAV?$basic_string@DU?$char_traits@D@std@@V?$allocator@D@2@@std@@@std@@YA$$QEAV?$basic_string@DU?$char_traits@D@std@@V?$allocator@D@2@@0@AEAV10@@Z 0000000180006710 f i MWCNNLayer.obj
 0001:00005720       ??0?$_String_bitmap@D$00@std@@QEAA@XZ 0000000180006720 f i MWCNNLayer.obj
 0001:00005740       ??0?$_Tree@V?$_Tmap_traits@HHU?$less@H@std@@V?$allocator@U?$pair@$$CBHH@std@@@2@$0A@@std@@@std@@QEAA@AEBU?$less@H@1@@Z 0000000180006740 f i MWCNNLayer.obj
 0001:00005780       ??0?$_Tree@V?$_Tmap_traits@HPEAVMWTensorBase@@U?$less@H@std@@V?$allocator@U?$pair@$$CBHPEAVMWTensorBase@@@std@@@3@$0A@@std@@@std@@QEAA@AEBU?$less@H@1@@Z 0000000180006780 f i MWCNNLayer.obj
 0001:000057c0       ??0?$_Tree_val@U?$_Tree_simple_types@U?$pair@$$CBHH@std@@@std@@@std@@QEAA@XZ 00000001800067c0 f i MWCNNLayer.obj
 0001:000057f0       ??0?$_Tree_val@U?$_Tree_simple_types@U?$pair@$$CBHPEAVMWTensorBase@@@std@@@std@@@std@@QEAA@XZ 00000001800067f0 f i MWCNNLayer.obj
 0001:00005820       ??0?$allocator@U?$_Tree_node@U?$pair@$$CBHH@std@@PEAX@std@@@std@@QEAA@XZ 0000000180006820 f i MWCNNLayer.obj
 0001:00005830       ??0?$allocator@U?$_Tree_node@U?$pair@$$CBHPEAVMWTensorBase@@@std@@PEAX@std@@@std@@QEAA@XZ 0000000180006830 f i MWCNNLayer.obj
 0001:00005840       ??0?$basic_string@DU?$char_traits@D@std@@V?$allocator@D@2@@std@@QEAA@$$QEAV01@@Z 0000000180006840 f i MWCNNLayer.obj
 0001:000058a0       ??0?$basic_string@DU?$char_traits@D@std@@V?$allocator@D@2@@std@@QEAA@AEBV01@_K1AEBV?$allocator@D@1@@Z 00000001800068a0 f i MWCNNLayer.obj
 0001:00005930       ??0?$basic_string@DU?$char_traits@D@std@@V?$allocator@D@2@@std@@QEAA@U_String_constructor_concat_tag@1@AEAV01@1@Z 0000000180006930 f i MWCNNLayer.obj
 0001:00005d40       ??0?$basic_string@DU?$char_traits@D@std@@V?$allocator@D@2@@std@@QEAA@U_String_constructor_concat_tag@1@AEBV01@QEBD_K23@Z 0000000180006d40 f i MWCNNLayer.obj
 0001:00005f40       ??0?$basic_string@DU?$char_traits@D@std@@V?$allocator@D@2@@std@@QEAA@XZ 0000000180006f40 f i MWCNNLayer.obj
 0001:00005f90       ??0?$map@HHU?$less@H@std@@V?$allocator@U?$pair@$$CBHH@std@@@2@@std@@QEAA@XZ 0000000180006f90 f i MWCNNLayer.obj
 0001:00005fc0       ??0?$map@HPEAVMWTensorBase@@U?$less@H@std@@V?$allocator@U?$pair@$$CBHPEAVMWTensorBase@@@std@@@3@@std@@QEAA@XZ 0000000180006fc0 f i MWCNNLayer.obj
 0001:00005ff0       ??0exception@std@@QEAA@QEBD@Z 0000000180006ff0 f i MWCNNLayer.obj
 0001:00006060       ??0runtime_error@std@@QEAA@AEBV01@@Z 0000000180007060 f i MWCNNLayer.obj
 0001:000060a0       ??0runtime_error@std@@QEAA@AEBV?$basic_string@DU?$char_traits@D@std@@V?$allocator@D@2@@1@@Z 00000001800070a0 f i MWCNNLayer.obj
 0001:000060e0       ??0runtime_error@std@@QEAA@PEBD@Z 00000001800070e0 f i MWCNNLayer.obj
 0001:00006120       ??1?$_Tree@V?$_Tmap_traits@HHU?$less@H@std@@V?$allocator@U?$pair@$$CBHH@std@@@2@$0A@@std@@@std@@QEAA@XZ 0000000180007120 f i MWCNNLayer.obj
 0001:00006160       ??1?$_Tree@V?$_Tmap_traits@HPEAVMWTensorBase@@U?$less@H@std@@V?$allocator@U?$pair@$$CBHPEAVMWTensorBase@@@std@@@3@$0A@@std@@@std@@QEAA@XZ 0000000180007160 f i MWCNNLayer.obj
 0001:000061a0       ??1?$map@HHU?$less@H@std@@V?$allocator@U?$pair@$$CBHH@std@@@2@@std@@QEAA@XZ 00000001800071a0 f i MWCNNLayer.obj
 0001:000061c0       ??1?$map@HPEAVMWTensorBase@@U?$less@H@std@@V?$allocator@U?$pair@$$CBHPEAVMWTensorBase@@@std@@@3@@std@@QEAA@XZ 00000001800071c0 f i MWCNNLayer.obj
 0001:000061e0       ??1runtime_error@std@@UEAA@XZ 00000001800071e0 f i MWCNNLayer.obj
 0001:00006200       ??4?$basic_string@DU?$char_traits@D@std@@V?$allocator@D@2@@std@@QEAAAEAV01@$$QEAV01@@Z 0000000180007200 f i MWCNNLayer.obj
 0001:00006260       ??4?$basic_string@DU?$char_traits@D@std@@V?$allocator@D@2@@std@@QEAAAEAV01@AEBV01@@Z 0000000180007260 f i MWCNNLayer.obj
 0001:000062c0       ??4?$basic_string@DU?$char_traits@D@std@@V?$allocator@D@2@@std@@QEAAAEAV01@QEBD@Z 00000001800072c0 f i MWCNNLayer.obj
 0001:000062f0       ??9?$_Tree_const_iterator@V?$_Tree_val@U?$_Tree_simple_types@U?$pair@$$CBHPEAVMWTensorBase@@@std@@@std@@@std@@@std@@QEBA_NAEBV01@@Z 00000001800072f0 f i MWCNNLayer.obj
 0001:00006330       ??C?$_Tree_iterator@V?$_Tree_val@U?$_Tree_simple_types@U?$pair@$$CBHPEAVMWTensorBase@@@std@@@std@@@std@@@std@@QEBAPEAU?$pair@$$CBHPEAVMWTensorBase@@@1@XZ 0000000180007330 f i MWCNNLayer.obj
 0001:00006350       ??D?$_Tree_const_iterator@V?$_Tree_val@U?$_Tree_simple_types@U?$pair@$$CBHPEAVMWTensorBase@@@std@@@std@@@std@@@std@@QEBAAEBU?$pair@$$CBHPEAVMWTensorBase@@@1@XZ 0000000180007350 f i MWCNNLayer.obj
 0001:00006370       ??D?$_Tree_iterator@V?$_Tree_val@U?$_Tree_simple_types@U?$pair@$$CBHPEAVMWTensorBase@@@std@@@std@@@std@@@std@@QEBAAEAU?$pair@$$CBHPEAVMWTensorBase@@@1@XZ 0000000180007370 f i MWCNNLayer.obj
 0001:00006390       ??R<lambda_65e615be2a453ca0576c979606f46740>@@QEBA@QEADQEBD_K12@Z 0000000180007390 f i MWCNNLayer.obj
 0001:00006410       ??_GMWCNNLayer@@UEAAPEAXI@Z 0000000180007410 f i MWCNNLayer.obj
 0001:00006410       ??_EMWCNNLayer@@UEAAPEAXI@Z 0000000180007410 f i MWCNNLayer.obj
 0001:00006450       ??_Gruntime_error@std@@UEAAPEAXI@Z 0000000180007450 f i MWCNNLayer.obj
 0001:00006450       ??_Eruntime_error@std@@UEAAPEAXI@Z 0000000180007450 f i MWCNNLayer.obj
 0001:00006490       ?_Alloc_proxy@_Container_base0@std@@QEAAXAEBU_Fake_allocator@2@@Z 0000000180007490 f i MWCNNLayer.obj
 0001:000064a0       ?_Alloc_sentinel_and_proxy@?$_Tree@V?$_Tmap_traits@HHU?$less@H@std@@V?$allocator@U?$pair@$$CBHH@std@@@2@$0A@@std@@@std@@IEAAXXZ 00000001800074a0 f i MWCNNLayer.obj
 0001:00006510       ?_Alloc_sentinel_and_proxy@?$_Tree@V?$_Tmap_traits@HPEAVMWTensorBase@@U?$less@H@std@@V?$allocator@U?$pair@$$CBHPEAVMWTensorBase@@@std@@@3@$0A@@std@@@std@@IEAAXXZ 0000000180007510 f i MWCNNLayer.obj
 0001:00006580       ?_Check_offset@?$_String_val@U?$_Simple_types@D@std@@@std@@QEBAX_K@Z 0000000180007580 f i MWCNNLayer.obj
 0001:000065b0       ?_Clamp_suffix_size@?$_String_val@U?$_Simple_types@D@std@@@std@@QEBA_K_K0@Z 00000001800075b0 f i MWCNNLayer.obj
 0001:000065f0       ?_Copy_assign@?$basic_string@DU?$char_traits@D@std@@V?$allocator@D@2@@std@@AEAAXAEBV12@U?$integral_constant@_N$0A@@2@@Z 00000001800075f0 f i MWCNNLayer.obj
 0001:00006660       ?_Get_first@?$_Compressed_pair@V?$allocator@U?$_Tree_node@U?$pair@$$CBHH@std@@PEAX@std@@@std@@V?$_Tree_val@U?$_Tree_simple_types@U?$pair@$$CBHH@std@@@std@@@2@$00@std@@QEAAAEAV?$allocator@U?$_Tree_node@U?$pair@$$CBHH@std@@PEAX@std@@@2@XZ 0000000180007660 f i MWCNNLayer.obj
 0001:00006670       ?_Get_scary@?$_Tree@V?$_Tmap_traits@HHU?$less@H@std@@V?$allocator@U?$pair@$$CBHH@std@@@2@$0A@@std@@@std@@IEAAPEAV?$_Tree_val@U?$_Tree_simple_types@U?$pair@$$CBHH@std@@@std@@@2@XZ 0000000180007670 f i MWCNNLayer.obj
 0001:00006690       ?_Getal@?$_Tree@V?$_Tmap_traits@HHU?$less@H@std@@V?$allocator@U?$pair@$$CBHH@std@@@2@$0A@@std@@@std@@IEAAAEAV?$allocator@U?$_Tree_node@U?$pair@$$CBHH@std@@PEAX@std@@@2@XZ 0000000180007690 f i MWCNNLayer.obj
 0001:000066b0       ?_Mark@?$_String_bitmap@D$00@std@@QEAA_NPEBDQEBD@Z 00000001800076b0 f i MWCNNLayer.obj
 0001:000066f0       ?_Match@?$_String_bitmap@D$00@std@@QEBA_ND@Z 00000001800076f0 f i MWCNNLayer.obj
 0001:00006710       ?_Memcpy_val_from@?$basic_string@DU?$char_traits@D@std@@V?$allocator@D@2@@std@@AEAAXAEBV12@@Z 0000000180007710 f i MWCNNLayer.obj
 0001:00006760       ?_Move_assign@?$basic_string@DU?$char_traits@D@std@@V?$allocator@D@2@@std@@AEAAXAEAV12@U_Equal_allocators@2@@Z 0000000180007760 f i MWCNNLayer.obj
 0001:000067c0       ?_Orphan_ptr@?$_Tree_val@U?$_Tree_simple_types@U?$pair@$$CBHPEAVMWTensorBase@@@std@@@std@@@std@@QEAAXQEAU?$_Tree_node@U?$pair@$$CBHPEAVMWTensorBase@@@std@@PEAX@2@@Z 00000001800077c0 f i MWCNNLayer.obj
 0001:000067d0       ?_Swap_proxy_and_iterators@?$basic_string@DU?$char_traits@D@std@@V?$allocator@D@2@@std@@AEAAXAEAV12@@Z 00000001800077d0 f i MWCNNLayer.obj
 0001:00006800       ?_Swap_proxy_and_iterators@_Container_base0@std@@QEAAXAEAU12@@Z 0000000180007800 f i MWCNNLayer.obj
 0001:00006810       ?_Take_contents@?$basic_string@DU?$char_traits@D@std@@V?$allocator@D@2@@std@@AEAAXAEAV12@@Z 0000000180007810 f i MWCNNLayer.obj
 0001:00006900       ?_Xran@?$_String_val@U?$_Simple_types@D@std@@@std@@SAXXZ 0000000180007900 f i MWCNNLayer.obj
 0001:00006920       ?allocate@?$allocator@U?$_Tree_node@U?$pair@$$CBHH@std@@PEAX@std@@@std@@QEAAPEAU?$_Tree_node@U?$pair@$$CBHH@std@@PEAX@2@_K@Z 0000000180007920 f i MWCNNLayer.obj
 0001:00006950       ?append@?$basic_string@DU?$char_traits@D@std@@V?$allocator@D@2@@std@@QEAAAEAV12@AEBV12@@Z 0000000180007950 f i MWCNNLayer.obj
 0001:00006990       ?append@?$basic_string@DU?$char_traits@D@std@@V?$allocator@D@2@@std@@QEAAAEAV12@QEBD_K@Z 0000000180007990 f i MWCNNLayer.obj
 0001:00006a90       ?assign@?$basic_string@DU?$char_traits@D@std@@V?$allocator@D@2@@std@@QEAAAEAV12@AEBV12@_K_K@Z 0000000180007a90 f i MWCNNLayer.obj
 0001:00006b00       ?c_str@?$basic_string@DU?$char_traits@D@std@@V?$allocator@D@2@@std@@QEBAPEBDXZ 0000000180007b00 f i MWCNNLayer.obj
 0001:00006b20       ?clear@?$_Tree@V?$_Tmap_traits@HPEAVMWTensorBase@@U?$less@H@std@@V?$allocator@U?$pair@$$CBHPEAVMWTensorBase@@@std@@@3@$0A@@std@@@std@@QEAAXXZ 0000000180007b20 f i MWCNNLayer.obj
 0001:00006bb0       ?deallocate@?$_Default_allocator_traits@V?$allocator@U?$_Tree_node@U?$pair@$$CBHH@std@@PEAX@std@@@std@@@std@@SAXAEAV?$allocator@U?$_Tree_node@U?$pair@$$CBHH@std@@PEAX@std@@@2@QEAU?$_Tree_node@U?$pair@$$CBHH@std@@PEAX@2@_K@Z 0000000180007bb0 f i MWCNNLayer.obj
 0001:00006be0       ?deallocate@?$_Default_allocator_traits@V?$allocator@U?$_Tree_node@U?$pair@$$CBHPEAVMWTensorBase@@@std@@PEAX@std@@@std@@@std@@SAXAEAV?$allocator@U?$_Tree_node@U?$pair@$$CBHPEAVMWTensorBase@@@std@@PEAX@std@@@2@QEAU?$_Tree_node@U?$pair@$$CBHPEAVMWTensorBase@@@std@@PEAX@2@_K@Z 0000000180007be0 f i MWCNNLayer.obj
 0001:00006c10       ?empty@?$basic_string@DU?$char_traits@D@std@@V?$allocator@D@2@@std@@QEBA_NXZ 0000000180007c10 f i MWCNNLayer.obj
 0001:00006c50       ?find@?$_Narrow_char_traits@DH@std@@SAPEBDQEBD_KAEBD@Z 0000000180007c50 f i MWCNNLayer.obj
 0001:00006c90       ?find@?$basic_string@DU?$char_traits@D@std@@V?$allocator@D@2@@std@@QEBA_KQEBD_K@Z 0000000180007c90 f i MWCNNLayer.obj
 0001:00006cf0       ?find_last_of@?$basic_string@DU?$char_traits@D@std@@V?$allocator@D@2@@std@@QEBA_KQEBD_K@Z 0000000180007cf0 f i MWCNNLayer.obj
 0001:00006d50       ?getData@?$MWTensor@C@@QEBAPEACXZ 0000000180007d50 f i MWCNNLayer.obj
 0001:00006d60       ?getData@?$MWTensor@M@@QEBAPEAMXZ 0000000180007d60 f i MWCNNLayer.obj
 0001:00006d70       ?getNumOutputs@MWCNNLayer@@QEAA_KXZ 0000000180007d70 f i MWCNNLayer.obj
 0001:00006d90       ?get_allocator@?$basic_string@DU?$char_traits@D@std@@V?$allocator@D@2@@std@@QEBA?AV?$allocator@D@2@XZ 0000000180007d90 f i MWCNNLayer.obj
 0001:00006dc0       ?getopBufIndex@MWTensorBase@@QEAAHXZ 0000000180007dc0 f i MWCNNLayer.obj
 0001:00006dd0       ?pointer_to@?$pointer_traits@PEAU?$pair@$$CBHPEAVMWTensorBase@@@std@@@std@@SAPEAU?$pair@$$CBHPEAVMWTensorBase@@@2@AEAU32@@Z 0000000180007dd0 f i MWCNNLayer.obj
 0001:00006df0       ?select_on_container_copy_construction@?$_Default_allocator_traits@V?$allocator@D@std@@@std@@SA?AV?$allocator@D@2@AEBV32@@Z 0000000180007df0 f i MWCNNLayer.obj
 0001:00006e00       ?setBatchSize@MWTensorBase@@QEAAXH@Z 0000000180007e00 f i MWCNNLayer.obj
 0001:00006e20       ?setChannels@MWTensorBase@@QEAAXH@Z 0000000180007e20 f i MWCNNLayer.obj
 0001:00006e40       ?setData@?$MWTensor@C@@QEAAXPEAC@Z 0000000180007e40 f i MWCNNLayer.obj
 0001:00006e60       ?setData@?$MWTensor@M@@QEAAXPEAM@Z 0000000180007e60 f i MWCNNLayer.obj
 0001:00006e80       ?setHeight@MWTensorBase@@QEAAXH@Z 0000000180007e80 f i MWCNNLayer.obj
 0001:00006ea0       ?setSequenceLength@MWTensorBase@@QEAAXH@Z 0000000180007ea0 f i MWCNNLayer.obj
 0001:00006ec0       ?setWidth@MWTensorBase@@QEAAXH@Z 0000000180007ec0 f i MWCNNLayer.obj
 0001:00006ee0       ?size@?$_Tree@V?$_Tmap_traits@HPEAVMWTensorBase@@U?$less@H@std@@V?$allocator@U?$pair@$$CBHPEAVMWTensorBase@@@std@@@3@$0A@@std@@@std@@QEBA_KXZ 0000000180007ee0 f i MWCNNLayer.obj
 0001:00006f00       ?size@?$basic_string@DU?$char_traits@D@std@@V?$allocator@D@2@@std@@QEBA_KXZ 0000000180007f00 f i MWCNNLayer.obj
 0001:00006f10       ?substr@?$basic_string@DU?$char_traits@D@std@@V?$allocator@D@2@@std@@QEBA?AV12@_K0@Z 0000000180007f10 f i MWCNNLayer.obj
 0001:00006f80       ?createConvLayer@MWConvLayer@@QEAAXPEAVMWTargetNetworkImpl@@PEAVMWTensorBase@@HHHHHHHHHHHHHPEBD2H@Z 0000000180007f80 f   MWConvLayer.obj
 0001:00007230       ?propagateSize@MWConvLayer@@UEAAXXZ 0000000180008230 f   MWConvLayer.obj
 0001:000073b0       ??0MWElementwiseAffineLayer@@QEAA@XZ 00000001800083b0 f   MWElementwiseAffineLayer.obj
 0001:000073f0       ??1MWElementwiseAffineLayer@@UEAA@XZ 00000001800083f0 f   MWElementwiseAffineLayer.obj
 0001:00007420       ?createElementwiseAffineLayer@MWElementwiseAffineLayer@@QEAAXPEAVMWTargetNetworkImpl@@PEAVMWTensorBase@@HHHHHH_NHHPEBD3H@Z 0000000180008420 f   MWElementwiseAffineLayer.obj
 0001:000075a0       ?propagateSize@MWElementwiseAffineLayer@@UEAAXXZ 00000001800085a0 f   MWElementwiseAffineLayer.obj
 0001:00007670       ??_GMWElementwiseAffineLayer@@UEAAPEAXI@Z 0000000180008670 f i MWElementwiseAffineLayer.obj
 0001:00007670       ??_EMWElementwiseAffineLayer@@UEAAPEAXI@Z 0000000180008670 f i MWElementwiseAffineLayer.obj
 0001:000076b0       ?createFCLayer@MWFCLayer@@QEAAXPEAVMWTargetNetworkImpl@@PEAVMWTensorBase@@HHPEBD2H@Z 00000001800086b0 f   MWFCLayer.obj
 0001:000077e0       ?propagateSize@MWFCLayer@@UEAAXXZ 00000001800087e0 f   MWFCLayer.obj
 0001:00007870       ??0MWFusedConvReLULayer@@QEAA@XZ 0000000180008870 f   MWFusedConvReLULayer.obj
 0001:000078b0       ??1MWFusedConvReLULayer@@UEAA@XZ 00000001800088b0 f   MWFusedConvReLULayer.obj
 0001:000078e0       ?createFusedConvReLULayer@MWFusedConvReLULayer@@QEAAXPEAVMWTargetNetworkImpl@@HZZ 00000001800088e0 f   MWFusedConvReLULayer.obj
 0001:00008260       ?propagateSize@MWFusedConvReLULayer@@UEAAXXZ 0000000180009260 f   MWFusedConvReLULayer.obj
 0001:00008590       ??_GMWFusedConvReLULayer@@UEAAPEAXI@Z 0000000180009590 f i MWFusedConvReLULayer.obj
 0001:00008590       ??_EMWFusedConvReLULayer@@UEAAPEAXI@Z 0000000180009590 f i MWFusedConvReLULayer.obj
 0001:000085d0       ?getNumInputs@MWCNNLayer@@QEAA_KXZ 00000001800095d0 f i MWFusedConvReLULayer.obj
 0001:000085f0       ?createInputLayer@MWInputLayer@@QEAAXPEAVMWTargetNetworkImpl@@PEAVMWTensorBase@@HHHHPEBDH@Z 00000001800095f0 f   MWInputLayer.obj
 0001:000086e0       ?propagateSize@MWInputLayer@@UEAAXXZ 00000001800096e0 f   MWInputLayer.obj
 0001:000087f0       ?propagateSize@MWMaxPoolingLayer@@UEAAXXZ 00000001800097f0 f   MWMaxPoolingLayer.obj
 0001:00008b70       ??$?0AEBV?$allocator@H@std@@$$V@?$_Compressed_pair@V?$allocator@H@std@@V?$_Vector_val@U?$_Simple_types@H@std@@@2@$00@std@@QEAA@U_One_then_variadic_args_t@1@AEBV?$allocator@H@1@@Z 0000000180009b70 f i MWMaxPoolingLayer.obj
 0001:00008bb0       ??$_Construct_n_copies_of_ty@H@?$vector@HV?$allocator@H@std@@@std@@AEAAX_KAEBH@Z 0000000180009bb0 f i MWMaxPoolingLayer.obj
 0001:00008c60       ??$_Destroy_range@V?$allocator@H@std@@@std@@YAXPEAHQEAHAEAV?$allocator@H@0@@Z 0000000180009c60 f i MWMaxPoolingLayer.obj
 0001:00008c70       ??$_Emplace_back@AEBH@?$_Uninitialized_backout_al@V?$allocator@H@std@@@std@@QEAAXAEBH@Z 0000000180009c70 f i MWMaxPoolingLayer.obj
 0001:00008cd0       ??$_Fill_zero_memset@PEAH@std@@YAXPEAH_K@Z 0000000180009cd0 f i MWMaxPoolingLayer.obj
 0001:00008d10       ??$_Get_size_of_n@$03@std@@YA_K_K@Z 0000000180009d10 f i MWMaxPoolingLayer.obj
 0001:00008d60       ??$_Is_all_bits_zero@H@std@@YA_NAEBH@Z 0000000180009d60 f i MWMaxPoolingLayer.obj
 0001:00008db0       ??$_To_address@PEAH@std@@YA?A_PAEBQEAH@Z 0000000180009db0 f i MWMaxPoolingLayer.obj
 0001:00008dc0       ??$_Unfancy@H@std@@YAPEAHPEAH@Z 0000000180009dc0 f i MWMaxPoolingLayer.obj
 0001:00008dd0       ??$_Uninitialized_fill_n@V?$allocator@H@std@@@std@@YAPEAHPEAH_KAEBHAEAV?$allocator@H@0@@Z 0000000180009dd0 f i MWMaxPoolingLayer.obj
 0001:00008e80       ??$_Voidify_iter@PEAH@std@@YAPEAXPEAH@Z 0000000180009e80 f i MWMaxPoolingLayer.obj
 0001:00008e90       ??$construct@HAEBH@?$_Default_allocator_traits@V?$allocator@H@std@@@std@@SAXAEAV?$allocator@H@1@QEAHAEBH@Z 0000000180009e90 f i MWMaxPoolingLayer.obj
 0001:00008ee0       ??$createMaxPoolingLayer@CC@MWMaxPoolingLayer@@QEAAXPEAVMWTargetNetworkImpl@@PEAVMWTensorBase@@HHHHHHHH_NHPEBDHZZ 0000000180009ee0 f i MWMaxPoolingLayer.obj
 0001:00009350       ??$createMaxPoolingLayer@MM@MWMaxPoolingLayer@@QEAAXPEAVMWTargetNetworkImpl@@PEAVMWTensorBase@@HHHHHHHH_NHPEBDHZZ 000000018000a350 f i MWMaxPoolingLayer.obj
 0001:000097c0       ??$forward@AEBV?$allocator@H@std@@@std@@YAAEBV?$allocator@H@0@AEBV10@@Z 000000018000a7c0 f i MWMaxPoolingLayer.obj
 0001:000097d0       ??0?$_Uninitialized_backout_al@V?$allocator@H@std@@@std@@QEAA@PEAHAEAV?$allocator@H@1@@Z 000000018000a7d0 f i MWMaxPoolingLayer.obj
 0001:00009810       ??0?$_Vector_val@U?$_Simple_types@H@std@@@std@@QEAA@XZ 000000018000a810 f i MWMaxPoolingLayer.obj
 0001:00009850       ??0?$allocator@H@std@@QEAA@XZ 000000018000a850 f i MWMaxPoolingLayer.obj
 0001:00009860       ??0?$vector@HV?$allocator@H@std@@@std@@QEAA@_KAEBHAEBV?$allocator@H@1@@Z 000000018000a860 f i MWMaxPoolingLayer.obj
 0001:000098b0       ??1?$_Tidy_guard@V?$vector@HV?$allocator@H@std@@@std@@@std@@QEAA@XZ 000000018000a8b0 f i MWMaxPoolingLayer.obj
 0001:000098e0       ??1?$_Uninitialized_backout_al@V?$allocator@H@std@@@std@@QEAA@XZ 000000018000a8e0 f i MWMaxPoolingLayer.obj
 0001:00009910       ??1?$vector@HV?$allocator@H@std@@@std@@QEAA@XZ 000000018000a910 f i MWMaxPoolingLayer.obj
 0001:00009930       ??A?$vector@HV?$allocator@H@std@@@std@@QEAAAEAH_K@Z 000000018000a930 f i MWMaxPoolingLayer.obj
 0001:00009960       ?_Buy_nonzero@?$vector@HV?$allocator@H@std@@@std@@AEAAX_K@Z 000000018000a960 f i MWMaxPoolingLayer.obj
 0001:000099a0       ?_Buy_raw@?$vector@HV?$allocator@H@std@@@std@@AEAAX_K@Z 000000018000a9a0 f i MWMaxPoolingLayer.obj
 0001:00009a30       ?_Destroy@?$vector@HV?$allocator@H@std@@@std@@AEAAXPEAH0@Z 000000018000aa30 f i MWMaxPoolingLayer.obj
 0001:00009a70       ?_Get_first@?$_Compressed_pair@V?$allocator@H@std@@V?$_Vector_val@U?$_Simple_types@H@std@@@2@$00@std@@QEAAAEAV?$allocator@H@2@XZ 000000018000aa70 f i MWMaxPoolingLayer.obj
 0001:00009a80       ?_Get_first@?$_Compressed_pair@V?$allocator@H@std@@V?$_Vector_val@U?$_Simple_types@H@std@@@2@$00@std@@QEBAAEBV?$allocator@H@2@XZ 000000018000aa80 f i MWMaxPoolingLayer.obj
 0001:00009a90       ?_Getal@?$vector@HV?$allocator@H@std@@@std@@AEAAAEAV?$allocator@H@2@XZ 000000018000aa90 f i MWMaxPoolingLayer.obj
 0001:00009ab0       ?_Getal@?$vector@HV?$allocator@H@std@@@std@@AEBAAEBV?$allocator@H@2@XZ 000000018000aab0 f i MWMaxPoolingLayer.obj
 0001:00009ad0       ?_Release@?$_Uninitialized_backout_al@V?$allocator@H@std@@@std@@QEAAPEAHXZ 000000018000aad0 f i MWMaxPoolingLayer.obj
 0001:00009af0       ?_Tidy@?$vector@HV?$allocator@H@std@@@std@@AEAAXXZ 000000018000aaf0 f i MWMaxPoolingLayer.obj
 0001:00009bc0       ?_Ufill@?$vector@HV?$allocator@H@std@@@std@@AEAAPEAHPEAH_KAEBH@Z 000000018000abc0 f i MWMaxPoolingLayer.obj
 0001:00009c00       ?_Xlength@?$vector@HV?$allocator@H@std@@@std@@CAXXZ 000000018000ac00 f i MWMaxPoolingLayer.obj
 0001:00009c20       ?allocate@?$allocator@H@std@@QEAAPEAH_K@Z 000000018000ac20 f i MWMaxPoolingLayer.obj
 0001:00009c50       ?deallocate@?$allocator@H@std@@QEAAXQEAH_K@Z 000000018000ac50 f i MWMaxPoolingLayer.obj
 0001:00009c80       ?max_size@?$_Default_allocator_traits@V?$allocator@H@std@@@std@@SA_KAEBV?$allocator@H@2@@Z 000000018000ac80 f i MWMaxPoolingLayer.obj
 0001:00009c90       ?max_size@?$vector@HV?$allocator@H@std@@@std@@QEBA_KXZ 000000018000ac90 f i MWMaxPoolingLayer.obj
 0001:00009ce0       ?createOutputLayer@MWOutputLayer@@QEAAXPEAVMWTargetNetworkImpl@@PEAVMWTensorBase@@H@Z 000000018000ace0 f   MWOutputLayer.obj
 0001:00009dd0       ?predict@MWOutputLayer@@UEAAXXZ 000000018000add0 f   MWOutputLayer.obj
 0001:00009e00       ?propagateSize@MWOutputLayer@@UEAAXXZ 000000018000ae00 f   MWOutputLayer.obj
 0001:00009ed0       ??0MWTensorBase@@QEAA@HHHHHPEAVMWCNNLayer@@H@Z 000000018000aed0 f   MWTensorBase.obj
 0001:0000a020       ?getShape@MWTensorBase@@QEBAXQEAH@Z 000000018000b020 f   MWTensorBase.obj
 0001:0000a0f0       ?getLayout@MWTensorBase@@QEAAXQEAW4DIMSLABEL@1@@Z 000000018000b0f0 f   MWTensorBase.obj
 0001:0000a150       ?setLayout@MWTensorBase@@QEAAXQEAW4DIMSLABEL@1@@Z 000000018000b150 f   MWTensorBase.obj
 0001:0000a1b0       ?getDimsByLayout@MWTensorBase@@QEAAXQEAW4DIMSLABEL@1@HQEAH@Z 000000018000b1b0 f   MWTensorBase.obj
 0001:0000a220       ?getStrides@MWTensorBase@@SAXQEBHHQEAH@Z 000000018000b220 f   MWTensorBase.obj
 0001:0000a2a0       ?getTransformStrides@MWTensorBase@@SAXQEBW4DIMSLABEL@1@0QEBHHQEAH@Z 000000018000b2a0 f   MWTensorBase.obj
 0001:0000a380       ?getPermutationOrder@MWTensorBase@@SAXQEBW4DIMSLABEL@1@0HQEAH@Z 000000018000b380 f   MWTensorBase.obj
 0001:0000a410       ??0MWAvgPoolingLayerImpl@@QEAA@PEAVMWCNNLayer@@PEAVMWTargetNetworkImpl@@HHHHHHHHHPEBD@Z 000000018000b410 f   MWAvgPoolingLayerImpl.obj
 0001:0000a510       ??1MWAvgPoolingLayerImpl@@UEAA@XZ 000000018000b510 f   MWAvgPoolingLayerImpl.obj
 0001:0000a580       ?predict@MWAvgPoolingLayerImpl@@UEAAXXZ 000000018000b580 f   MWAvgPoolingLayerImpl.obj
 0001:0000a6f0       ?propagateSize@MWAvgPoolingLayerImpl@@UEAAXXZ 000000018000b6f0 f   MWAvgPoolingLayerImpl.obj
 0001:0000b170       ??$?0$$V@?$_Compressed_pair@U?$default_delete@Udesc@pooling_forward@dnnl@@@std@@PEAUdesc@pooling_forward@dnnl@@$00@std@@QEAA@U_Zero_then_variadic_args_t@1@@Z 000000018000c170 f i MWAvgPoolingLayerImpl.obj
 0001:0000b190       ??$?0$$V@?$_Compressed_pair@U?$default_delete@Uprimitive@dnnl@@@std@@PEAUprimitive@dnnl@@$00@std@@QEAA@U_Zero_then_variadic_args_t@1@@Z 000000018000c190 f i MWAvgPoolingLayerImpl.obj
 0001:0000b1b0       ??$?0$$V@?$_Compressed_pair@U?$default_delete@Uprimitive_desc@pooling_forward@dnnl@@@std@@PEAUprimitive_desc@pooling_forward@dnnl@@$00@std@@QEAA@U_Zero_then_variadic_args_t@1@@Z 000000018000c1b0 f i MWAvgPoolingLayerImpl.obj
 0001:0000b1d0       ??$?0$$V@?$_Compressed_pair@V?$allocator@Udnnl_exec_arg_t@@@std@@V?$_Vector_val@U?$_Simple_types@Udnnl_exec_arg_t@@@std@@@2@$00@std@@QEAA@U_Zero_then_variadic_args_t@1@@Z 000000018000c1d0 f i MWAvgPoolingLayerImpl.obj
 0001:0000b200       ??$?0AEAPEAUdesc@pooling_forward@dnnl@@@?$_Compressed_pair@U?$default_delete@Udesc@pooling_forward@dnnl@@@std@@PEAUdesc@pooling_forward@dnnl@@$00@std@@QEAA@U_Zero_then_variadic_args_t@1@AEAPEAUdesc@pooling_forward@dnnl@@@Z 000000018000c200 f i MWAvgPoolingLayerImpl.obj
 0001:0000b240       ??$?0AEAPEAUpooling_forward@dnnl@@@?$_Compressed_pair@U?$default_delete@Upooling_forward@dnnl@@@std@@PEAUpooling_forward@dnnl@@$00@std@@QEAA@U_Zero_then_variadic_args_t@1@AEAPEAUpooling_forward@dnnl@@@Z 000000018000c240 f i MWAvgPoolingLayerImpl.obj
 0001:0000b280       ??$?0AEAPEAUprimitive_desc@pooling_forward@dnnl@@@?$_Compressed_pair@U?$default_delete@Uprimitive_desc@pooling_forward@dnnl@@@std@@PEAUprimitive_desc@pooling_forward@dnnl@@$00@std@@QEAA@U_Zero_then_variadic_args_t@1@AEAPEAUprimitive_desc@pooling_forward@dnnl@@@Z 000000018000c280 f i MWAvgPoolingLayerImpl.obj
 0001:0000b2c0       ??$?0AEBU?$pair@$$CBHUmemory@dnnl@@@std@@@?$_List_node_emplace_op2@V?$allocator@U?$_List_node@U?$pair@$$CBHUmemory@dnnl@@@std@@PEAX@std@@@std@@@std@@QEAA@AEAV?$allocator@U?$_List_node@U?$pair@$$CBHUmemory@dnnl@@@std@@PEAX@std@@@1@AEBU?$pair@$$CBHUmemory@dnnl@@@1@@Z 000000018000c2c0 f i MWAvgPoolingLayerImpl.obj
 0001:0000b340       ??$?0AEBV?$allocator@U?$_List_node@U?$pair@$$CBHUmemory@dnnl@@@std@@PEAX@std@@@std@@$$V@?$_Compressed_pair@V?$allocator@V?$_List_unchecked_iterator@V?$_List_val@U?$_List_simple_types@U?$pair@$$CBHUmemory@dnnl@@@std@@@std@@@std@@@std@@@std@@V?$_Vector_val@U?$_Simple_types@V?$_List_unchecked_iterator@V?$_List_val@U?$_List_simple_types@U?$pair@$$CBHUmemory@dnnl@@@std@@@std@@@std@@@std@@@std@@@2@$00@std@@QEAA@U_One_then_variadic_args_t@1@AEBV?$allocator@U?$_List_node@U?$pair@$$CBHUmemory@dnnl@@@std@@PEAX@std@@@1@@Z 000000018000c340 f i MWAvgPoolingLayerImpl.obj
 0001:0000b380       ??$?0AEBV?$allocator@U?$_List_node@U?$pair@$$CBHUmemory@dnnl@@@std@@PEAX@std@@@std@@$0A@@?$_Hash_vec@V?$allocator@V?$_List_unchecked_iterator@V?$_List_val@U?$_List_simple_types@U?$pair@$$CBHUmemory@dnnl@@@std@@@std@@@std@@@std@@@std@@@std@@QEAA@AEBV?$allocator@U?$_List_node@U?$pair@$$CBHUmemory@dnnl@@@std@@PEAX@std@@@1@@Z 000000018000c380 f i MWAvgPoolingLayerImpl.obj
 0001:0000b3d0       ??$?0AEBV?$allocator@U?$pair@$$CBHUmemory@dnnl@@@std@@@std@@$$V@?$_Compressed_pair@V?$allocator@U?$_List_node@U?$pair@$$CBHUmemory@dnnl@@@std@@PEAX@std@@@std@@V?$_List_val@U?$_List_simple_types@U?$pair@$$CBHUmemory@dnnl@@@std@@@std@@@2@$00@std@@QEAA@U_One_then_variadic_args_t@1@AEBV?$allocator@U?$pair@$$CBHUmemory@dnnl@@@std@@@1@@Z 000000018000c3d0 f i MWAvgPoolingLayerImpl.obj
 0001:0000b410       ??$?0AEBV?$allocator@U?$pair@$$CBHUmemory@dnnl@@@std@@@std@@$$V@?$_Compressed_pair@V?$allocator@V?$_List_unchecked_iterator@V?$_List_val@U?$_List_simple_types@U?$pair@$$CBHUmemory@dnnl@@@std@@@std@@@std@@@std@@@std@@V?$_Vector_val@U?$_Simple_types@V?$_List_unchecked_iterator@V?$_List_val@U?$_List_simple_types@U?$pair@$$CBHUmemory@dnnl@@@std@@@std@@@std@@@std@@@std@@@2@$00@std@@QEAA@U_One_then_variadic_args_t@1@AEBV?$allocator@U?$pair@$$CBHUmemory@dnnl@@@std@@@1@@Z 000000018000c410 f i MWAvgPoolingLayerImpl.obj
 0001:0000b450       ??$?0AEBV?$allocator@U?$pair@$$CBHUmemory@dnnl@@@std@@@std@@$0A@@?$_Hash_vec@V?$allocator@V?$_List_unchecked_iterator@V?$_List_val@U?$_List_simple_types@U?$pair@$$CBHUmemory@dnnl@@@std@@@std@@@std@@@std@@@std@@@std@@QEAA@AEBV?$allocator@U?$pair@$$CBHUmemory@dnnl@@@std@@@1@@Z 000000018000c450 f i MWAvgPoolingLayerImpl.obj
 0001:0000b4a0       ??$?0AEBV?$allocator@W4query@dnnl@@@std@@$$V@?$_Compressed_pair@V?$allocator@W4query@dnnl@@@std@@V?$_Vector_val@U?$_Simple_types@W4query@dnnl@@@std@@@2@$00@std@@QEAA@U_One_then_variadic_args_t@1@AEBV?$allocator@W4query@dnnl@@@1@@Z 000000018000c4a0 f i MWAvgPoolingLayerImpl.obj
 0001:0000b4e0       ??$?0AEBV?$allocator@_J@std@@$$V@?$_Compressed_pair@V?$allocator@_J@std@@V?$_Vector_val@U?$_Simple_types@_J@std@@@2@$00@std@@QEAA@U_One_then_variadic_args_t@1@AEBV?$allocator@_J@1@@Z 000000018000c4e0 f i MWAvgPoolingLayerImpl.obj
 0001:0000b520       ??$?0HAEAUmemory@dnnl@@$0A@@?$pair@$$CBHUmemory@dnnl@@@std@@QEAA@$$QEAHAEAUmemory@dnnl@@@Z 000000018000c520 f i MWAvgPoolingLayerImpl.obj
 0001:0000b570       ??$?0M@?$_Compressed_pair@U?$equal_to@H@std@@M$00@std@@QEAA@U_Zero_then_variadic_args_t@1@$$QEAM@Z 000000018000c570 f i MWAvgPoolingLayerImpl.obj
 0001:0000b5b0       ??$?0P6A?AW4dnnl_status_t@@PEAUdnnl_memory@@@ZAEAPEAU1@@?$_Compressed_pair@P6A?AW4dnnl_status_t@@PEAUdnnl_memory@@@ZPEAU2@$0A@@std@@QEAA@U_One_then_variadic_args_t@1@$$QEAP6A?AW4dnnl_status_t@@PEAUdnnl_memory@@@ZAEAPEAU4@@Z 000000018000c5b0 f i MWAvgPoolingLayerImpl.obj
 0001:0000b600       ??$?0P6A?AW4dnnl_status_t@@PEAUdnnl_primitive@@@ZAEAPEAU1@@?$_Compressed_pair@P6A?AW4dnnl_status_t@@PEAUdnnl_primitive@@@ZPEAU2@$0A@@std@@QEAA@U_One_then_variadic_args_t@1@$$QEAP6A?AW4dnnl_status_t@@PEAUdnnl_primitive@@@ZAEAPEAU4@@Z 000000018000c600 f i MWAvgPoolingLayerImpl.obj
 0001:0000b650       ??$?0P6A?AW4dnnl_status_t@@PEAUdnnl_primitive_desc@@@ZAEAPEAU1@@?$_Compressed_pair@P6A?AW4dnnl_status_t@@PEAUdnnl_primitive_desc@@@ZPEAU2@$0A@@std@@QEAA@U_One_then_variadic_args_t@1@$$QEAP6A?AW4dnnl_status_t@@PEAUdnnl_primitive_desc@@@ZAEAPEAU4@@Z 000000018000c650 f i MWAvgPoolingLayerImpl.obj
 0001:0000b6a0       ??$?0P6A?AW4dnnl_status_t@@PEAUdnnl_primitive_desc_iterator@@@ZAEAPEAU1@@?$_Compressed_pair@P6A?AW4dnnl_status_t@@PEAUdnnl_primitive_desc_iterator@@@ZPEAU2@$0A@@std@@QEAA@U_One_then_variadic_args_t@1@$$QEAP6A?AW4dnnl_status_t@@PEAUdnnl_primitive_desc_iterator@@@ZAEAPEAU4@@Z 000000018000c6a0 f i MWAvgPoolingLayerImpl.obj
 0001:0000b6f0       ??$?0P6A?AW4dnnl_status_t@@PEAUdnnl_stream@@@ZAEAPEAU1@@?$_Compressed_pair@P6A?AW4dnnl_status_t@@PEAUdnnl_stream@@@ZPEAU2@$0A@@std@@QEAA@U_One_then_variadic_args_t@1@$$QEAP6A?AW4dnnl_status_t@@PEAUdnnl_stream@@@ZAEAPEAU4@@Z 000000018000c6f0 f i MWAvgPoolingLayerImpl.obj
 0001:0000b740       ??$?0U?$_List_node@U?$pair@$$CBHUmemory@dnnl@@@std@@PEAX@std@@@?$allocator@U?$pair@$$CBHUmemory@dnnl@@@std@@@std@@QEAA@AEBV?$allocator@U?$_List_node@U?$pair@$$CBHUmemory@dnnl@@@std@@PEAX@std@@@1@@Z 000000018000c740 f i MWAvgPoolingLayerImpl.obj
 0001:0000b750       ??$?0U?$_List_node@U?$pair@$$CBHUmemory@dnnl@@@std@@PEAX@std@@@?$allocator@V?$_List_unchecked_iterator@V?$_List_val@U?$_List_simple_types@U?$pair@$$CBHUmemory@dnnl@@@std@@@std@@@std@@@std@@@std@@QEAA@AEBV?$allocator@U?$_List_node@U?$pair@$$CBHUmemory@dnnl@@@std@@PEAX@std@@@1@@Z 000000018000c750 f i MWAvgPoolingLayerImpl.obj
 0001:0000b760       ??$?0U?$default_delete@Udesc@pooling_forward@dnnl@@@std@@$0A@@?$unique_ptr@Udesc@pooling_forward@dnnl@@U?$default_delete@Udesc@pooling_forward@dnnl@@@std@@@std@@QEAA@PEAUdesc@pooling_forward@dnnl@@@Z 000000018000c760 f i MWAvgPoolingLayerImpl.obj
 0001:0000b790       ??$?0U?$default_delete@Udesc@pooling_forward@dnnl@@@std@@$0A@@?$unique_ptr@Udesc@pooling_forward@dnnl@@U?$default_delete@Udesc@pooling_forward@dnnl@@@std@@@std@@QEAA@XZ 000000018000c790 f i MWAvgPoolingLayerImpl.obj
 0001:0000b7c0       ??$?0U?$default_delete@Upooling_forward@dnnl@@@std@@$0A@@?$unique_ptr@Upooling_forward@dnnl@@U?$default_delete@Upooling_forward@dnnl@@@std@@@std@@QEAA@PEAUpooling_forward@dnnl@@@Z 000000018000c7c0 f i MWAvgPoolingLayerImpl.obj
 0001:0000b7f0       ??$?0U?$default_delete@Uprimitive@dnnl@@@std@@$0A@@?$unique_ptr@Uprimitive@dnnl@@U?$default_delete@Uprimitive@dnnl@@@std@@@std@@QEAA@XZ 000000018000c7f0 f i MWAvgPoolingLayerImpl.obj
 0001:0000b820       ??$?0U?$default_delete@Uprimitive_desc@pooling_forward@dnnl@@@std@@$0A@@?$unique_ptr@Uprimitive_desc@pooling_forward@dnnl@@U?$default_delete@Uprimitive_desc@pooling_forward@dnnl@@@std@@@std@@QEAA@PEAUprimitive_desc@pooling_forward@dnnl@@@Z 000000018000c820 f i MWAvgPoolingLayerImpl.obj
 0001:0000b850       ??$?0U?$default_delete@Uprimitive_desc@pooling_forward@dnnl@@@std@@$0A@@?$unique_ptr@Uprimitive_desc@pooling_forward@dnnl@@U?$default_delete@Uprimitive_desc@pooling_forward@dnnl@@@std@@@std@@QEAA@XZ 000000018000c850 f i MWAvgPoolingLayerImpl.obj
 0001:0000b880       ??$?0U?$pair@$$CBHUmemory@dnnl@@@std@@@?$allocator@U?$_List_node@U?$pair@$$CBHUmemory@dnnl@@@std@@PEAX@std@@@std@@QEAA@AEBV?$allocator@U?$pair@$$CBHUmemory@dnnl@@@std@@@1@@Z 000000018000c880 f i MWAvgPoolingLayerImpl.obj
 0001:0000b890       ??$?0U?$pair@$$CBHUmemory@dnnl@@@std@@@?$allocator@V?$_List_unchecked_iterator@V?$_List_val@U?$_List_simple_types@U?$pair@$$CBHUmemory@dnnl@@@std@@@std@@@std@@@std@@@std@@QEAA@AEBV?$allocator@U?$pair@$$CBHUmemory@dnnl@@@std@@@1@@Z 000000018000c890 f i MWAvgPoolingLayerImpl.obj
 0001:0000b8a0       ??$?0U_Zero_then_variadic_args_t@std@@M@?$_Compressed_pair@U?$hash@H@std@@V?$_Compressed_pair@U?$equal_to@H@std@@M$00@2@$00@std@@QEAA@U_Zero_then_variadic_args_t@1@$$QEAU21@$$QEAM@Z 000000018000c8a0 f i MWAvgPoolingLayerImpl.obj
 0001:0000b8f0       ??$?0Udesc@memory@dnnl@@AEAUengine@2@@?$_Ref_count_obj2@Umemory@dnnl@@@std@@QEAA@$$QEAUdesc@memory@dnnl@@AEAUengine@4@@Z 000000018000c8f0 f i MWAvgPoolingLayerImpl.obj
 0001:0000b970       ??$?0Udnnl_memory@@P6A?AW4dnnl_status_t@@PEAU0@@Z$0A@@?$shared_ptr@Udnnl_memory@@@std@@QEAA@PEAUdnnl_memory@@P6A?AW4dnnl_status_t@@0@Z@Z 000000018000c970 f i MWAvgPoolingLayerImpl.obj
 0001:0000b9c0       ??$?0Udnnl_primitive@@P6A?AW4dnnl_status_t@@PEAU0@@Z$0A@@?$shared_ptr@Udnnl_primitive@@@std@@QEAA@PEAUdnnl_primitive@@P6A?AW4dnnl_status_t@@0@Z@Z 000000018000c9c0 f i MWAvgPoolingLayerImpl.obj
 0001:0000ba10       ??$?0Udnnl_primitive_desc@@P6A?AW4dnnl_status_t@@PEAU0@@Z$0A@@?$shared_ptr@Udnnl_primitive_desc@@@std@@QEAA@PEAUdnnl_primitive_desc@@P6A?AW4dnnl_status_t@@0@Z@Z 000000018000ca10 f i MWAvgPoolingLayerImpl.obj
 0001:0000ba60       ??$?0Udnnl_primitive_desc_iterator@@P6A?AW4dnnl_status_t@@PEAU0@@Z$0A@@?$shared_ptr@Udnnl_primitive_desc_iterator@@@std@@QEAA@PEAUdnnl_primitive_desc_iterator@@P6A?AW4dnnl_status_t@@0@Z@Z 000000018000ca60 f i MWAvgPoolingLayerImpl.obj
 0001:0000bab0       ??$?0Udnnl_stream@@P6A?AW4dnnl_status_t@@PEAU0@@Z$0A@@?$shared_ptr@Udnnl_stream@@@std@@QEAA@PEAUdnnl_stream@@P6A?AW4dnnl_status_t@@0@Z@Z 000000018000cab0 f i MWAvgPoolingLayerImpl.obj
 0001:0000bb00       ??$?0Upooling_forward@dnnl@@$0A@@?$default_delete@Uprimitive@dnnl@@@std@@QEAA@AEBU?$default_delete@Upooling_forward@dnnl@@@1@@Z 000000018000cb00 f i MWAvgPoolingLayerImpl.obj
 0001:0000bb10       ??$?0V?$_List_iterator@V?$_List_val@U?$_List_simple_types@U?$pair@$$CBHUmemory@dnnl@@@std@@@std@@@std@@@std@@_N$0A@@?$pair@V?$_List_iterator@V?$_List_val@U?$_List_simple_types@U?$pair@$$CBHUmemory@dnnl@@@std@@@std@@@std@@@std@@_N@std@@QEAA@$$QEAV?$_List_iterator@V?$_List_val@U?$_List_simple_types@U?$pair@$$CBHUmemory@dnnl@@@std@@@std@@@std@@@1@$$QEA_N@Z 000000018000cb10 f i MWAvgPoolingLayerImpl.obj
 0001:0000bb60       ??$?0V?$allocator@U?$_List_node@U?$pair@$$CBHUmemory@dnnl@@@std@@PEAX@std@@@std@@$$V@?$_Compressed_pair@V?$allocator@U?$_List_node@U?$pair@$$CBHUmemory@dnnl@@@std@@PEAX@std@@@std@@V?$_List_val@U?$_List_simple_types@U?$pair@$$CBHUmemory@dnnl@@@std@@@std@@@2@$00@std@@QEAA@U_One_then_variadic_args_t@1@$$QEAV?$allocator@U?$_List_node@U?$pair@$$CBHUmemory@dnnl@@@std@@PEAX@std@@@1@@Z 000000018000cb60 f i MWAvgPoolingLayerImpl.obj
 0001:0000bba0       ??$?0V?$allocator@U?$_List_node@U?$pair@$$CBHUmemory@dnnl@@@std@@PEAX@std@@@std@@@?$_Hash@V?$_Umap_traits@HUmemory@dnnl@@V?$_Uhash_compare@HU?$hash@H@std@@U?$equal_to@H@2@@std@@V?$allocator@U?$pair@$$CBHUmemory@dnnl@@@std@@@4@$0A@@std@@@std@@IEAA@AEBV01@AEBV?$allocator@U?$_List_node@U?$pair@$$CBHUmemory@dnnl@@@std@@PEAX@std@@@1@@Z 000000018000cba0 f i MWAvgPoolingLayerImpl.obj
 0001:0000bcb0       ??$?0V?$allocator@U?$_List_node@U?$pair@$$CBHUmemory@dnnl@@@std@@PEAX@std@@@std@@@?$list@U?$pair@$$CBHUmemory@dnnl@@@std@@V?$allocator@U?$pair@$$CBHUmemory@dnnl@@@std@@@2@@std@@AEAA@U_Move_allocator_tag@1@AEAV?$allocator@U?$_List_node@U?$pair@$$CBHUmemory@dnnl@@@std@@PEAX@std@@@1@@Z 000000018000ccb0 f i MWAvgPoolingLayerImpl.obj
 0001:0000bd00       ??$?0V?$allocator@V?$_List_unchecked_iterator@V?$_List_val@U?$_List_simple_types@U?$pair@$$CBHUmemory@dnnl@@@std@@@std@@@std@@@std@@@std@@$$V@?$_Compressed_pair@V?$allocator@V?$_List_unchecked_iterator@V?$_List_val@U?$_List_simple_types@U?$pair@$$CBHUmemory@dnnl@@@std@@@std@@@std@@@std@@@std@@V?$_Vector_val@U?$_Simple_types@V?$_List_unchecked_iterator@V?$_List_val@U?$_List_simple_types@U?$pair@$$CBHUmemory@dnnl@@@std@@@std@@@std@@@std@@@std@@@2@$00@std@@QEAA@U_One_then_variadic_args_t@1@$$QEAV?$allocator@V?$_List_unchecked_iterator@V?$_List_val@U?$_List_simple_types@U?$pair@$$CBHUmemory@dnnl@@@std@@@std@@@std@@@std@@@1@@Z 000000018000cd00 f i MWAvgPoolingLayerImpl.obj
 0001:0000bd40       ??$?0V?$allocator@V?$_List_unchecked_iterator@V?$_List_val@U?$_List_simple_types@U?$pair@$$CBHUmemory@dnnl@@@std@@@std@@@std@@@std@@@std@@$0A@@?$_Hash_vec@V?$allocator@V?$_List_unchecked_iterator@V?$_List_val@U?$_List_simple_types@U?$pair@$$CBHUmemory@dnnl@@@std@@@std@@@std@@@std@@@std@@@std@@QEAA@$$QEAV?$allocator@V?$_List_unchecked_iterator@V?$_List_val@U?$_List_simple_types@U?$pair@$$CBHUmemory@dnnl@@@std@@@std@@@std@@@std@@@1@@Z 000000018000cd40 f i MWAvgPoolingLayerImpl.obj
 0001:0000bd90       ??$?4U?$default_delete@Udesc@pooling_forward@dnnl@@@std@@$0A@@?$unique_ptr@Udesc@pooling_forward@dnnl@@U?$default_delete@Udesc@pooling_forward@dnnl@@@std@@@std@@QEAAAEAV01@$$QEAV01@@Z 000000018000cd90 f i MWAvgPoolingLayerImpl.obj
 0001:0000be00       ??$?4U?$default_delete@Uprimitive_desc@pooling_forward@dnnl@@@std@@$0A@@?$unique_ptr@Uprimitive_desc@pooling_forward@dnnl@@U?$default_delete@Uprimitive_desc@pooling_forward@dnnl@@@std@@@std@@QEAAAEAV01@$$QEAV01@@Z 000000018000ce00 f i MWAvgPoolingLayerImpl.obj
 0001:0000be70       ??$?4Upooling_forward@dnnl@@U?$default_delete@Upooling_forward@dnnl@@@std@@$0A@@?$unique_ptr@Uprimitive@dnnl@@U?$default_delete@Uprimitive@dnnl@@@std@@@std@@QEAAAEAV01@$$QEAV?$unique_ptr@Upooling_forward@dnnl@@U?$default_delete@Upooling_forward@dnnl@@@std@@@1@@Z 000000018000ce70 f i MWAvgPoolingLayerImpl.obj
 0001:0000bed0       ??$?CUmemory@dnnl@@$0A@@?$shared_ptr@Umemory@dnnl@@@std@@QEBAPEAUmemory@dnnl@@XZ 000000018000ced0 f i MWAvgPoolingLayerImpl.obj
 0001:0000bef0       ??$?DUmemory@dnnl@@$0A@@?$shared_ptr@Umemory@dnnl@@@std@@QEBAAEAUmemory@dnnl@@XZ 000000018000cef0 f i MWAvgPoolingLayerImpl.obj
 0001:0000bf10       ??$?RH@?$_Uhash_compare@HU?$hash@H@std@@U?$equal_to@H@2@@std@@QEBA_KAEBH@Z 000000018000cf10 f i MWAvgPoolingLayerImpl.obj
 0001:0000bf40       ??$?RHH@?$_Uhash_compare@HU?$hash@H@std@@U?$equal_to@H@2@@std@@QEBA_NAEBH0@Z 000000018000cf40 f i MWAvgPoolingLayerImpl.obj
 0001:0000bfa0       ??$_Adl_verify_range@PEAV?$_List_unchecked_iterator@V?$_List_val@U?$_List_simple_types@U?$pair@$$CBHUmemory@dnnl@@@std@@@std@@@std@@@std@@PEAV12@@std@@YAXAEBQEAV?$_List_unchecked_iterator@V?$_List_val@U?$_List_simple_types@U?$pair@$$CBHUmemory@dnnl@@@std@@@std@@@std@@@0@0@Z 000000018000cfa0 f i MWAvgPoolingLayerImpl.obj
 0001:0000bfb0       ??$_Adl_verify_range@PEBU?$pair@$$CBHUmemory@dnnl@@@std@@PEBU12@@std@@YAXAEBQEBU?$pair@$$CBHUmemory@dnnl@@@0@0@Z 000000018000cfb0 f i MWAvgPoolingLayerImpl.obj
 0001:0000bfc0       ??$_Adl_verify_range@V?$_List_unchecked_const_iterator@V?$_List_val@U?$_List_simple_types@U?$pair@$$CBHUmemory@dnnl@@@std@@@std@@@std@@U_Iterator_base0@2@@std@@V12@@std@@YAXAEBV?$_List_unchecked_const_iterator@V?$_List_val@U?$_List_simple_types@U?$pair@$$CBHUmemory@dnnl@@@std@@@std@@@std@@U_Iterator_base0@2@@0@0@Z 000000018000cfc0 f i MWAvgPoolingLayerImpl.obj
 0001:0000bfd0       ??$_Adl_verify_range@V?$_Vector_const_iterator@V?$_Vector_val@U?$_Simple_types@W4query@dnnl@@@std@@@std@@@std@@V12@@std@@YAXAEBV?$_Vector_const_iterator@V?$_Vector_val@U?$_Simple_types@W4query@dnnl@@@std@@@std@@@0@0@Z 000000018000cfd0 f i MWAvgPoolingLayerImpl.obj
 0001:0000bfe0       ??$_Construct_in_place@PEAU?$_List_node@U?$pair@$$CBHUmemory@dnnl@@@std@@PEAX@std@@AEAPEAU12@@std@@YAXAEAPEAU?$_List_node@U?$pair@$$CBHUmemory@dnnl@@@std@@PEAX@0@0@Z 000000018000cfe0 f i MWAvgPoolingLayerImpl.obj
 0001:0000c030       ??$_Construct_in_place@PEAU?$_List_node@U?$pair@$$CBHUmemory@dnnl@@@std@@PEAX@std@@AEBQEAU12@@std@@YAXAEAPEAU?$_List_node@U?$pair@$$CBHUmemory@dnnl@@@std@@PEAX@0@AEBQEAU10@@Z 000000018000d030 f i MWAvgPoolingLayerImpl.obj
 0001:0000c080       ??$_Construct_in_place@Umemory@dnnl@@Udesc@12@AEAUengine@2@@std@@YAXAEAUmemory@dnnl@@$$QEAUdesc@12@AEAUengine@2@@Z 000000018000d080 f i MWAvgPoolingLayerImpl.obj
 0001:0000c0f0       ??$_Construct_in_place@V?$_List_unchecked_iterator@V?$_List_val@U?$_List_simple_types@U?$pair@$$CBHUmemory@dnnl@@@std@@@std@@@std@@@std@@AEBV12@@std@@YAXAEAV?$_List_unchecked_iterator@V?$_List_val@U?$_List_simple_types@U?$pair@$$CBHUmemory@dnnl@@@std@@@std@@@std@@@0@AEBV10@@Z 000000018000d0f0 f i MWAvgPoolingLayerImpl.obj
 0001:0000c140       ??$_Copy_construct_from@Udnnl_memory@@@?$_Ptr_base@Udnnl_memory@@@std@@IEAAXAEBV?$shared_ptr@Udnnl_memory@@@1@@Z 000000018000d140 f i MWAvgPoolingLayerImpl.obj
 0001:0000c180       ??$_Copy_construct_from@Udnnl_primitive@@@?$_Ptr_base@Udnnl_primitive@@@std@@IEAAXAEBV?$shared_ptr@Udnnl_primitive@@@1@@Z 000000018000d180 f i MWAvgPoolingLayerImpl.obj
 0001:0000c1c0       ??$_Copy_memmove@PEAUdnnl_exec_arg_t@@PEAU1@@std@@YAPEAUdnnl_exec_arg_t@@PEAU1@00@Z 000000018000d1c0 f i MWAvgPoolingLayerImpl.obj
 0001:0000c260       ??$_Copy_memmove@PEBW4query@dnnl@@PEAW412@@std@@YAPEAW4query@dnnl@@PEBW412@0PEAW412@@Z 000000018000d260 f i MWAvgPoolingLayerImpl.obj
 0001:0000c300       ??$_Copy_memmove@PEB_JPEA_J@std@@YAPEA_JPEB_J0PEA_J@Z 000000018000d300 f i MWAvgPoolingLayerImpl.obj
 0001:0000c3a0       ??$_Destroy_in_place@PEAU?$_List_node@U?$pair@$$CBHUmemory@dnnl@@@std@@PEAX@std@@@std@@YAXAEAPEAU?$_List_node@U?$pair@$$CBHUmemory@dnnl@@@std@@PEAX@0@@Z 000000018000d3a0 f i MWAvgPoolingLayerImpl.obj
 0001:0000c3b0       ??$_Destroy_in_place@PEAU?$_Tree_node@U?$pair@$$CBHV?$shared_ptr@Umemory@dnnl@@@std@@@std@@PEAX@std@@@std@@YAXAEAPEAU?$_Tree_node@U?$pair@$$CBHV?$shared_ptr@Umemory@dnnl@@@std@@@std@@PEAX@0@@Z 000000018000d3b0 f i MWAvgPoolingLayerImpl.obj
 0001:0000c3c0       ??$_Destroy_in_place@PEAU?$_Tree_node@U?$pair@$$CBHV?$shared_ptr@Ureorder@dnnl@@@std@@@std@@PEAX@std@@@std@@YAXAEAPEAU?$_Tree_node@U?$pair@$$CBHV?$shared_ptr@Ureorder@dnnl@@@std@@@std@@PEAX@0@@Z 000000018000d3c0 f i MWAvgPoolingLayerImpl.obj
 0001:0000c3d0       ??$_Destroy_in_place@Umemory@dnnl@@@std@@YAXAEAUmemory@dnnl@@@Z 000000018000d3d0 f i MWAvgPoolingLayerImpl.obj
 0001:0000c3f0       ??$_Destroy_range@PEAV?$_List_unchecked_iterator@V?$_List_val@U?$_List_simple_types@U?$pair@$$CBHUmemory@dnnl@@@std@@@std@@@std@@@std@@PEAV12@@std@@YAXPEAV?$_List_unchecked_iterator@V?$_List_val@U?$_List_simple_types@U?$pair@$$CBHUmemory@dnnl@@@std@@@std@@@std@@@0@QEAV10@@Z 000000018000d3f0 f i MWAvgPoolingLayerImpl.obj
 0001:0000c400       ??$_Destroy_range@V?$allocator@Udnnl_exec_arg_t@@@std@@@std@@YAXPEAUdnnl_exec_arg_t@@QEAU1@AEAV?$allocator@Udnnl_exec_arg_t@@@0@@Z 000000018000d400 f i MWAvgPoolingLayerImpl.obj
 0001:0000c410       ??$_Destroy_range@V?$allocator@Uprimitive@dnnl@@@std@@@std@@YAXPEAUprimitive@dnnl@@QEAU12@AEAV?$allocator@Uprimitive@dnnl@@@0@@Z 000000018000d410 f i MWAvgPoolingLayerImpl.obj
 0001:0000c460       ??$_Destroy_range@V?$allocator@V?$unordered_map@HUmemory@dnnl@@U?$hash@H@std@@U?$equal_to@H@4@V?$allocator@U?$pair@$$CBHUmemory@dnnl@@@std@@@4@@std@@@std@@@std@@YAXPEAV?$unordered_map@HUmemory@dnnl@@U?$hash@H@std@@U?$equal_to@H@4@V?$allocator@U?$pair@$$CBHUmemory@dnnl@@@std@@@4@@0@QEAV10@AEAV?$allocator@V?$unordered_map@HUmemory@dnnl@@U?$hash@H@std@@U?$equal_to@H@4@V?$allocator@U?$pair@$$CBHUmemory@dnnl@@@std@@@4@@std@@@0@@Z 000000018000d460 f i MWAvgPoolingLayerImpl.obj
 0001:0000c4b0       ??$_Destroy_range@V?$allocator@W4query@dnnl@@@std@@@std@@YAXPEAW4query@dnnl@@QEAW412@AEAV?$allocator@W4query@dnnl@@@0@@Z 000000018000d4b0 f i MWAvgPoolingLayerImpl.obj
 0001:0000c4c0       ??$_Destroy_range@V?$allocator@_J@std@@@std@@YAXPEA_JQEA_JAEAV?$allocator@_J@0@@Z 000000018000d4c0 f i MWAvgPoolingLayerImpl.obj
 0001:0000c4d0       ??$_Emplace_back@AEAV?$unordered_map@HUmemory@dnnl@@U?$hash@H@std@@U?$equal_to@H@4@V?$allocator@U?$pair@$$CBHUmemory@dnnl@@@std@@@4@@std@@@?$_Uninitialized_backout_al@V?$allocator@V?$unordered_map@HUmemory@dnnl@@U?$hash@H@std@@U?$equal_to@H@4@V?$allocator@U?$pair@$$CBHUmemory@dnnl@@@std@@@4@@std@@@std@@@std@@QEAAXAEAV?$unordered_map@HUmemory@dnnl@@U?$hash@H@std@@U?$equal_to@H@4@V?$allocator@U?$pair@$$CBHUmemory@dnnl@@@std@@@4@@1@@Z 000000018000d4d0 f i MWAvgPoolingLayerImpl.obj
 0001:0000c530       ??$_Emplace_back@AEBV?$_List_unchecked_iterator@V?$_List_val@U?$_List_simple_types@U?$pair@$$CBHUmemory@dnnl@@@std@@@std@@@std@@@std@@@?$_Uninitialized_backout@PEAV?$_List_unchecked_iterator@V?$_List_val@U?$_List_simple_types@U?$pair@$$CBHUmemory@dnnl@@@std@@@std@@@std@@@std@@@std@@QEAAXAEBV?$_List_unchecked_iterator@V?$_List_val@U?$_List_simple_types@U?$pair@$$CBHUmemory@dnnl@@@std@@@std@@@std@@@1@@Z 000000018000d530 f i MWAvgPoolingLayerImpl.obj
 0001:0000c580       ??$_Emplace_back@AEBW4query@dnnl@@@?$_Uninitialized_backout_al@V?$allocator@W4query@dnnl@@@std@@@std@@QEAAXAEBW4query@dnnl@@@Z 000000018000d580 f i MWAvgPoolingLayerImpl.obj
 0001:0000c5e0       ??$_Emplace_back@AEB_J@?$_Uninitialized_backout_al@V?$allocator@_J@std@@@std@@QEAAXAEB_J@Z 000000018000d5e0 f i MWAvgPoolingLayerImpl.obj
 0001:0000c640       ??$_Emplace_back@Udnnl_exec_arg_t@@@?$_Uninitialized_backout_al@V?$allocator@Udnnl_exec_arg_t@@@std@@@std@@QEAAX$$QEAUdnnl_exec_arg_t@@@Z 000000018000d640 f i MWAvgPoolingLayerImpl.obj
 0001:0000c6a0       ??$_Emplace_back@Uprimitive@dnnl@@@?$_Uninitialized_backout_al@V?$allocator@Uprimitive@dnnl@@@std@@@std@@QEAAX$$QEAUprimitive@dnnl@@@Z 000000018000d6a0 f i MWAvgPoolingLayerImpl.obj
 0001:0000c700       ??$_Emplace_back@V?$unordered_map@HUmemory@dnnl@@U?$hash@H@std@@U?$equal_to@H@4@V?$allocator@U?$pair@$$CBHUmemory@dnnl@@@std@@@4@@std@@@?$_Uninitialized_backout_al@V?$allocator@V?$unordered_map@HUmemory@dnnl@@U?$hash@H@std@@U?$equal_to@H@4@V?$allocator@U?$pair@$$CBHUmemory@dnnl@@@std@@@4@@std@@@std@@@std@@QEAAX$$QEAV?$unordered_map@HUmemory@dnnl@@U?$hash@H@std@@U?$equal_to@H@4@V?$allocator@U?$pair@$$CBHUmemory@dnnl@@@std@@@4@@1@@Z 000000018000d700 f i MWAvgPoolingLayerImpl.obj
 0001:0000c760       ??$_Emplace_back_with_unused_capacity@AEBUprimitive@dnnl@@@?$vector@Uprimitive@dnnl@@V?$allocator@Uprimitive@dnnl@@@std@@@std@@AEAA?A_TAEBUprimitive@dnnl@@@Z 000000018000d760 f i MWAvgPoolingLayerImpl.obj
 0001:0000c810       ??$_Emplace_back_with_unused_capacity@Udnnl_exec_arg_t@@@?$vector@Udnnl_exec_arg_t@@V?$allocator@Udnnl_exec_arg_t@@@std@@@std@@AEAA?A_T$$QEAUdnnl_exec_arg_t@@@Z 000000018000d810 f i MWAvgPoolingLayerImpl.obj
 0001:0000c8c0       ??$_Emplace_back_with_unused_capacity@V?$unordered_map@HUmemory@dnnl@@U?$hash@H@std@@U?$equal_to@H@4@V?$allocator@U?$pair@$$CBHUmemory@dnnl@@@std@@@4@@std@@@?$vector@V?$unordered_map@HUmemory@dnnl@@U?$hash@H@std@@U?$equal_to@H@4@V?$allocator@U?$pair@$$CBHUmemory@dnnl@@@std@@@4@@std@@V?$allocator@V?$unordered_map@HUmemory@dnnl@@U?$hash@H@std@@U?$equal_to@H@4@V?$allocator@U?$pair@$$CBHUmemory@dnnl@@@std@@@4@@std@@@2@@std@@AEAA?A_T$$QEAV?$unordered_map@HUmemory@dnnl@@U?$hash@H@std@@U?$equal_to@H@4@V?$allocator@U?$pair@$$CBHUmemory@dnnl@@@std@@@4@@1@@Z 000000018000d8c0 f i MWAvgPoolingLayerImpl.obj
 0001:0000c970       ??$_Emplace_reallocate@AEBUprimitive@dnnl@@@?$vector@Uprimitive@dnnl@@V?$allocator@Uprimitive@dnnl@@@std@@@std@@QEAAPEAUprimitive@dnnl@@QEAU23@AEBU23@@Z 000000018000d970 f i MWAvgPoolingLayerImpl.obj
 0001:0000cb90       ??$_Emplace_reallocate@Udnnl_exec_arg_t@@@?$vector@Udnnl_exec_arg_t@@V?$allocator@Udnnl_exec_arg_t@@@std@@@std@@QEAAPEAUdnnl_exec_arg_t@@QEAU2@$$QEAU2@@Z 000000018000db90 f i MWAvgPoolingLayerImpl.obj
 0001:0000cdb0       ??$_Emplace_reallocate@V?$unordered_map@HUmemory@dnnl@@U?$hash@H@std@@U?$equal_to@H@4@V?$allocator@U?$pair@$$CBHUmemory@dnnl@@@std@@@4@@std@@@?$vector@V?$unordered_map@HUmemory@dnnl@@U?$hash@H@std@@U?$equal_to@H@4@V?$allocator@U?$pair@$$CBHUmemory@dnnl@@@std@@@4@@std@@V?$allocator@V?$unordered_map@HUmemory@dnnl@@U?$hash@H@std@@U?$equal_to@H@4@V?$allocator@U?$pair@$$CBHUmemory@dnnl@@@std@@@4@@std@@@2@@std@@QEAAPEAV?$unordered_map@HUmemory@dnnl@@U?$hash@H@std@@U?$equal_to@H@4@V?$allocator@U?$pair@$$CBHUmemory@dnnl@@@std@@@4@@1@QEAV21@$$QEAV21@@Z 000000018000ddb0 f i MWAvgPoolingLayerImpl.obj
 0001:0000cfd0       ??$_Erase_head@V?$allocator@U?$_Tree_node@U?$pair@$$CBHV?$shared_ptr@Umemory@dnnl@@@std@@@std@@PEAX@std@@@std@@@?$_Tree_val@U?$_Tree_simple_types@U?$pair@$$CBHV?$shared_ptr@Umemory@dnnl@@@std@@@std@@@std@@@std@@QEAAXAEAV?$allocator@U?$_Tree_node@U?$pair@$$CBHV?$shared_ptr@Umemory@dnnl@@@std@@@std@@PEAX@std@@@1@@Z 000000018000dfd0 f i MWAvgPoolingLayerImpl.obj
 0001:0000d020       ??$_Erase_head@V?$allocator@U?$_Tree_node@U?$pair@$$CBHV?$shared_ptr@Ureorder@dnnl@@@std@@@std@@PEAX@std@@@std@@@?$_Tree_val@U?$_Tree_simple_types@U?$pair@$$CBHV?$shared_ptr@Ureorder@dnnl@@@std@@@std@@@std@@@std@@QEAAXAEAV?$allocator@U?$_Tree_node@U?$pair@$$CBHV?$shared_ptr@Ureorder@dnnl@@@std@@@std@@PEAX@std@@@1@@Z 000000018000e020 f i MWAvgPoolingLayerImpl.obj
 0001:0000d070       ??$_Erase_tree@V?$allocator@U?$_Tree_node@U?$pair@$$CBHV?$shared_ptr@Umemory@dnnl@@@std@@@std@@PEAX@std@@@std@@@?$_Tree_val@U?$_Tree_simple_types@U?$pair@$$CBHV?$shared_ptr@Umemory@dnnl@@@std@@@std@@@std@@@std@@QEAAXAEAV?$allocator@U?$_Tree_node@U?$pair@$$CBHV?$shared_ptr@Umemory@dnnl@@@std@@@std@@PEAX@std@@@1@PEAU?$_Tree_node@U?$pair@$$CBHV?$shared_ptr@Umemory@dnnl@@@std@@@std@@PEAX@1@@Z 000000018000e070 f i MWAvgPoolingLayerImpl.obj
 0001:0000d0d0       ??$_Erase_tree@V?$allocator@U?$_Tree_node@U?$pair@$$CBHV?$shared_ptr@Ureorder@dnnl@@@std@@@std@@PEAX@std@@@std@@@?$_Tree_val@U?$_Tree_simple_types@U?$pair@$$CBHV?$shared_ptr@Ureorder@dnnl@@@std@@@std@@@std@@@std@@QEAAXAEAV?$allocator@U?$_Tree_node@U?$pair@$$CBHV?$shared_ptr@Ureorder@dnnl@@@std@@@std@@PEAX@std@@@1@PEAU?$_Tree_node@U?$pair@$$CBHV?$shared_ptr@Ureorder@dnnl@@@std@@@std@@PEAX@1@@Z 000000018000e0d0 f i MWAvgPoolingLayerImpl.obj
 0001:0000d130       ??$_Find_last@H@?$_Hash@V?$_Umap_traits@HUmemory@dnnl@@V?$_Uhash_compare@HU?$hash@H@std@@U?$equal_to@H@2@@std@@V?$allocator@U?$pair@$$CBHUmemory@dnnl@@@std@@@4@$0A@@std@@@std@@IEBA?AU?$_Hash_find_last_result@PEAU?$_List_node@U?$pair@$$CBHUmemory@dnnl@@@std@@PEAX@std@@@1@AEBH_K@Z 000000018000e130 f i MWAvgPoolingLayerImpl.obj
 0001:0000d270       ??$_Fnv1a_append_value@H@std@@YA_K_KAEBH@Z 000000018000e270 f i MWAvgPoolingLayerImpl.obj
 0001:0000d2a0       ??$_Free_non_head@V?$allocator@U?$_List_node@U?$pair@$$CBHUmemory@dnnl@@@std@@PEAX@std@@@std@@@?$_List_node@U?$pair@$$CBHUmemory@dnnl@@@std@@PEAX@std@@SAXAEAV?$allocator@U?$_List_node@U?$pair@$$CBHUmemory@dnnl@@@std@@PEAX@std@@@1@PEAU01@@Z 000000018000e2a0 f i MWAvgPoolingLayerImpl.obj
 0001:0000d310       ??$_Freenode0@V?$allocator@U?$_List_node@U?$pair@$$CBHUmemory@dnnl@@@std@@PEAX@std@@@std@@@?$_List_node@U?$pair@$$CBHUmemory@dnnl@@@std@@PEAX@std@@SAXAEAV?$allocator@U?$_List_node@U?$pair@$$CBHUmemory@dnnl@@@std@@PEAX@std@@@1@PEAU01@@Z 000000018000e310 f i MWAvgPoolingLayerImpl.obj
 0001:0000d360       ??$_Freenode0@V?$allocator@U?$_Tree_node@U?$pair@$$CBHV?$shared_ptr@Umemory@dnnl@@@std@@@std@@PEAX@std@@@std@@@?$_Tree_node@U?$pair@$$CBHV?$shared_ptr@Umemory@dnnl@@@std@@@std@@PEAX@std@@SAXAEAV?$allocator@U?$_Tree_node@U?$pair@$$CBHV?$shared_ptr@Umemory@dnnl@@@std@@@std@@PEAX@std@@@1@PEAU01@@Z 000000018000e360 f i MWAvgPoolingLayerImpl.obj
 0001:0000d3c0       ??$_Freenode0@V?$allocator@U?$_Tree_node@U?$pair@$$CBHV?$shared_ptr@Ureorder@dnnl@@@std@@@std@@PEAX@std@@@std@@@?$_Tree_node@U?$pair@$$CBHV?$shared_ptr@Ureorder@dnnl@@@std@@@std@@PEAX@std@@SAXAEAV?$allocator@U?$_Tree_node@U?$pair@$$CBHV?$shared_ptr@Ureorder@dnnl@@@std@@@std@@PEAX@std@@@1@PEAU01@@Z 000000018000e3c0 f i MWAvgPoolingLayerImpl.obj
 0001:0000d420       ??$_Freenode@V?$allocator@U?$_List_node@U?$pair@$$CBHUmemory@dnnl@@@std@@PEAX@std@@@std@@@?$_List_node@U?$pair@$$CBHUmemory@dnnl@@@std@@PEAX@std@@SAXAEAV?$allocator@U?$_List_node@U?$pair@$$CBHUmemory@dnnl@@@std@@PEAX@std@@@1@PEAU01@@Z 000000018000e420 f i MWAvgPoolingLayerImpl.obj
 0001:0000d470       ??$_Freenode@V?$allocator@U?$_Tree_node@U?$pair@$$CBHV?$shared_ptr@Umemory@dnnl@@@std@@@std@@PEAX@std@@@std@@@?$_Tree_node@U?$pair@$$CBHV?$shared_ptr@Umemory@dnnl@@@std@@@std@@PEAX@std@@SAXAEAV?$allocator@U?$_Tree_node@U?$pair@$$CBHV?$shared_ptr@Umemory@dnnl@@@std@@@std@@PEAX@std@@@1@PEAU01@@Z 000000018000e470 f i MWAvgPoolingLayerImpl.obj
 0001:0000d4c0       ??$_Freenode@V?$allocator@U?$_Tree_node@U?$pair@$$CBHV?$shared_ptr@Ureorder@dnnl@@@std@@@std@@PEAX@std@@@std@@@?$_Tree_node@U?$pair@$$CBHV?$shared_ptr@Ureorder@dnnl@@@std@@@std@@PEAX@std@@SAXAEAV?$allocator@U?$_Tree_node@U?$pair@$$CBHV?$shared_ptr@Ureorder@dnnl@@@std@@@std@@PEAX@std@@@1@PEAU01@@Z 000000018000e4c0 f i MWAvgPoolingLayerImpl.obj
 0001:0000d510       ??$_Get_size_of_n@$07@std@@YA_K_K@Z 000000018000e510 f i MWAvgPoolingLayerImpl.obj
 0001:0000d560       ??$_Get_size_of_n@$0BA@@std@@YA_K_K@Z 000000018000e560 f i MWAvgPoolingLayerImpl.obj
 0001:0000d5a0       ??$_Get_size_of_n@$0EA@@std@@YA_K_K@Z 000000018000e5a0 f i MWAvgPoolingLayerImpl.obj
 0001:0000d5e0       ??$_Get_unwrapped@AEAPEBU?$pair@$$CBHUmemory@dnnl@@@std@@@std@@YA?A_TAEAPEBU?$pair@$$CBHUmemory@dnnl@@@0@@Z 000000018000e5e0 f i MWAvgPoolingLayerImpl.obj
 0001:0000d5f0       ??$_Get_unwrapped@AEAV?$_List_unchecked_const_iterator@V?$_List_val@U?$_List_simple_types@U?$pair@$$CBHUmemory@dnnl@@@std@@@std@@@std@@U_Iterator_base0@2@@std@@@std@@YA?A_TAEAV?$_List_unchecked_const_iterator@V?$_List_val@U?$_List_simple_types@U?$pair@$$CBHUmemory@dnnl@@@std@@@std@@@std@@U_Iterator_base0@2@@0@@Z 000000018000e5f0 f i MWAvgPoolingLayerImpl.obj
 0001:0000d600       ??$_Get_unwrapped@AEBQEAUdnnl_exec_arg_t@@@std@@YA?A_TAEBQEAUdnnl_exec_arg_t@@@Z 000000018000e600 f i MWAvgPoolingLayerImpl.obj
 0001:0000d610       ??$_Get_unwrapped@AEBQEAUprimitive@dnnl@@@std@@YA?A_TAEBQEAUprimitive@dnnl@@@Z 000000018000e610 f i MWAvgPoolingLayerImpl.obj
 0001:0000d620       ??$_Get_unwrapped@AEBQEAV?$_List_unchecked_iterator@V?$_List_val@U?$_List_simple_types@U?$pair@$$CBHUmemory@dnnl@@@std@@@std@@@std@@@std@@@std@@YA?A_TAEBQEAV?$_List_unchecked_iterator@V?$_List_val@U?$_List_simple_types@U?$pair@$$CBHUmemory@dnnl@@@std@@@std@@@std@@@0@@Z 000000018000e620 f i MWAvgPoolingLayerImpl.obj
 0001:0000d630       ??$_Get_unwrapped@AEBQEAV?$unordered_map@HUmemory@dnnl@@U?$hash@H@std@@U?$equal_to@H@4@V?$allocator@U?$pair@$$CBHUmemory@dnnl@@@std@@@4@@std@@@std@@YA?A_TAEBQEAV?$unordered_map@HUmemory@dnnl@@U?$hash@H@std@@U?$equal_to@H@4@V?$allocator@U?$pair@$$CBHUmemory@dnnl@@@std@@@4@@0@@Z 000000018000e630 f i MWAvgPoolingLayerImpl.obj
 0001:0000d640       ??$_Get_unwrapped@AEBQEBW4query@dnnl@@@std@@YA?A_TAEBQEBW4query@dnnl@@@Z 000000018000e640 f i MWAvgPoolingLayerImpl.obj
 0001:0000d650       ??$_Get_unwrapped@AEBQEB_J@std@@YA?A_TAEBQEB_J@Z 000000018000e650 f i MWAvgPoolingLayerImpl.obj
 0001:0000d660       ??$_Get_unwrapped@AEBV?$_Vector_const_iterator@V?$_Vector_val@U?$_Simple_types@W4query@dnnl@@@std@@@std@@@std@@@std@@YA?A_TAEBV?$_Vector_const_iterator@V?$_Vector_val@U?$_Simple_types@W4query@dnnl@@@std@@@std@@@0@@Z 000000018000e660 f i MWAvgPoolingLayerImpl.obj
 0001:0000d680       ??$_Hash_representation@H@std@@YA_KAEBH@Z 000000018000e680 f i MWAvgPoolingLayerImpl.obj
 0001:0000d6b0       ??$_Kfn@$$CBHUmemory@dnnl@@@?$_Umap_traits@HUmemory@dnnl@@V?$_Uhash_compare@HU?$hash@H@std@@U?$equal_to@H@2@@std@@V?$allocator@U?$pair@$$CBHUmemory@dnnl@@@std@@@4@$0A@@std@@SAAEBHAEBU?$pair@$$CBHUmemory@dnnl@@@1@@Z 000000018000e6b0 f i MWAvgPoolingLayerImpl.obj
 0001:0000d6c0       ??$_Move_construct_from@Udnnl_primitive@@@?$_Ptr_base@Udnnl_primitive@@@std@@IEAAX$$QEAV01@@Z 000000018000e6c0 f i MWAvgPoolingLayerImpl.obj
 0001:0000d710       ??$_Move_construct_from@Umemory@dnnl@@@?$_Ptr_base@Umemory@dnnl@@@std@@IEAAX$$QEAV01@@Z 000000018000e710 f i MWAvgPoolingLayerImpl.obj
 0001:0000d760       ??$_Range_construct_or_tidy@PEBW4query@dnnl@@@?$vector@W4query@dnnl@@V?$allocator@W4query@dnnl@@@std@@@std@@AEAAXPEBW4query@dnnl@@0Uforward_iterator_tag@1@@Z 000000018000e760 f i MWAvgPoolingLayerImpl.obj
 0001:0000d800       ??$_Range_construct_or_tidy@PEB_J@?$vector@_JV?$allocator@_J@std@@@std@@AEAAXPEB_J0Uforward_iterator_tag@1@@Z 000000018000e800 f i MWAvgPoolingLayerImpl.obj
 0001:0000d8a0       ??$_Set_ptr_rep_and_enable_shared@Udnnl_memory@@@?$shared_ptr@Udnnl_memory@@@std@@AEAAXQEAUdnnl_memory@@QEAV_Ref_count_base@1@@Z 000000018000e8a0 f i MWAvgPoolingLayerImpl.obj
 0001:0000d8d0       ??$_Set_ptr_rep_and_enable_shared@Udnnl_primitive@@@?$shared_ptr@Udnnl_primitive@@@std@@AEAAXQEAUdnnl_primitive@@QEAV_Ref_count_base@1@@Z 000000018000e8d0 f i MWAvgPoolingLayerImpl.obj
 0001:0000d900       ??$_Set_ptr_rep_and_enable_shared@Udnnl_primitive_desc@@@?$shared_ptr@Udnnl_primitive_desc@@@std@@AEAAXQEAUdnnl_primitive_desc@@QEAV_Ref_count_base@1@@Z 000000018000e900 f i MWAvgPoolingLayerImpl.obj
 0001:0000d930       ??$_Set_ptr_rep_and_enable_shared@Udnnl_primitive_desc_iterator@@@?$shared_ptr@Udnnl_primitive_desc_iterator@@@std@@AEAAXQEAUdnnl_primitive_desc_iterator@@QEAV_Ref_count_base@1@@Z 000000018000e930 f i MWAvgPoolingLayerImpl.obj
 0001:0000d960       ??$_Set_ptr_rep_and_enable_shared@Udnnl_stream@@@?$shared_ptr@Udnnl_stream@@@std@@AEAAXQEAUdnnl_stream@@QEAV_Ref_count_base@1@@Z 000000018000e960 f i MWAvgPoolingLayerImpl.obj
 0001:0000d990       ??$_Set_ptr_rep_and_enable_shared@Umemory@dnnl@@@?$shared_ptr@Umemory@dnnl@@@std@@AEAAXQEAUmemory@dnnl@@QEAV_Ref_count_base@1@@Z 000000018000e990 f i MWAvgPoolingLayerImpl.obj
 0001:0000d9c0       ??$_Setpd@PEAUdnnl_memory@@P6A?AW4dnnl_status_t@@PEAU1@@Z@?$shared_ptr@Udnnl_memory@@@std@@AEAAXQEAUdnnl_memory@@P6A?AW4dnnl_status_t@@PEAU2@@Z@Z 000000018000e9c0 f i MWAvgPoolingLayerImpl.obj
 0001:0000da60       ??$_Setpd@PEAUdnnl_primitive@@P6A?AW4dnnl_status_t@@PEAU1@@Z@?$shared_ptr@Udnnl_primitive@@@std@@AEAAXQEAUdnnl_primitive@@P6A?AW4dnnl_status_t@@PEAU2@@Z@Z 000000018000ea60 f i MWAvgPoolingLayerImpl.obj
 0001:0000db00       ??$_Setpd@PEAUdnnl_primitive_desc@@P6A?AW4dnnl_status_t@@PEAU1@@Z@?$shared_ptr@Udnnl_primitive_desc@@@std@@AEAAXQEAUdnnl_primitive_desc@@P6A?AW4dnnl_status_t@@PEAU2@@Z@Z 000000018000eb00 f i MWAvgPoolingLayerImpl.obj
 0001:0000dba0       ??$_Setpd@PEAUdnnl_primitive_desc_iterator@@P6A?AW4dnnl_status_t@@PEAU1@@Z@?$shared_ptr@Udnnl_primitive_desc_iterator@@@std@@AEAAXQEAUdnnl_primitive_desc_iterator@@P6A?AW4dnnl_status_t@@PEAU2@@Z@Z 000000018000eba0 f i MWAvgPoolingLayerImpl.obj
 0001:0000dc40       ??$_Setpd@PEAUdnnl_stream@@P6A?AW4dnnl_status_t@@PEAU1@@Z@?$shared_ptr@Udnnl_stream@@@std@@AEAAXQEAUdnnl_stream@@P6A?AW4dnnl_status_t@@PEAU2@@Z@Z 000000018000ec40 f i MWAvgPoolingLayerImpl.obj
 0001:0000dce0       ??$_Swap_adl@PEAU?$_List_node@U?$pair@$$CBHUmemory@dnnl@@@std@@PEAX@std@@@std@@YAXAEAPEAU?$_List_node@U?$pair@$$CBHUmemory@dnnl@@@std@@PEAX@0@0@Z 000000018000ece0 f i MWAvgPoolingLayerImpl.obj
 0001:0000dd10       ??$_Swap_adl@PEAV?$_List_unchecked_iterator@V?$_List_val@U?$_List_simple_types@U?$pair@$$CBHUmemory@dnnl@@@std@@@std@@@std@@@std@@@std@@YAXAEAPEAV?$_List_unchecked_iterator@V?$_List_val@U?$_List_simple_types@U?$pair@$$CBHUmemory@dnnl@@@std@@@std@@@std@@@0@0@Z 000000018000ed10 f i MWAvgPoolingLayerImpl.obj
 0001:0000dd40       ??$_To_address@PEAUdnnl_exec_arg_t@@@std@@YA?A_PAEBQEAUdnnl_exec_arg_t@@@Z 000000018000ed40 f i MWAvgPoolingLayerImpl.obj
 0001:0000dd50       ??$_To_address@PEAW4query@dnnl@@@std@@YA?A_PAEBQEAW4query@dnnl@@@Z 000000018000ed50 f i MWAvgPoolingLayerImpl.obj
 0001:0000dd60       ??$_To_address@PEA_J@std@@YA?A_PAEBQEA_J@Z 000000018000ed60 f i MWAvgPoolingLayerImpl.obj
 0001:0000dd70       ??$_To_address@PEBW4query@dnnl@@@std@@YA?A_PAEBQEBW4query@dnnl@@@Z 000000018000ed70 f i MWAvgPoolingLayerImpl.obj
 0001:0000dd80       ??$_To_address@PEB_J@std@@YA?A_PAEBQEB_J@Z 000000018000ed80 f i MWAvgPoolingLayerImpl.obj
 0001:0000dd90       ??$_Ucopy@PEBW4query@dnnl@@@?$vector@W4query@dnnl@@V?$allocator@W4query@dnnl@@@std@@@std@@AEAAPEAW4query@dnnl@@PEBW423@0PEAW423@@Z 000000018000ed90 f i MWAvgPoolingLayerImpl.obj
 0001:0000ddd0       ??$_Ucopy@PEB_J@?$vector@_JV?$allocator@_J@std@@@std@@AEAAPEA_JPEB_J0PEA_J@Z 000000018000edd0 f i MWAvgPoolingLayerImpl.obj
 0001:0000de10       ??$_Unfancy@Udnnl_exec_arg_t@@@std@@YAPEAUdnnl_exec_arg_t@@PEAU1@@Z 000000018000ee10 f i MWAvgPoolingLayerImpl.obj
 0001:0000de20       ??$_Unfancy@Uprimitive@dnnl@@@std@@YAPEAUprimitive@dnnl@@PEAU12@@Z 000000018000ee20 f i MWAvgPoolingLayerImpl.obj
 0001:0000de30       ??$_Unfancy@V?$unordered_map@HUmemory@dnnl@@U?$hash@H@std@@U?$equal_to@H@4@V?$allocator@U?$pair@$$CBHUmemory@dnnl@@@std@@@4@@std@@@std@@YAPEAV?$unordered_map@HUmemory@dnnl@@U?$hash@H@std@@U?$equal_to@H@4@V?$allocator@U?$pair@$$CBHUmemory@dnnl@@@std@@@4@@0@PEAV10@@Z 000000018000ee30 f i MWAvgPoolingLayerImpl.obj
 0001:0000de40       ??$_Unfancy@W4query@dnnl@@@std@@YAPEAW4query@dnnl@@PEAW412@@Z 000000018000ee40 f i MWAvgPoolingLayerImpl.obj
 0001:0000de50       ??$_Unfancy@_J@std@@YAPEA_JPEA_J@Z 000000018000ee50 f i MWAvgPoolingLayerImpl.obj
 0001:0000de60       ??$_Unfancy_maybe_null@Udnnl_exec_arg_t@@@std@@YAPEAUdnnl_exec_arg_t@@PEAU1@@Z 000000018000ee60 f i MWAvgPoolingLayerImpl.obj
 0001:0000de70       ??$_Unfancy_maybe_null@_J@std@@YAPEA_JPEA_J@Z 000000018000ee70 f i MWAvgPoolingLayerImpl.obj
 0001:0000de80       ??$_Uninitialized_copy@PEAV?$unordered_map@HUmemory@dnnl@@U?$hash@H@std@@U?$equal_to@H@4@V?$allocator@U?$pair@$$CBHUmemory@dnnl@@@std@@@4@@std@@V?$allocator@V?$unordered_map@HUmemory@dnnl@@U?$hash@H@std@@U?$equal_to@H@4@V?$allocator@U?$pair@$$CBHUmemory@dnnl@@@std@@@4@@std@@@2@@std@@YAPEAV?$unordered_map@HUmemory@dnnl@@U?$hash@H@std@@U?$equal_to@H@4@V?$allocator@U?$pair@$$CBHUmemory@dnnl@@@std@@@4@@0@QEAV10@0PEAV10@AEAV?$allocator@V?$unordered_map@HUmemory@dnnl@@U?$hash@H@std@@U?$equal_to@H@4@V?$allocator@U?$pair@$$CBHUmemory@dnnl@@@std@@@4@@std@@@0@@Z 000000018000ee80 f i MWAvgPoolingLayerImpl.obj
 0001:0000df20       ??$_Uninitialized_copy@PEBW4query@dnnl@@V?$allocator@W4query@dnnl@@@std@@@std@@YAPEAW4query@dnnl@@QEBW412@0PEAW412@AEAV?$allocator@W4query@dnnl@@@0@@Z 000000018000ef20 f i MWAvgPoolingLayerImpl.obj
 0001:0000e000       ??$_Uninitialized_copy@PEB_JV?$allocator@_J@std@@@std@@YAPEA_JQEB_J0PEA_JAEAV?$allocator@_J@0@@Z 000000018000f000 f i MWAvgPoolingLayerImpl.obj
 0001:0000e0e0       ??$_Uninitialized_move@PEAUdnnl_exec_arg_t@@V?$allocator@Udnnl_exec_arg_t@@@std@@@std@@YAPEAUdnnl_exec_arg_t@@QEAU1@0PEAU1@AEAV?$allocator@Udnnl_exec_arg_t@@@0@@Z 000000018000f0e0 f i MWAvgPoolingLayerImpl.obj
 0001:0000e1d0       ??$_Uninitialized_move@PEAUprimitive@dnnl@@V?$allocator@Uprimitive@dnnl@@@std@@@std@@YAPEAUprimitive@dnnl@@QEAU12@0PEAU12@AEAV?$allocator@Uprimitive@dnnl@@@0@@Z 000000018000f1d0 f i MWAvgPoolingLayerImpl.obj
 0001:0000e280       ??$_Uninitialized_move@PEAV?$unordered_map@HUmemory@dnnl@@U?$hash@H@std@@U?$equal_to@H@4@V?$allocator@U?$pair@$$CBHUmemory@dnnl@@@std@@@4@@std@@V?$allocator@V?$unordered_map@HUmemory@dnnl@@U?$hash@H@std@@U?$equal_to@H@4@V?$allocator@U?$pair@$$CBHUmemory@dnnl@@@std@@@4@@std@@@2@@std@@YAPEAV?$unordered_map@HUmemory@dnnl@@U?$hash@H@std@@U?$equal_to@H@4@V?$allocator@U?$pair@$$CBHUmemory@dnnl@@@std@@@4@@0@QEAV10@0PEAV10@AEAV?$allocator@V?$unordered_map@HUmemory@dnnl@@U?$hash@H@std@@U?$equal_to@H@4@V?$allocator@U?$pair@$$CBHUmemory@dnnl@@@std@@@4@@std@@@0@@Z 000000018000f280 f i MWAvgPoolingLayerImpl.obj
 0001:0000e330       ??$_Voidify_iter@PEAPEAU?$_List_node@U?$pair@$$CBHUmemory@dnnl@@@std@@PEAX@std@@@std@@YAPEAXPEAPEAU?$_List_node@U?$pair@$$CBHUmemory@dnnl@@@std@@PEAX@0@@Z 000000018000f330 f i MWAvgPoolingLayerImpl.obj
 0001:0000e340       ??$_Voidify_iter@PEAU?$pair@$$CBHUmemory@dnnl@@@std@@@std@@YAPEAXPEAU?$pair@$$CBHUmemory@dnnl@@@0@@Z 000000018000f340 f i MWAvgPoolingLayerImpl.obj
 0001:0000e350       ??$_Voidify_iter@PEAUdnnl_exec_arg_t@@@std@@YAPEAXPEAUdnnl_exec_arg_t@@@Z 000000018000f350 f i MWAvgPoolingLayerImpl.obj
 0001:0000e360       ??$_Voidify_iter@PEAUmemory@dnnl@@@std@@YAPEAXPEAUmemory@dnnl@@@Z 000000018000f360 f i MWAvgPoolingLayerImpl.obj
 0001:0000e370       ??$_Voidify_iter@PEAUprimitive@dnnl@@@std@@YAPEAXPEAUprimitive@dnnl@@@Z 000000018000f370 f i MWAvgPoolingLayerImpl.obj
 0001:0000e380       ??$_Voidify_iter@PEAV?$_List_unchecked_iterator@V?$_List_val@U?$_List_simple_types@U?$pair@$$CBHUmemory@dnnl@@@std@@@std@@@std@@@std@@@std@@YAPEAXPEAV?$_List_unchecked_iterator@V?$_List_val@U?$_List_simple_types@U?$pair@$$CBHUmemory@dnnl@@@std@@@std@@@std@@@0@@Z 000000018000f380 f i MWAvgPoolingLayerImpl.obj
 0001:0000e390       ??$_Voidify_iter@PEAV?$unordered_map@HUmemory@dnnl@@U?$hash@H@std@@U?$equal_to@H@4@V?$allocator@U?$pair@$$CBHUmemory@dnnl@@@std@@@4@@std@@@std@@YAPEAXPEAV?$unordered_map@HUmemory@dnnl@@U?$hash@H@std@@U?$equal_to@H@4@V?$allocator@U?$pair@$$CBHUmemory@dnnl@@@std@@@4@@0@@Z 000000018000f390 f i MWAvgPoolingLayerImpl.obj
 0001:0000e3a0       ??$_Voidify_iter@PEAW4query@dnnl@@@std@@YAPEAXPEAW4query@dnnl@@@Z 000000018000f3a0 f i MWAvgPoolingLayerImpl.obj
 0001:0000e3b0       ??$_Voidify_iter@PEA_J@std@@YAPEAXPEA_J@Z 000000018000f3b0 f i MWAvgPoolingLayerImpl.obj
 0001:0000e3c0       ??$addressof@$$CBV?$_List_val@U?$_List_simple_types@U?$pair@$$CBHUmemory@dnnl@@@std@@@std@@@std@@@std@@YAPEBV?$_List_val@U?$_List_simple_types@U?$pair@$$CBHUmemory@dnnl@@@std@@@std@@@0@AEBV10@@Z 000000018000f3c0 f i MWAvgPoolingLayerImpl.obj
 0001:0000e3d0       ??$addressof@$$CBV?$_Vector_val@U?$_Simple_types@W4query@dnnl@@@std@@@std@@@std@@YAPEBV?$_Vector_val@U?$_Simple_types@W4query@dnnl@@@std@@@0@AEBV10@@Z 000000018000f3d0 f i MWAvgPoolingLayerImpl.obj
 0001:0000e3e0       ??$addressof@PEAU?$_List_node@U?$pair@$$CBHUmemory@dnnl@@@std@@PEAX@std@@@std@@YAPEAPEAU?$_List_node@U?$pair@$$CBHUmemory@dnnl@@@std@@PEAX@0@AEAPEAU10@@Z 000000018000f3e0 f i MWAvgPoolingLayerImpl.obj
 0001:0000e3f0       ??$addressof@Q6A?AW4dnnl_status_t@@PEAUdnnl_memory@@@Z@std@@YAPEBQ6A?AW4dnnl_status_t@@PEAUdnnl_memory@@@ZAEBQ6A?AW41@0@Z@Z 000000018000f3f0 f i MWAvgPoolingLayerImpl.obj
 0001:0000e400       ??$addressof@Q6A?AW4dnnl_status_t@@PEAUdnnl_primitive@@@Z@std@@YAPEBQ6A?AW4dnnl_status_t@@PEAUdnnl_primitive@@@ZAEBQ6A?AW41@0@Z@Z 000000018000f400 f i MWAvgPoolingLayerImpl.obj
 0001:0000e410       ??$addressof@Q6A?AW4dnnl_status_t@@PEAUdnnl_primitive_desc@@@Z@std@@YAPEBQ6A?AW4dnnl_status_t@@PEAUdnnl_primitive_desc@@@ZAEBQ6A?AW41@0@Z@Z 000000018000f410 f i MWAvgPoolingLayerImpl.obj
 0001:0000e420       ??$addressof@Q6A?AW4dnnl_status_t@@PEAUdnnl_primitive_desc_iterator@@@Z@std@@YAPEBQ6A?AW4dnnl_status_t@@PEAUdnnl_primitive_desc_iterator@@@ZAEBQ6A?AW41@0@Z@Z 000000018000f420 f i MWAvgPoolingLayerImpl.obj
 0001:0000e430       ??$addressof@Q6A?AW4dnnl_status_t@@PEAUdnnl_stream@@@Z@std@@YAPEBQ6A?AW4dnnl_status_t@@PEAUdnnl_stream@@@ZAEBQ6A?AW41@0@Z@Z 000000018000f430 f i MWAvgPoolingLayerImpl.obj
 0001:0000e440       ??$addressof@U?$pair@$$CBHUmemory@dnnl@@@std@@@std@@YAPEAU?$pair@$$CBHUmemory@dnnl@@@0@AEAU10@@Z 000000018000f440 f i MWAvgPoolingLayerImpl.obj
 0001:0000e450       ??$addressof@U?$pair@$$CBHV?$shared_ptr@Umemory@dnnl@@@std@@@std@@@std@@YAPEAU?$pair@$$CBHV?$shared_ptr@Umemory@dnnl@@@std@@@0@AEAU10@@Z 000000018000f450 f i MWAvgPoolingLayerImpl.obj
 0001:0000e460       ??$addressof@U?$pair@$$CBHV?$shared_ptr@Ureorder@dnnl@@@std@@@std@@@std@@YAPEAU?$pair@$$CBHV?$shared_ptr@Ureorder@dnnl@@@std@@@0@AEAU10@@Z 000000018000f460 f i MWAvgPoolingLayerImpl.obj
 0001:0000e470       ??$addressof@Umemory@dnnl@@@std@@YAPEAUmemory@dnnl@@AEAU12@@Z 000000018000f470 f i MWAvgPoolingLayerImpl.obj
 0001:0000e480       ??$addressof@V?$_List_unchecked_iterator@V?$_List_val@U?$_List_simple_types@U?$pair@$$CBHUmemory@dnnl@@@std@@@std@@@std@@@std@@@std@@YAPEAV?$_List_unchecked_iterator@V?$_List_val@U?$_List_simple_types@U?$pair@$$CBHUmemory@dnnl@@@std@@@std@@@std@@@0@AEAV10@@Z 000000018000f480 f i MWAvgPoolingLayerImpl.obj
 0001:0000e490       ??$addressof@V?$_Tree_val@U?$_Tree_simple_types@U?$pair@$$CBHV?$shared_ptr@Umemory@dnnl@@@std@@@std@@@std@@@std@@@std@@YAPEAV?$_Tree_val@U?$_Tree_simple_types@U?$pair@$$CBHV?$shared_ptr@Umemory@dnnl@@@std@@@std@@@std@@@0@AEAV10@@Z 000000018000f490 f i MWAvgPoolingLayerImpl.obj
 0001:0000e4a0       ??$addressof@V?$_Tree_val@U?$_Tree_simple_types@U?$pair@$$CBHV?$shared_ptr@Ureorder@dnnl@@@std@@@std@@@std@@@std@@@std@@YAPEAV?$_Tree_val@U?$_Tree_simple_types@U?$pair@$$CBHV?$shared_ptr@Ureorder@dnnl@@@std@@@std@@@std@@@0@AEAV10@@Z 000000018000f4a0 f i MWAvgPoolingLayerImpl.obj
 0001:0000e4b0       ??$addressof@V?$unique_ptr@Udesc@pooling_forward@dnnl@@U?$default_delete@Udesc@pooling_forward@dnnl@@@std@@@std@@@std@@YAPEAV?$unique_ptr@Udesc@pooling_forward@dnnl@@U?$default_delete@Udesc@pooling_forward@dnnl@@@std@@@0@AEAV10@@Z 000000018000f4b0 f i MWAvgPoolingLayerImpl.obj
 0001:0000e4c0       ??$addressof@V?$unique_ptr@Uprimitive_desc@pooling_forward@dnnl@@U?$default_delete@Uprimitive_desc@pooling_forward@dnnl@@@std@@@std@@@std@@YAPEAV?$unique_ptr@Uprimitive_desc@pooling_forward@dnnl@@U?$default_delete@Uprimitive_desc@pooling_forward@dnnl@@@std@@@0@AEAV10@@Z 000000018000f4c0 f i MWAvgPoolingLayerImpl.obj
 0001:0000e4d0       ??$any_of@V?$_Vector_const_iterator@V?$_Vector_val@U?$_Simple_types@W4query@dnnl@@@std@@@std@@@std@@V<lambda_2cb6fb12134205e5edb8ba066169e3a4>@@@std@@YA_NV?$_Vector_const_iterator@V?$_Vector_val@U?$_Simple_types@W4query@dnnl@@@std@@@std@@@0@0V<lambda_2cb6fb12134205e5edb8ba066169e3a4>@@@Z 000000018000f4d0 f i MWAvgPoolingLayerImpl.obj
 0001:0000e560       ??$construct@U?$pair@$$CBHUmemory@dnnl@@@std@@AEBU12@@?$_Default_allocator_traits@V?$allocator@U?$_List_node@U?$pair@$$CBHUmemory@dnnl@@@std@@PEAX@std@@@std@@@std@@SAXAEAV?$allocator@U?$_List_node@U?$pair@$$CBHUmemory@dnnl@@@std@@PEAX@std@@@1@QEAU?$pair@$$CBHUmemory@dnnl@@@1@AEBU31@@Z 000000018000f560 f i MWAvgPoolingLayerImpl.obj
 0001:0000e5b0       ??$construct@Udnnl_exec_arg_t@@U1@@?$_Default_allocator_traits@V?$allocator@Udnnl_exec_arg_t@@@std@@@std@@SAXAEAV?$allocator@Udnnl_exec_arg_t@@@1@QEAUdnnl_exec_arg_t@@$$QEAU3@@Z 000000018000f5b0 f i MWAvgPoolingLayerImpl.obj
 0001:0000e610       ??$construct@Uprimitive@dnnl@@AEBU12@@?$_Default_allocator_traits@V?$allocator@Uprimitive@dnnl@@@std@@@std@@SAXAEAV?$allocator@Uprimitive@dnnl@@@1@QEAUprimitive@dnnl@@AEBU34@@Z 000000018000f610 f i MWAvgPoolingLayerImpl.obj
 0001:0000e660       ??$construct@Uprimitive@dnnl@@U12@@?$_Default_allocator_traits@V?$allocator@Uprimitive@dnnl@@@std@@@std@@SAXAEAV?$allocator@Uprimitive@dnnl@@@1@QEAUprimitive@dnnl@@$$QEAU34@@Z 000000018000f660 f i MWAvgPoolingLayerImpl.obj
 0001:0000e6b0       ??$construct@V?$unordered_map@HUmemory@dnnl@@U?$hash@H@std@@U?$equal_to@H@4@V?$allocator@U?$pair@$$CBHUmemory@dnnl@@@std@@@4@@std@@AEAV12@@?$_Default_allocator_traits@V?$allocator@V?$unordered_map@HUmemory@dnnl@@U?$hash@H@std@@U?$equal_to@H@4@V?$allocator@U?$pair@$$CBHUmemory@dnnl@@@std@@@4@@std@@@std@@@std@@SAXAEAV?$allocator@V?$unordered_map@HUmemory@dnnl@@U?$hash@H@std@@U?$equal_to@H@4@V?$allocator@U?$pair@$$CBHUmemory@dnnl@@@std@@@4@@std@@@1@QEAV?$unordered_map@HUmemory@dnnl@@U?$hash@H@std@@U?$equal_to@H@4@V?$allocator@U?$pair@$$CBHUmemory@dnnl@@@std@@@4@@1@AEAV31@@Z 000000018000f6b0 f i MWAvgPoolingLayerImpl.obj
 0001:0000e700       ??$construct@V?$unordered_map@HUmemory@dnnl@@U?$hash@H@std@@U?$equal_to@H@4@V?$allocator@U?$pair@$$CBHUmemory@dnnl@@@std@@@4@@std@@V12@@?$_Default_allocator_traits@V?$allocator@V?$unordered_map@HUmemory@dnnl@@U?$hash@H@std@@U?$equal_to@H@4@V?$allocator@U?$pair@$$CBHUmemory@dnnl@@@std@@@4@@std@@@std@@@std@@SAXAEAV?$allocator@V?$unordered_map@HUmemory@dnnl@@U?$hash@H@std@@U?$equal_to@H@4@V?$allocator@U?$pair@$$CBHUmemory@dnnl@@@std@@@4@@std@@@1@QEAV?$unordered_map@HUmemory@dnnl@@U?$hash@H@std@@U?$equal_to@H@4@V?$allocator@U?$pair@$$CBHUmemory@dnnl@@@std@@@4@@1@$$QEAV31@@Z 000000018000f700 f i MWAvgPoolingLayerImpl.obj
 0001:0000e750       ??$construct@W4query@dnnl@@AEBW412@@?$_Default_allocator_traits@V?$allocator@W4query@dnnl@@@std@@@std@@SAXAEAV?$allocator@W4query@dnnl@@@1@QEAW4query@dnnl@@AEBW434@@Z 000000018000f750 f i MWAvgPoolingLayerImpl.obj
 0001:0000e7a0       ??$construct@_JAEB_J@?$_Default_allocator_traits@V?$allocator@_J@std@@@std@@SAXAEAV?$allocator@_J@1@QEA_JAEB_J@Z 000000018000f7a0 f i MWAvgPoolingLayerImpl.obj
 0001:0000e7f0       ??$destroy@U?$pair@$$CBHUmemory@dnnl@@@std@@@?$_Default_allocator_traits@V?$allocator@U?$_List_node@U?$pair@$$CBHUmemory@dnnl@@@std@@PEAX@std@@@std@@@std@@SAXAEAV?$allocator@U?$_List_node@U?$pair@$$CBHUmemory@dnnl@@@std@@PEAX@std@@@1@QEAU?$pair@$$CBHUmemory@dnnl@@@1@@Z 000000018000f7f0 f i MWAvgPoolingLayerImpl.obj
 0001:0000e810       ??$destroy@U?$pair@$$CBHV?$shared_ptr@Umemory@dnnl@@@std@@@std@@@?$_Default_allocator_traits@V?$allocator@U?$_Tree_node@U?$pair@$$CBHV?$shared_ptr@Umemory@dnnl@@@std@@@std@@PEAX@std@@@std@@@std@@SAXAEAV?$allocator@U?$_Tree_node@U?$pair@$$CBHV?$shared_ptr@Umemory@dnnl@@@std@@@std@@PEAX@std@@@1@QEAU?$pair@$$CBHV?$shared_ptr@Umemory@dnnl@@@std@@@1@@Z 000000018000f810 f i MWAvgPoolingLayerImpl.obj
 0001:0000e830       ??$destroy@U?$pair@$$CBHV?$shared_ptr@Ureorder@dnnl@@@std@@@std@@@?$_Default_allocator_traits@V?$allocator@U?$_Tree_node@U?$pair@$$CBHV?$shared_ptr@Ureorder@dnnl@@@std@@@std@@PEAX@std@@@std@@@std@@SAXAEAV?$allocator@U?$_Tree_node@U?$pair@$$CBHV?$shared_ptr@Ureorder@dnnl@@@std@@@std@@PEAX@std@@@1@QEAU?$pair@$$CBHV?$shared_ptr@Ureorder@dnnl@@@std@@@1@@Z 000000018000f830 f i MWAvgPoolingLayerImpl.obj
 0001:0000e850       ??$destroy@Uprimitive@dnnl@@@?$_Default_allocator_traits@V?$allocator@Uprimitive@dnnl@@@std@@@std@@SAXAEAV?$allocator@Uprimitive@dnnl@@@1@QEAUprimitive@dnnl@@@Z 000000018000f850 f i MWAvgPoolingLayerImpl.obj
 0001:0000e870       ??$destroy@V?$unordered_map@HUmemory@dnnl@@U?$hash@H@std@@U?$equal_to@H@4@V?$allocator@U?$pair@$$CBHUmemory@dnnl@@@std@@@4@@std@@@?$_Default_allocator_traits@V?$allocator@V?$unordered_map@HUmemory@dnnl@@U?$hash@H@std@@U?$equal_to@H@4@V?$allocator@U?$pair@$$CBHUmemory@dnnl@@@std@@@4@@std@@@std@@@std@@SAXAEAV?$allocator@V?$unordered_map@HUmemory@dnnl@@U?$hash@H@std@@U?$equal_to@H@4@V?$allocator@U?$pair@$$CBHUmemory@dnnl@@@std@@@4@@std@@@1@QEAV?$unordered_map@HUmemory@dnnl@@U?$hash@H@std@@U?$equal_to@H@4@V?$allocator@U?$pair@$$CBHUmemory@dnnl@@@std@@@4@@1@@Z 000000018000f870 f i MWAvgPoolingLayerImpl.obj
 0001:0000e890       ??$distance@PEBW4query@dnnl@@@std@@YA_JPEBW4query@dnnl@@0@Z 000000018000f890 f i MWAvgPoolingLayerImpl.obj
 0001:0000e8b0       ??$distance@PEB_J@std@@YA_JPEB_J0@Z 000000018000f8b0 f i MWAvgPoolingLayerImpl.obj
 0001:0000e8d0       ??$emplace@AEBU?$pair@$$CBHUmemory@dnnl@@@std@@@?$_Hash@V?$_Umap_traits@HUmemory@dnnl@@V?$_Uhash_compare@HU?$hash@H@std@@U?$equal_to@H@2@@std@@V?$allocator@U?$pair@$$CBHUmemory@dnnl@@@std@@@4@$0A@@std@@@std@@QEAA?AU?$pair@V?$_List_iterator@V?$_List_val@U?$_List_simple_types@U?$pair@$$CBHUmemory@dnnl@@@std@@@std@@@std@@@std@@_N@1@AEBU?$pair@$$CBHUmemory@dnnl@@@1@@Z 000000018000f8d0 f i MWAvgPoolingLayerImpl.obj
 0001:0000eab0       ??$emplace_back@AEBUprimitive@dnnl@@@?$vector@Uprimitive@dnnl@@V?$allocator@Uprimitive@dnnl@@@std@@@std@@QEAA?A_TAEBUprimitive@dnnl@@@Z 000000018000fab0 f i MWAvgPoolingLayerImpl.obj
 0001:0000eb30       ??$emplace_back@Udnnl_exec_arg_t@@@?$vector@Udnnl_exec_arg_t@@V?$allocator@Udnnl_exec_arg_t@@@std@@@std@@QEAA?A_T$$QEAUdnnl_exec_arg_t@@@Z 000000018000fb30 f i MWAvgPoolingLayerImpl.obj
 0001:0000ebb0       ??$emplace_back@V?$unordered_map@HUmemory@dnnl@@U?$hash@H@std@@U?$equal_to@H@4@V?$allocator@U?$pair@$$CBHUmemory@dnnl@@@std@@@4@@std@@@?$vector@V?$unordered_map@HUmemory@dnnl@@U?$hash@H@std@@U?$equal_to@H@4@V?$allocator@U?$pair@$$CBHUmemory@dnnl@@@std@@@4@@std@@V?$allocator@V?$unordered_map@HUmemory@dnnl@@U?$hash@H@std@@U?$equal_to@H@4@V?$allocator@U?$pair@$$CBHUmemory@dnnl@@@std@@@4@@std@@@2@@std@@QEAA?A_T$$QEAV?$unordered_map@HUmemory@dnnl@@U?$hash@H@std@@U?$equal_to@H@4@V?$allocator@U?$pair@$$CBHUmemory@dnnl@@@std@@@4@@1@@Z 000000018000fbb0 f i MWAvgPoolingLayerImpl.obj
 0001:0000ec30       ??$exchange@PEAU?$_List_node@U?$pair@$$CBHUmemory@dnnl@@@std@@PEAX@std@@$$T@std@@YAPEAU?$_List_node@U?$pair@$$CBHUmemory@dnnl@@@std@@PEAX@0@AEAPEAU10@$$QEA$$T@Z 000000018000fc30 f i MWAvgPoolingLayerImpl.obj
 0001:0000ec70       ??$exchange@PEAU?$_Tree_node@U?$pair@$$CBHV?$shared_ptr@Umemory@dnnl@@@std@@@std@@PEAX@std@@AEAPEAU12@@std@@YAPEAU?$_Tree_node@U?$pair@$$CBHV?$shared_ptr@Umemory@dnnl@@@std@@@std@@PEAX@0@AEAPEAU10@0@Z 000000018000fc70 f i MWAvgPoolingLayerImpl.obj
 0001:0000ecb0       ??$exchange@PEAU?$_Tree_node@U?$pair@$$CBHV?$shared_ptr@Ureorder@dnnl@@@std@@@std@@PEAX@std@@AEAPEAU12@@std@@YAPEAU?$_Tree_node@U?$pair@$$CBHV?$shared_ptr@Ureorder@dnnl@@@std@@@std@@PEAX@0@AEAPEAU10@0@Z 000000018000fcb0 f i MWAvgPoolingLayerImpl.obj
 0001:0000ecf0       ??$exchange@PEAUdesc@pooling_forward@dnnl@@$$T@std@@YAPEAUdesc@pooling_forward@dnnl@@AEAPEAU123@$$QEA$$T@Z 000000018000fcf0 f i MWAvgPoolingLayerImpl.obj
 0001:0000ed30       ??$exchange@PEAUdesc@pooling_forward@dnnl@@AEAPEAU123@@std@@YAPEAUdesc@pooling_forward@dnnl@@AEAPEAU123@0@Z 000000018000fd30 f i MWAvgPoolingLayerImpl.obj
 0001:0000ed70       ??$exchange@PEAUpooling_forward@dnnl@@$$T@std@@YAPEAUpooling_forward@dnnl@@AEAPEAU12@$$QEA$$T@Z 000000018000fd70 f i MWAvgPoolingLayerImpl.obj
 0001:0000edb0       ??$exchange@PEAUprimitive@dnnl@@AEAPEAU12@@std@@YAPEAUprimitive@dnnl@@AEAPEAU12@0@Z 000000018000fdb0 f i MWAvgPoolingLayerImpl.obj
 0001:0000edf0       ??$exchange@PEAUprimitive_desc@pooling_forward@dnnl@@$$T@std@@YAPEAUprimitive_desc@pooling_forward@dnnl@@AEAPEAU123@$$QEA$$T@Z 000000018000fdf0 f i MWAvgPoolingLayerImpl.obj
 0001:0000ee30       ??$exchange@PEAUprimitive_desc@pooling_forward@dnnl@@AEAPEAU123@@std@@YAPEAUprimitive_desc@pooling_forward@dnnl@@AEAPEAU123@0@Z 000000018000fe30 f i MWAvgPoolingLayerImpl.obj
 0001:0000ee70       ??$exchange@_KAEB_K@std@@YA_KAEA_KAEB_K@Z 000000018000fe70 f i MWAvgPoolingLayerImpl.obj
 0001:0000eeb0       ??$exchange@_K_K@std@@YA_KAEA_K$$QEA_K@Z 000000018000feb0 f i MWAvgPoolingLayerImpl.obj
 0001:0000eef0       ??$fill@PEAV?$_List_unchecked_iterator@V?$_List_val@U?$_List_simple_types@U?$pair@$$CBHUmemory@dnnl@@@std@@@std@@@std@@@std@@V12@@std@@YAXQEAV?$_List_unchecked_iterator@V?$_List_val@U?$_List_simple_types@U?$pair@$$CBHUmemory@dnnl@@@std@@@std@@@std@@@0@0AEBV10@@Z 000000018000fef0 f i MWAvgPoolingLayerImpl.obj
 0001:0000ef70       ??$forward@AEAPEAU?$_List_node@U?$pair@$$CBHUmemory@dnnl@@@std@@PEAX@std@@@std@@YAAEAPEAU?$_List_node@U?$pair@$$CBHUmemory@dnnl@@@std@@PEAX@0@AEAPEAU10@@Z 000000018000ff70 f i MWAvgPoolingLayerImpl.obj
 0001:0000ef80       ??$forward@AEAPEAUdesc@pooling_forward@dnnl@@@std@@YAAEAPEAUdesc@pooling_forward@dnnl@@AEAPEAU123@@Z 000000018000ff80 f i MWAvgPoolingLayerImpl.obj
 0001:0000ef90       ??$forward@AEAPEAUdnnl_memory@@@std@@YAAEAPEAUdnnl_memory@@AEAPEAU1@@Z 000000018000ff90 f i MWAvgPoolingLayerImpl.obj
 0001:0000efa0       ??$forward@AEAPEAUdnnl_primitive@@@std@@YAAEAPEAUdnnl_primitive@@AEAPEAU1@@Z 000000018000ffa0 f i MWAvgPoolingLayerImpl.obj
 0001:0000efb0       ??$forward@AEAPEAUdnnl_primitive_desc@@@std@@YAAEAPEAUdnnl_primitive_desc@@AEAPEAU1@@Z 000000018000ffb0 f i MWAvgPoolingLayerImpl.obj
 0001:0000efc0       ??$forward@AEAPEAUdnnl_primitive_desc_iterator@@@std@@YAAEAPEAUdnnl_primitive_desc_iterator@@AEAPEAU1@@Z 000000018000ffc0 f i MWAvgPoolingLayerImpl.obj
 0001:0000efd0       ??$forward@AEAPEAUdnnl_stream@@@std@@YAAEAPEAUdnnl_stream@@AEAPEAU1@@Z 000000018000ffd0 f i MWAvgPoolingLayerImpl.obj
 0001:0000efe0       ??$forward@AEAPEAUpooling_forward@dnnl@@@std@@YAAEAPEAUpooling_forward@dnnl@@AEAPEAU12@@Z 000000018000ffe0 f i MWAvgPoolingLayerImpl.obj
 0001:0000eff0       ??$forward@AEAPEAUprimitive_desc@pooling_forward@dnnl@@@std@@YAAEAPEAUprimitive_desc@pooling_forward@dnnl@@AEAPEAU123@@Z 000000018000fff0 f i MWAvgPoolingLayerImpl.obj
 0001:0000f000       ??$forward@AEAUengine@dnnl@@@std@@YAAEAUengine@dnnl@@AEAU12@@Z 0000000180010000 f i MWAvgPoolingLayerImpl.obj
 0001:0000f010       ??$forward@AEAUmemory@dnnl@@@std@@YAAEAUmemory@dnnl@@AEAU12@@Z 0000000180010010 f i MWAvgPoolingLayerImpl.obj
 0001:0000f020       ??$forward@AEAV?$unordered_map@HUmemory@dnnl@@U?$hash@H@std@@U?$equal_to@H@4@V?$allocator@U?$pair@$$CBHUmemory@dnnl@@@std@@@4@@std@@@std@@YAAEAV?$unordered_map@HUmemory@dnnl@@U?$hash@H@std@@U?$equal_to@H@4@V?$allocator@U?$pair@$$CBHUmemory@dnnl@@@std@@@4@@0@AEAV10@@Z 0000000180010020 f i MWAvgPoolingLayerImpl.obj
 0001:0000f030       ??$forward@AEBQEAU?$_List_node@U?$pair@$$CBHUmemory@dnnl@@@std@@PEAX@std@@@std@@YAAEBQEAU?$_List_node@U?$pair@$$CBHUmemory@dnnl@@@std@@PEAX@0@AEBQEAU10@@Z 0000000180010030 f i MWAvgPoolingLayerImpl.obj
 0001:0000f040       ??$forward@AEBU?$pair@$$CBHUmemory@dnnl@@@std@@@std@@YAAEBU?$pair@$$CBHUmemory@dnnl@@@0@AEBU10@@Z 0000000180010040 f i MWAvgPoolingLayerImpl.obj
 0001:0000f050       ??$forward@AEBUprimitive@dnnl@@@std@@YAAEBUprimitive@dnnl@@AEBU12@@Z 0000000180010050 f i MWAvgPoolingLayerImpl.obj
 0001:0000f060       ??$forward@AEBV?$_List_unchecked_iterator@V?$_List_val@U?$_List_simple_types@U?$pair@$$CBHUmemory@dnnl@@@std@@@std@@@std@@@std@@@std@@YAAEBV?$_List_unchecked_iterator@V?$_List_val@U?$_List_simple_types@U?$pair@$$CBHUmemory@dnnl@@@std@@@std@@@std@@@0@AEBV10@@Z 0000000180010060 f i MWAvgPoolingLayerImpl.obj
 0001:0000f070       ??$forward@AEBV?$allocator@U?$_List_node@U?$pair@$$CBHUmemory@dnnl@@@std@@PEAX@std@@@std@@@std@@YAAEBV?$allocator@U?$_List_node@U?$pair@$$CBHUmemory@dnnl@@@std@@PEAX@std@@@0@AEBV10@@Z 0000000180010070 f i MWAvgPoolingLayerImpl.obj
 0001:0000f080       ??$forward@AEBV?$allocator@U?$pair@$$CBHUmemory@dnnl@@@std@@@std@@@std@@YAAEBV?$allocator@U?$pair@$$CBHUmemory@dnnl@@@std@@@0@AEBV10@@Z 0000000180010080 f i MWAvgPoolingLayerImpl.obj
 0001:0000f090       ??$forward@AEBV?$allocator@W4query@dnnl@@@std@@@std@@YAAEBV?$allocator@W4query@dnnl@@@0@AEBV10@@Z 0000000180010090 f i MWAvgPoolingLayerImpl.obj
 0001:0000f0a0       ??$forward@AEBV?$allocator@_J@std@@@std@@YAAEBV?$allocator@_J@0@AEBV10@@Z 00000001800100a0 f i MWAvgPoolingLayerImpl.obj
 0001:0000f0b0       ??$forward@AEBW4query@dnnl@@@std@@YAAEBW4query@dnnl@@AEBW412@@Z 00000001800100b0 f i MWAvgPoolingLayerImpl.obj
 0001:0000f0c0       ??$forward@AEB_J@std@@YAAEB_JAEB_J@Z 00000001800100c0 f i MWAvgPoolingLayerImpl.obj
 0001:0000f0d0       ??$forward@H@std@@YA$$QEAHAEAH@Z 00000001800100d0 f i MWAvgPoolingLayerImpl.obj
 0001:0000f0e0       ??$forward@M@std@@YA$$QEAMAEAM@Z 00000001800100e0 f i MWAvgPoolingLayerImpl.obj
 0001:0000f0f0       ??$forward@P6A?AW4dnnl_status_t@@PEAUdnnl_memory@@@Z@std@@YA$$QEAP6A?AW4dnnl_status_t@@PEAUdnnl_memory@@@ZAEAP6A?AW41@0@Z@Z 00000001800100f0 f i MWAvgPoolingLayerImpl.obj
 0001:0000f100       ??$forward@P6A?AW4dnnl_status_t@@PEAUdnnl_primitive@@@Z@std@@YA$$QEAP6A?AW4dnnl_status_t@@PEAUdnnl_primitive@@@ZAEAP6A?AW41@0@Z@Z 0000000180010100 f i MWAvgPoolingLayerImpl.obj
 0001:0000f110       ??$forward@P6A?AW4dnnl_status_t@@PEAUdnnl_primitive_desc@@@Z@std@@YA$$QEAP6A?AW4dnnl_status_t@@PEAUdnnl_primitive_desc@@@ZAEAP6A?AW41@0@Z@Z 0000000180010110 f i MWAvgPoolingLayerImpl.obj
 0001:0000f120       ??$forward@P6A?AW4dnnl_status_t@@PEAUdnnl_primitive_desc_iterator@@@Z@std@@YA$$QEAP6A?AW4dnnl_status_t@@PEAUdnnl_primitive_desc_iterator@@@ZAEAP6A?AW41@0@Z@Z 0000000180010120 f i MWAvgPoolingLayerImpl.obj
 0001:0000f130       ??$forward@P6A?AW4dnnl_status_t@@PEAUdnnl_stream@@@Z@std@@YA$$QEAP6A?AW4dnnl_status_t@@PEAUdnnl_stream@@@ZAEAP6A?AW41@0@Z@Z 0000000180010130 f i MWAvgPoolingLayerImpl.obj
 0001:0000f140       ??$forward@U?$default_delete@Udesc@pooling_forward@dnnl@@@std@@@std@@YA$$QEAU?$default_delete@Udesc@pooling_forward@dnnl@@@0@AEAU10@@Z 0000000180010140 f i MWAvgPoolingLayerImpl.obj
 0001:0000f150       ??$forward@U?$default_delete@Upooling_forward@dnnl@@@std@@@std@@YA$$QEAU?$default_delete@Upooling_forward@dnnl@@@0@AEAU10@@Z 0000000180010150 f i MWAvgPoolingLayerImpl.obj
 0001:0000f160       ??$forward@U?$default_delete@Uprimitive_desc@pooling_forward@dnnl@@@std@@@std@@YA$$QEAU?$default_delete@Uprimitive_desc@pooling_forward@dnnl@@@0@AEAU10@@Z 0000000180010160 f i MWAvgPoolingLayerImpl.obj
 0001:0000f170       ??$forward@Udesc@memory@dnnl@@@std@@YA$$QEAUdesc@memory@dnnl@@AEAU123@@Z 0000000180010170 f i MWAvgPoolingLayerImpl.obj
 0001:0000f180       ??$forward@Udnnl_exec_arg_t@@@std@@YA$$QEAUdnnl_exec_arg_t@@AEAU1@@Z 0000000180010180 f i MWAvgPoolingLayerImpl.obj
 0001:0000f190       ??$forward@Uprimitive@dnnl@@@std@@YA$$QEAUprimitive@dnnl@@AEAU12@@Z 0000000180010190 f i MWAvgPoolingLayerImpl.obj
 0001:0000f1a0       ??$forward@V?$_List_iterator@V?$_List_val@U?$_List_simple_types@U?$pair@$$CBHUmemory@dnnl@@@std@@@std@@@std@@@std@@@std@@YA$$QEAV?$_List_iterator@V?$_List_val@U?$_List_simple_types@U?$pair@$$CBHUmemory@dnnl@@@std@@@std@@@std@@@0@AEAV10@@Z 00000001800101a0 f i MWAvgPoolingLayerImpl.obj
 0001:0000f1b0       ??$forward@V?$allocator@U?$_List_node@U?$pair@$$CBHUmemory@dnnl@@@std@@PEAX@std@@@std@@@std@@YA$$QEAV?$allocator@U?$_List_node@U?$pair@$$CBHUmemory@dnnl@@@std@@PEAX@std@@@0@AEAV10@@Z 00000001800101b0 f i MWAvgPoolingLayerImpl.obj
 0001:0000f1c0       ??$forward@V?$allocator@V?$_List_unchecked_iterator@V?$_List_val@U?$_List_simple_types@U?$pair@$$CBHUmemory@dnnl@@@std@@@std@@@std@@@std@@@std@@@std@@YA$$QEAV?$allocator@V?$_List_unchecked_iterator@V?$_List_val@U?$_List_simple_types@U?$pair@$$CBHUmemory@dnnl@@@std@@@std@@@std@@@std@@@0@AEAV10@@Z 00000001800101c0 f i MWAvgPoolingLayerImpl.obj
 0001:0000f1d0       ??$forward@V?$unordered_map@HUmemory@dnnl@@U?$hash@H@std@@U?$equal_to@H@4@V?$allocator@U?$pair@$$CBHUmemory@dnnl@@@std@@@4@@std@@@std@@YA$$QEAV?$unordered_map@HUmemory@dnnl@@U?$hash@H@std@@U?$equal_to@H@4@V?$allocator@U?$pair@$$CBHUmemory@dnnl@@@std@@@4@@0@AEAV10@@Z 00000001800101d0 f i MWAvgPoolingLayerImpl.obj
 0001:0000f1e0       ??$insert@PEBU?$pair@$$CBHUmemory@dnnl@@@std@@@?$_Hash@V?$_Umap_traits@HUmemory@dnnl@@V?$_Uhash_compare@HU?$hash@H@std@@U?$equal_to@H@2@@std@@V?$allocator@U?$pair@$$CBHUmemory@dnnl@@@std@@@4@$0A@@std@@@std@@QEAAXPEBU?$pair@$$CBHUmemory@dnnl@@@1@0@Z 00000001800101e0 f i MWAvgPoolingLayerImpl.obj
 0001:0000f260       ??$insert@V?$_List_unchecked_const_iterator@V?$_List_val@U?$_List_simple_types@U?$pair@$$CBHUmemory@dnnl@@@std@@@std@@@std@@U_Iterator_base0@2@@std@@@?$_Hash@V?$_Umap_traits@HUmemory@dnnl@@V?$_Uhash_compare@HU?$hash@H@std@@U?$equal_to@H@2@@std@@V?$allocator@U?$pair@$$CBHUmemory@dnnl@@@std@@@4@$0A@@std@@@std@@QEAAXV?$_List_unchecked_const_iterator@V?$_List_val@U?$_List_simple_types@U?$pair@$$CBHUmemory@dnnl@@@std@@@std@@@std@@U_Iterator_base0@2@@1@0@Z 0000000180010260 f i MWAvgPoolingLayerImpl.obj
 0001:0000f2f0       ??$make_shared@Umemory@dnnl@@Udesc@12@AEAUengine@2@@std@@YA?AV?$shared_ptr@Umemory@dnnl@@@0@$$QEAUdesc@memory@dnnl@@AEAUengine@4@@Z 00000001800102f0 f i MWAvgPoolingLayerImpl.obj
 0001:0000f3e0       ??$move@AEAP6A?AW4dnnl_status_t@@PEAUdnnl_memory@@@Z@std@@YA$$QEAP6A?AW4dnnl_status_t@@PEAUdnnl_memory@@@ZAEAP6A?AW41@0@Z@Z 00000001800103e0 f i MWAvgPoolingLayerImpl.obj
 0001:0000f3f0       ??$move@AEAP6A?AW4dnnl_status_t@@PEAUdnnl_primitive@@@Z@std@@YA$$QEAP6A?AW4dnnl_status_t@@PEAUdnnl_primitive@@@ZAEAP6A?AW41@0@Z@Z 00000001800103f0 f i MWAvgPoolingLayerImpl.obj
 0001:0000f400       ??$move@AEAP6A?AW4dnnl_status_t@@PEAUdnnl_primitive_desc@@@Z@std@@YA$$QEAP6A?AW4dnnl_status_t@@PEAUdnnl_primitive_desc@@@ZAEAP6A?AW41@0@Z@Z 0000000180010400 f i MWAvgPoolingLayerImpl.obj
 0001:0000f410       ??$move@AEAP6A?AW4dnnl_status_t@@PEAUdnnl_primitive_desc_iterator@@@Z@std@@YA$$QEAP6A?AW4dnnl_status_t@@PEAUdnnl_primitive_desc_iterator@@@ZAEAP6A?AW41@0@Z@Z 0000000180010410 f i MWAvgPoolingLayerImpl.obj
 0001:0000f420       ??$move@AEAP6A?AW4dnnl_status_t@@PEAUdnnl_stream@@@Z@std@@YA$$QEAP6A?AW4dnnl_status_t@@PEAUdnnl_stream@@@ZAEAP6A?AW41@0@Z@Z 0000000180010420 f i MWAvgPoolingLayerImpl.obj
 0001:0000f430       ??$move@AEAPEAU?$_List_node@U?$pair@$$CBHUmemory@dnnl@@@std@@PEAX@std@@@std@@YA$$QEAPEAU?$_List_node@U?$pair@$$CBHUmemory@dnnl@@@std@@PEAX@0@AEAPEAU10@@Z 0000000180010430 f i MWAvgPoolingLayerImpl.obj
 0001:0000f440       ??$move@AEAPEAUdnnl_memory@@@std@@YA$$QEAPEAUdnnl_memory@@AEAPEAU1@@Z 0000000180010440 f i MWAvgPoolingLayerImpl.obj
 0001:0000f450       ??$move@AEAPEAUdnnl_primitive@@@std@@YA$$QEAPEAUdnnl_primitive@@AEAPEAU1@@Z 0000000180010450 f i MWAvgPoolingLayerImpl.obj
 0001:0000f460       ??$move@AEAPEAUdnnl_primitive_desc@@@std@@YA$$QEAPEAUdnnl_primitive_desc@@AEAPEAU1@@Z 0000000180010460 f i MWAvgPoolingLayerImpl.obj
 0001:0000f470       ??$move@AEAPEAUdnnl_primitive_desc_iterator@@@std@@YA$$QEAPEAUdnnl_primitive_desc_iterator@@AEAPEAU1@@Z 0000000180010470 f i MWAvgPoolingLayerImpl.obj
 0001:0000f480       ??$move@AEAPEAUdnnl_stream@@@std@@YA$$QEAPEAUdnnl_stream@@AEAPEAU1@@Z 0000000180010480 f i MWAvgPoolingLayerImpl.obj
 0001:0000f490       ??$move@AEAPEAV?$_List_unchecked_iterator@V?$_List_val@U?$_List_simple_types@U?$pair@$$CBHUmemory@dnnl@@@std@@@std@@@std@@@std@@@std@@YA$$QEAPEAV?$_List_unchecked_iterator@V?$_List_val@U?$_List_simple_types@U?$pair@$$CBHUmemory@dnnl@@@std@@@std@@@std@@@0@AEAPEAV10@@Z 0000000180010490 f i MWAvgPoolingLayerImpl.obj
 0001:0000f4a0       ??$move@AEAPEAV_Ref_count_base@std@@@std@@YA$$QEAPEAV_Ref_count_base@0@AEAPEAV10@@Z 00000001800104a0 f i MWAvgPoolingLayerImpl.obj
 0001:0000f4b0       ??$move@AEAUdnnl_exec_arg_t@@@std@@YA$$QEAUdnnl_exec_arg_t@@AEAU1@@Z 00000001800104b0 f i MWAvgPoolingLayerImpl.obj
 0001:0000f4c0       ??$move@AEAUprimitive@dnnl@@@std@@YA$$QEAUprimitive@dnnl@@AEAU12@@Z 00000001800104c0 f i MWAvgPoolingLayerImpl.obj
 0001:0000f4d0       ??$move@AEAV?$allocator@U?$_List_node@U?$pair@$$CBHUmemory@dnnl@@@std@@PEAX@std@@@std@@@std@@YA$$QEAV?$allocator@U?$_List_node@U?$pair@$$CBHUmemory@dnnl@@@std@@PEAX@std@@@0@AEAV10@@Z 00000001800104d0 f i MWAvgPoolingLayerImpl.obj
 0001:0000f4e0       ??$move@AEAV?$allocator@V?$_List_unchecked_iterator@V?$_List_val@U?$_List_simple_types@U?$pair@$$CBHUmemory@dnnl@@@std@@@std@@@std@@@std@@@std@@@std@@YA$$QEAV?$allocator@V?$_List_unchecked_iterator@V?$_List_val@U?$_List_simple_types@U?$pair@$$CBHUmemory@dnnl@@@std@@@std@@@std@@@std@@@0@AEAV10@@Z 00000001800104e0 f i MWAvgPoolingLayerImpl.obj
 0001:0000f4f0       ??$move@AEAV?$shared_ptr@Udnnl_primitive@@@std@@@std@@YA$$QEAV?$shared_ptr@Udnnl_primitive@@@0@AEAV10@@Z 00000001800104f0 f i MWAvgPoolingLayerImpl.obj
 0001:0000f500       ??$move@AEAV?$shared_ptr@Umemory@dnnl@@@std@@@std@@YA$$QEAV?$shared_ptr@Umemory@dnnl@@@0@AEAV10@@Z 0000000180010500 f i MWAvgPoolingLayerImpl.obj
 0001:0000f510       ??$move@AEAV?$unordered_map@HUmemory@dnnl@@U?$hash@H@std@@U?$equal_to@H@4@V?$allocator@U?$pair@$$CBHUmemory@dnnl@@@std@@@4@@std@@@std@@YA$$QEAV?$unordered_map@HUmemory@dnnl@@U?$hash@H@std@@U?$equal_to@H@4@V?$allocator@U?$pair@$$CBHUmemory@dnnl@@@std@@@4@@0@AEAV10@@Z 0000000180010510 f i MWAvgPoolingLayerImpl.obj
 0001:0000f520       ??$move@AEA_K@std@@YA$$QEA_KAEA_K@Z 0000000180010520 f i MWAvgPoolingLayerImpl.obj
 0001:0000f530       ??$reset@Udnnl_memory@@P6A?AW4dnnl_status_t@@PEAU1@@Z@?$shared_ptr@Udnnl_memory@@@std@@QEAAXPEAUdnnl_memory@@P6A?AW4dnnl_status_t@@0@Z@Z 0000000180010530 f i MWAvgPoolingLayerImpl.obj
 0001:0000f580       ??$reset@Udnnl_primitive@@P6A?AW4dnnl_status_t@@PEAU1@@Z@?$shared_ptr@Udnnl_primitive@@@std@@QEAAXPEAUdnnl_primitive@@P6A?AW4dnnl_status_t@@0@Z@Z 0000000180010580 f i MWAvgPoolingLayerImpl.obj
 0001:0000f5d0       ??$reset@Udnnl_primitive_desc@@P6A?AW4dnnl_status_t@@PEAU1@@Z@?$shared_ptr@Udnnl_primitive_desc@@@std@@QEAAXPEAUdnnl_primitive_desc@@P6A?AW4dnnl_status_t@@0@Z@Z 00000001800105d0 f i MWAvgPoolingLayerImpl.obj
 0001:0000f620       ??$reset@Udnnl_primitive_desc_iterator@@P6A?AW4dnnl_status_t@@PEAU1@@Z@?$shared_ptr@Udnnl_primitive_desc_iterator@@@std@@QEAAXPEAUdnnl_primitive_desc_iterator@@P6A?AW4dnnl_status_t@@0@Z@Z 0000000180010620 f i MWAvgPoolingLayerImpl.obj
 0001:0000f670       ??$reset@Udnnl_stream@@P6A?AW4dnnl_status_t@@PEAU1@@Z@?$shared_ptr@Udnnl_stream@@@std@@QEAAXPEAUdnnl_stream@@P6A?AW4dnnl_status_t@@0@Z@Z 0000000180010670 f i MWAvgPoolingLayerImpl.obj
 0001:0000f6c0       ??$swap@PEAU?$_List_node@U?$pair@$$CBHUmemory@dnnl@@@std@@PEAX@std@@$0A@@std@@YAXAEAPEAU?$_List_node@U?$pair@$$CBHUmemory@dnnl@@@std@@PEAX@0@0@Z 00000001800106c0 f i MWAvgPoolingLayerImpl.obj
 0001:0000f710       ??$swap@PEAUdnnl_memory@@$0A@@std@@YAXAEAPEAUdnnl_memory@@0@Z 0000000180010710 f i MWAvgPoolingLayerImpl.obj
 0001:0000f760       ??$swap@PEAUdnnl_primitive@@$0A@@std@@YAXAEAPEAUdnnl_primitive@@0@Z 0000000180010760 f i MWAvgPoolingLayerImpl.obj
 0001:0000f7b0       ??$swap@PEAUdnnl_primitive_desc@@$0A@@std@@YAXAEAPEAUdnnl_primitive_desc@@0@Z 00000001800107b0 f i MWAvgPoolingLayerImpl.obj
 0001:0000f800       ??$swap@PEAUdnnl_primitive_desc_iterator@@$0A@@std@@YAXAEAPEAUdnnl_primitive_desc_iterator@@0@Z 0000000180010800 f i MWAvgPoolingLayerImpl.obj
 0001:0000f850       ??$swap@PEAUdnnl_stream@@$0A@@std@@YAXAEAPEAUdnnl_stream@@0@Z 0000000180010850 f i MWAvgPoolingLayerImpl.obj
 0001:0000f8a0       ??$swap@PEAV?$_List_unchecked_iterator@V?$_List_val@U?$_List_simple_types@U?$pair@$$CBHUmemory@dnnl@@@std@@@std@@@std@@@std@@$0A@@std@@YAXAEAPEAV?$_List_unchecked_iterator@V?$_List_val@U?$_List_simple_types@U?$pair@$$CBHUmemory@dnnl@@@std@@@std@@@std@@@0@0@Z 00000001800108a0 f i MWAvgPoolingLayerImpl.obj
 0001:0000f8f0       ??$swap@PEAV_Ref_count_base@std@@$0A@@std@@YAXAEAPEAV_Ref_count_base@0@0@Z 00000001800108f0 f i MWAvgPoolingLayerImpl.obj
 0001:0000f940       ??$swap@_K$0A@@std@@YAXAEA_K0@Z 0000000180010940 f i MWAvgPoolingLayerImpl.obj
 0001:0000f990       ??$uninitialized_fill@PEAV?$_List_unchecked_iterator@V?$_List_val@U?$_List_simple_types@U?$pair@$$CBHUmemory@dnnl@@@std@@@std@@@std@@@std@@V12@@std@@YAXQEAV?$_List_unchecked_iterator@V?$_List_val@U?$_List_simple_types@U?$pair@$$CBHUmemory@dnnl@@@std@@@std@@@std@@@0@0AEBV10@@Z 0000000180010990 f i MWAvgPoolingLayerImpl.obj
 0001:0000fa20       ??$validate_container_size@V?$vector@_JV?$allocator@_J@std@@@std@@@dnnl@@YAXAEBV?$vector@_JV?$allocator@_J@std@@@std@@PEBDHH@Z 0000000180010a20 f i MWAvgPoolingLayerImpl.obj
 0001:0000fa90       ??$validate_dims@_J@memory@dnnl@@SAXAEBV?$vector@_JV?$allocator@_J@std@@@std@@H@Z 0000000180010a90 f i MWAvgPoolingLayerImpl.obj
 0001:0000fac0       ??0<lambda_2cb6fb12134205e5edb8ba066169e3a4>@@QEAA@AEBW4query@dnnl@@@Z 0000000180010ac0 f i MWAvgPoolingLayerImpl.obj
 0001:0000fae0       ??0?$_Alloc_construct_ptr@V?$allocator@U?$_List_node@U?$pair@$$CBHUmemory@dnnl@@@std@@PEAX@std@@@std@@@std@@QEAA@AEAV?$allocator@U?$_List_node@U?$pair@$$CBHUmemory@dnnl@@@std@@PEAX@std@@@1@@Z 0000000180010ae0 f i MWAvgPoolingLayerImpl.obj
 0001:0000fb10       ??0?$_Hash@V?$_Umap_traits@HUmemory@dnnl@@V?$_Uhash_compare@HU?$hash@H@std@@U?$equal_to@H@2@@std@@V?$allocator@U?$pair@$$CBHUmemory@dnnl@@@std@@@4@$0A@@std@@@std@@IEAA@$$QEAV01@@Z 0000000180010b10 f i MWAvgPoolingLayerImpl.obj
 0001:0000fc30       ??0?$_Hash@V?$_Umap_traits@HUmemory@dnnl@@V?$_Uhash_compare@HU?$hash@H@std@@U?$equal_to@H@2@@std@@V?$allocator@U?$pair@$$CBHUmemory@dnnl@@@std@@@4@$0A@@std@@@std@@IEAA@AEBV?$_Uhash_compare@HU?$hash@H@std@@U?$equal_to@H@2@@1@AEBV?$allocator@U?$pair@$$CBHUmemory@dnnl@@@std@@@1@@Z 0000000180010c30 f i MWAvgPoolingLayerImpl.obj
 0001:0000fcf0       ??0?$_List_const_iterator@V?$_List_val@U?$_List_simple_types@U?$pair@$$CBHUmemory@dnnl@@@std@@@std@@@std@@@std@@QEAA@PEAU?$_List_node@U?$pair@$$CBHUmemory@dnnl@@@std@@PEAX@1@PEBV?$_List_val@U?$_List_simple_types@U?$pair@$$CBHUmemory@dnnl@@@std@@@std@@@1@@Z 0000000180010cf0 f i MWAvgPoolingLayerImpl.obj
 0001:0000fd30       ??0?$_List_iterator@V?$_List_val@U?$_List_simple_types@U?$pair@$$CBHUmemory@dnnl@@@std@@@std@@@std@@@std@@QEAA@PEAU?$_List_node@U?$pair@$$CBHUmemory@dnnl@@@std@@PEAX@1@PEBV?$_List_val@U?$_List_simple_types@U?$pair@$$CBHUmemory@dnnl@@@std@@@std@@@1@@Z 0000000180010d30 f i MWAvgPoolingLayerImpl.obj
 0001:0000fd70       ??0?$_List_unchecked_const_iterator@V?$_List_val@U?$_List_simple_types@U?$pair@$$CBHUmemory@dnnl@@@std@@@std@@@std@@U_Iterator_base0@2@@std@@QEAA@PEAU?$_List_node@U?$pair@$$CBHUmemory@dnnl@@@std@@PEAX@1@PEBV?$_List_val@U?$_List_simple_types@U?$pair@$$CBHUmemory@dnnl@@@std@@@std@@@1@@Z 0000000180010d70 f i MWAvgPoolingLayerImpl.obj
 0001:0000fdb0       ??0?$_List_unchecked_iterator@V?$_List_val@U?$_List_simple_types@U?$pair@$$CBHUmemory@dnnl@@@std@@@std@@@std@@@std@@QEAA@PEAU?$_List_node@U?$pair@$$CBHUmemory@dnnl@@@std@@PEAX@1@PEBV?$_List_val@U?$_List_simple_types@U?$pair@$$CBHUmemory@dnnl@@@std@@@std@@@1@@Z 0000000180010db0 f i MWAvgPoolingLayerImpl.obj
 0001:0000fdf0       ??0?$_List_val@U?$_List_simple_types@U?$pair@$$CBHUmemory@dnnl@@@std@@@std@@@std@@QEAA@XZ 0000000180010df0 f i MWAvgPoolingLayerImpl.obj
 0001:0000fe20       ??0?$_Ptr_base@Udnnl_memory@@@std@@IEAA@XZ 0000000180010e20 f i MWAvgPoolingLayerImpl.obj
 0001:0000fe50       ??0?$_Ptr_base@Udnnl_primitive@@@std@@IEAA@XZ 0000000180010e50 f i MWAvgPoolingLayerImpl.obj
 0001:0000fe80       ??0?$_Ptr_base@Udnnl_primitive_desc@@@std@@IEAA@XZ 0000000180010e80 f i MWAvgPoolingLayerImpl.obj
 0001:0000feb0       ??0?$_Ptr_base@Udnnl_primitive_desc_iterator@@@std@@IEAA@XZ 0000000180010eb0 f i MWAvgPoolingLayerImpl.obj
 0001:0000fee0       ??0?$_Ptr_base@Udnnl_stream@@@std@@IEAA@XZ 0000000180010ee0 f i MWAvgPoolingLayerImpl.obj
 0001:0000ff10       ??0?$_Ptr_base@Udnnl_stream_attr@@@std@@IEAA@XZ 0000000180010f10 f i MWAvgPoolingLayerImpl.obj
 0001:0000ff40       ??0?$_Ptr_base@Umemory@dnnl@@@std@@IEAA@XZ 0000000180010f40 f i MWAvgPoolingLayerImpl.obj
 0001:0000ff70       ??0?$_Ref_count_resource@PEAUdnnl_memory@@P6A?AW4dnnl_status_t@@PEAU1@@Z@std@@QEAA@PEAUdnnl_memory@@P6A?AW4dnnl_status_t@@0@Z@Z 0000000180010f70 f i MWAvgPoolingLayerImpl.obj
 0001:0000ffe0       ??0?$_Ref_count_resource@PEAUdnnl_primitive@@P6A?AW4dnnl_status_t@@PEAU1@@Z@std@@QEAA@PEAUdnnl_primitive@@P6A?AW4dnnl_status_t@@0@Z@Z 0000000180010fe0 f i MWAvgPoolingLayerImpl.obj
 0001:00010050       ??0?$_Ref_count_resource@PEAUdnnl_primitive_desc@@P6A?AW4dnnl_status_t@@PEAU1@@Z@std@@QEAA@PEAUdnnl_primitive_desc@@P6A?AW4dnnl_status_t@@0@Z@Z 0000000180011050 f i MWAvgPoolingLayerImpl.obj
 0001:000100c0       ??0?$_Ref_count_resource@PEAUdnnl_primitive_desc_iterator@@P6A?AW4dnnl_status_t@@PEAU1@@Z@std@@QEAA@PEAUdnnl_primitive_desc_iterator@@P6A?AW4dnnl_status_t@@0@Z@Z 00000001800110c0 f i MWAvgPoolingLayerImpl.obj
 0001:00010130       ??0?$_Ref_count_resource@PEAUdnnl_stream@@P6A?AW4dnnl_status_t@@PEAU1@@Z@std@@QEAA@PEAUdnnl_stream@@P6A?AW4dnnl_status_t@@0@Z@Z 0000000180011130 f i MWAvgPoolingLayerImpl.obj
 0001:000101a0       ??0?$_Temporary_owner_del@PEAUdnnl_memory@@P6A?AW4dnnl_status_t@@PEAU1@@Z@std@@QEAA@QEAUdnnl_memory@@AEAP6A?AW4dnnl_status_t@@PEAU2@@Z@Z 00000001800111a0 f i MWAvgPoolingLayerImpl.obj
 0001:000101e0       ??0?$_Temporary_owner_del@PEAUdnnl_primitive@@P6A?AW4dnnl_status_t@@PEAU1@@Z@std@@QEAA@QEAUdnnl_primitive@@AEAP6A?AW4dnnl_status_t@@PEAU2@@Z@Z 00000001800111e0 f i MWAvgPoolingLayerImpl.obj
 0001:00010220       ??0?$_Temporary_owner_del@PEAUdnnl_primitive_desc@@P6A?AW4dnnl_status_t@@PEAU1@@Z@std@@QEAA@QEAUdnnl_primitive_desc@@AEAP6A?AW4dnnl_status_t@@PEAU2@@Z@Z 0000000180011220 f i MWAvgPoolingLayerImpl.obj
 0001:00010260       ??0?$_Temporary_owner_del@PEAUdnnl_primitive_desc_iterator@@P6A?AW4dnnl_status_t@@PEAU1@@Z@std@@QEAA@QEAUdnnl_primitive_desc_iterator@@AEAP6A?AW4dnnl_status_t@@PEAU2@@Z@Z 0000000180011260 f i MWAvgPoolingLayerImpl.obj
 0001:000102a0       ??0?$_Temporary_owner_del@PEAUdnnl_stream@@P6A?AW4dnnl_status_t@@PEAU1@@Z@std@@QEAA@QEAUdnnl_stream@@AEAP6A?AW4dnnl_status_t@@PEAU2@@Z@Z 00000001800112a0 f i MWAvgPoolingLayerImpl.obj
 0001:000102e0       ??0?$_Uhash_compare@HU?$hash@H@std@@U?$equal_to@H@2@@std@@QEAA@XZ 00000001800112e0 f i MWAvgPoolingLayerImpl.obj
 0001:00010320       ??0?$_Umap_traits@HUmemory@dnnl@@V?$_Uhash_compare@HU?$hash@H@std@@U?$equal_to@H@2@@std@@V?$allocator@U?$pair@$$CBHUmemory@dnnl@@@std@@@4@$0A@@std@@QEAA@AEBV?$_Uhash_compare@HU?$hash@H@std@@U?$equal_to@H@2@@1@@Z 0000000180011320 f i MWAvgPoolingLayerImpl.obj
 0001:00010340       ??0?$_Uninitialized_backout@PEAV?$_List_unchecked_iterator@V?$_List_val@U?$_List_simple_types@U?$pair@$$CBHUmemory@dnnl@@@std@@@std@@@std@@@std@@@std@@QEAA@PEAV?$_List_unchecked_iterator@V?$_List_val@U?$_List_simple_types@U?$pair@$$CBHUmemory@dnnl@@@std@@@std@@@std@@@1@@Z 0000000180011340 f i MWAvgPoolingLayerImpl.obj
 0001:00010370       ??0?$_Uninitialized_backout_al@V?$allocator@Udnnl_exec_arg_t@@@std@@@std@@QEAA@PEAUdnnl_exec_arg_t@@AEAV?$allocator@Udnnl_exec_arg_t@@@1@@Z 0000000180011370 f i MWAvgPoolingLayerImpl.obj
 0001:000103b0       ??0?$_Uninitialized_backout_al@V?$allocator@Uprimitive@dnnl@@@std@@@std@@QEAA@PEAUprimitive@dnnl@@AEAV?$allocator@Uprimitive@dnnl@@@1@@Z 00000001800113b0 f i MWAvgPoolingLayerImpl.obj
 0001:000103f0       ??0?$_Uninitialized_backout_al@V?$allocator@V?$unordered_map@HUmemory@dnnl@@U?$hash@H@std@@U?$equal_to@H@4@V?$allocator@U?$pair@$$CBHUmemory@dnnl@@@std@@@4@@std@@@std@@@std@@QEAA@PEAV?$unordered_map@HUmemory@dnnl@@U?$hash@H@std@@U?$equal_to@H@4@V?$allocator@U?$pair@$$CBHUmemory@dnnl@@@std@@@4@@1@AEAV?$allocator@V?$unordered_map@HUmemory@dnnl@@U?$hash@H@std@@U?$equal_to@H@4@V?$allocator@U?$pair@$$CBHUmemory@dnnl@@@std@@@4@@std@@@1@@Z 00000001800113f0 f i MWAvgPoolingLayerImpl.obj
 0001:00010430       ??0?$_Uninitialized_backout_al@V?$allocator@W4query@dnnl@@@std@@@std@@QEAA@PEAW4query@dnnl@@AEAV?$allocator@W4query@dnnl@@@1@@Z 0000000180011430 f i MWAvgPoolingLayerImpl.obj
 0001:00010470       ??0?$_Uninitialized_backout_al@V?$allocator@_J@std@@@std@@QEAA@PEA_JAEAV?$allocator@_J@1@@Z 0000000180011470 f i MWAvgPoolingLayerImpl.obj
 0001:000104b0       ??0?$_Vector_const_iterator@V?$_Vector_val@U?$_Simple_types@W4query@dnnl@@@std@@@std@@@std@@QEAA@PEAW4query@dnnl@@PEBU_Container_base0@1@@Z 00000001800114b0 f i MWAvgPoolingLayerImpl.obj
 0001:000104f0       ??0?$_Vector_val@U?$_Simple_types@Udnnl_exec_arg_t@@@std@@@std@@QEAA@XZ 00000001800114f0 f i MWAvgPoolingLayerImpl.obj
 0001:00010530       ??0?$_Vector_val@U?$_Simple_types@V?$_List_unchecked_iterator@V?$_List_val@U?$_List_simple_types@U?$pair@$$CBHUmemory@dnnl@@@std@@@std@@@std@@@std@@@std@@@std@@QEAA@XZ 0000000180011530 f i MWAvgPoolingLayerImpl.obj
 0001:00010570       ??0?$_Vector_val@U?$_Simple_types@W4query@dnnl@@@std@@@std@@QEAA@XZ 0000000180011570 f i MWAvgPoolingLayerImpl.obj
 0001:000105b0       ??0?$_Vector_val@U?$_Simple_types@_J@std@@@std@@QEAA@XZ 00000001800115b0 f i MWAvgPoolingLayerImpl.obj
 0001:000105f0       ??0?$allocator@U?$pair@$$CBHUmemory@dnnl@@@std@@@std@@QEAA@XZ 00000001800115f0 f i MWAvgPoolingLayerImpl.obj
 0001:00010600       ??0?$allocator@Udnnl_exec_arg_t@@@std@@QEAA@XZ 0000000180011600 f i MWAvgPoolingLayerImpl.obj
 0001:00010610       ??0?$allocator@W4query@dnnl@@@std@@QEAA@XZ 0000000180011610 f i MWAvgPoolingLayerImpl.obj
 0001:00010620       ??0?$allocator@_J@std@@QEAA@XZ 0000000180011620 f i MWAvgPoolingLayerImpl.obj
 0001:00010630       ??0?$handle@PEAUdnnl_memory@@U?$handle_traits@PEAUdnnl_memory@@@dnnl@@@dnnl@@QEAA@AEBU01@@Z 0000000180011630 f i MWAvgPoolingLayerImpl.obj
 0001:00010660       ??0?$handle@PEAUdnnl_memory@@U?$handle_traits@PEAUdnnl_memory@@@dnnl@@@dnnl@@QEAA@XZ 0000000180011660 f i MWAvgPoolingLayerImpl.obj
 0001:00010690       ??0?$handle@PEAUdnnl_primitive@@U?$handle_traits@PEAUdnnl_primitive@@@dnnl@@@dnnl@@QEAA@$$QEAU01@@Z 0000000180011690 f i MWAvgPoolingLayerImpl.obj
 0001:000106c0       ??0?$handle@PEAUdnnl_primitive@@U?$handle_traits@PEAUdnnl_primitive@@@dnnl@@@dnnl@@QEAA@AEBU01@@Z 00000001800116c0 f i MWAvgPoolingLayerImpl.obj
 0001:000106f0       ??0?$handle@PEAUdnnl_primitive@@U?$handle_traits@PEAUdnnl_primitive@@@dnnl@@@dnnl@@QEAA@XZ 00000001800116f0 f i MWAvgPoolingLayerImpl.obj
 0001:00010720       ??0?$handle@PEAUdnnl_primitive_desc@@U?$handle_traits@PEAUdnnl_primitive_desc@@@dnnl@@@dnnl@@QEAA@XZ 0000000180011720 f i MWAvgPoolingLayerImpl.obj
 0001:00010750       ??0?$handle@PEAUdnnl_primitive_desc_iterator@@U?$handle_traits@PEAUdnnl_primitive_desc_iterator@@@dnnl@@@dnnl@@QEAA@XZ 0000000180011750 f i MWAvgPoolingLayerImpl.obj
 0001:00010780       ??0?$handle@PEAUdnnl_stream@@U?$handle_traits@PEAUdnnl_stream@@@dnnl@@@dnnl@@QEAA@XZ 0000000180011780 f i MWAvgPoolingLayerImpl.obj
 0001:000107b0       ??0?$handle@PEAUdnnl_stream_attr@@U?$handle_traits@PEAUdnnl_stream_attr@@@dnnl@@@dnnl@@QEAA@XZ 00000001800117b0 f i MWAvgPoolingLayerImpl.obj
 0001:000107e0       ??0?$initializer_list@U?$pair@$$CBHUmemory@dnnl@@@std@@@std@@QEAA@PEBU?$pair@$$CBHUmemory@dnnl@@@1@0@Z 00000001800117e0 f i MWAvgPoolingLayerImpl.obj
 0001:00010810       ??0?$initializer_list@W4query@dnnl@@@std@@QEAA@PEBW4query@dnnl@@0@Z 0000000180011810 f i MWAvgPoolingLayerImpl.obj
 0001:00010840       ??0?$initializer_list@_J@std@@QEAA@PEB_J0@Z 0000000180011840 f i MWAvgPoolingLayerImpl.obj
 0001:00010870       ??0?$list@U?$pair@$$CBHUmemory@dnnl@@@std@@V?$allocator@U?$pair@$$CBHUmemory@dnnl@@@std@@@2@@std@@QEAA@AEBV?$allocator@U?$pair@$$CBHUmemory@dnnl@@@std@@@1@@Z 0000000180011870 f i MWAvgPoolingLayerImpl.obj
 0001:000108b0       ??0?$pair@$$CBHUmemory@dnnl@@@std@@QEAA@AEBU01@@Z 00000001800118b0 f i MWAvgPoolingLayerImpl.obj
 0001:000108f0       ??0?$shared_ptr@Udnnl_memory@@@std@@QEAA@$$T@Z 00000001800118f0 f i MWAvgPoolingLayerImpl.obj
 0001:00010920       ??0?$shared_ptr@Udnnl_memory@@@std@@QEAA@AEBV01@@Z 0000000180011920 f i MWAvgPoolingLayerImpl.obj
 0001:00010960       ??0?$shared_ptr@Udnnl_primitive@@@std@@QEAA@$$QEAV01@@Z 0000000180011960 f i MWAvgPoolingLayerImpl.obj
 0001:000109a0       ??0?$shared_ptr@Udnnl_primitive@@@std@@QEAA@$$T@Z 00000001800119a0 f i MWAvgPoolingLayerImpl.obj
 0001:000109d0       ??0?$shared_ptr@Udnnl_primitive@@@std@@QEAA@AEBV01@@Z 00000001800119d0 f i MWAvgPoolingLayerImpl.obj
 0001:00010a10       ??0?$shared_ptr@Udnnl_primitive_desc@@@std@@QEAA@$$T@Z 0000000180011a10 f i MWAvgPoolingLayerImpl.obj
 0001:00010a40       ??0?$shared_ptr@Udnnl_primitive_desc_iterator@@@std@@QEAA@$$T@Z 0000000180011a40 f i MWAvgPoolingLayerImpl.obj
 0001:00010a70       ??0?$shared_ptr@Udnnl_stream@@@std@@QEAA@$$T@Z 0000000180011a70 f i MWAvgPoolingLayerImpl.obj
 0001:00010aa0       ??0?$shared_ptr@Udnnl_stream_attr@@@std@@QEAA@$$T@Z 0000000180011aa0 f i MWAvgPoolingLayerImpl.obj
 0001:00010ad0       ??0?$shared_ptr@Umemory@dnnl@@@std@@QEAA@$$QEAV01@@Z 0000000180011ad0 f i MWAvgPoolingLayerImpl.obj
 0001:00010b10       ??0?$shared_ptr@Umemory@dnnl@@@std@@QEAA@XZ 0000000180011b10 f i MWAvgPoolingLayerImpl.obj
 0001:00010b30       ??0?$unordered_map@HUmemory@dnnl@@U?$hash@H@std@@U?$equal_to@H@4@V?$allocator@U?$pair@$$CBHUmemory@dnnl@@@std@@@4@@std@@QEAA@$$QEAV01@@Z 0000000180011b30 f i MWAvgPoolingLayerImpl.obj
 0001:00010b60       ??0?$unordered_map@HUmemory@dnnl@@U?$hash@H@std@@U?$equal_to@H@4@V?$allocator@U?$pair@$$CBHUmemory@dnnl@@@std@@@4@@std@@QEAA@AEBV01@@Z 0000000180011b60 f i MWAvgPoolingLayerImpl.obj
 0001:00010bb0       ??0?$unordered_map@HUmemory@dnnl@@U?$hash@H@std@@U?$equal_to@H@4@V?$allocator@U?$pair@$$CBHUmemory@dnnl@@@std@@@4@@std@@QEAA@V?$initializer_list@U?$pair@$$CBHUmemory@dnnl@@@std@@@1@@Z 0000000180011bb0 f i MWAvgPoolingLayerImpl.obj
 0001:00010c20       ??0?$vector@Udnnl_exec_arg_t@@V?$allocator@Udnnl_exec_arg_t@@@std@@@std@@QEAA@XZ 0000000180011c20 f i MWAvgPoolingLayerImpl.obj
 0001:00010c60       ??0?$vector@W4query@dnnl@@V?$allocator@W4query@dnnl@@@std@@@std@@QEAA@V?$initializer_list@W4query@dnnl@@@1@AEBV?$allocator@W4query@dnnl@@@1@@Z 0000000180011c60 f i MWAvgPoolingLayerImpl.obj
 0001:00010d00       ??0?$vector@_JV?$allocator@_J@std@@@std@@QEAA@V?$initializer_list@_J@1@AEBV?$allocator@_J@1@@Z 0000000180011d00 f i MWAvgPoolingLayerImpl.obj
 0001:00010da0       ??0_Clear_guard@?$_Hash@V?$_Umap_traits@HUmemory@dnnl@@V?$_Uhash_compare@HU?$hash@H@std@@U?$equal_to@H@2@@std@@V?$allocator@U?$pair@$$CBHUmemory@dnnl@@@std@@@4@$0A@@std@@@std@@QEAA@QEAV12@@Z 0000000180011da0 f i MWAvgPoolingLayerImpl.obj
 0001:00010dc0       ??0_Range_eraser@?$_Hash@V?$_Umap_traits@HUmemory@dnnl@@V?$_Uhash_compare@HU?$hash@H@std@@U?$equal_to@H@2@@std@@V?$allocator@U?$pair@$$CBHUmemory@dnnl@@@std@@@4@$0A@@std@@@std@@QEAA@AEAV?$list@U?$pair@$$CBHUmemory@dnnl@@@std@@V?$allocator@U?$pair@$$CBHUmemory@dnnl@@@std@@@2@@2@QEAU?$_List_node@U?$pair@$$CBHUmemory@dnnl@@@std@@PEAX@2@@Z 0000000180011dc0 f i MWAvgPoolingLayerImpl.obj
 0001:00010e10       ??0_Ref_count_base@std@@IEAA@XZ 0000000180011e10 f i MWAvgPoolingLayerImpl.obj
 0001:00010e40       ??0desc@memory@dnnl@@QEAA@AEBUdnnl_memory_desc_t@@@Z 0000000180011e40 f i MWAvgPoolingLayerImpl.obj
 0001:00010e70       ??0desc@memory@dnnl@@QEAA@AEBV?$vector@_JV?$allocator@_J@std@@@std@@W4data_type@12@W4format_tag@12@_N@Z 0000000180011e70 f i MWAvgPoolingLayerImpl.obj
 0001:00010f30       ??0desc@memory@dnnl@@QEAA@XZ 0000000180011f30 f i MWAvgPoolingLayerImpl.obj
 0001:00010f50       ??0desc@pooling_forward@dnnl@@QEAA@W4prop_kind@2@W4algorithm@2@AEBU0memory@2@2AEBV?$vector@_JV?$allocator@_J@std@@@std@@333@Z 0000000180011f50 f i MWAvgPoolingLayerImpl.obj
 0001:000110e0       ??0error@dnnl@@QEAA@AEBU01@@Z 00000001800120e0 f i MWAvgPoolingLayerImpl.obj
 0001:00011140       ??0error@dnnl@@QEAA@W4dnnl_status_t@@PEBD@Z 0000000180012140 f i MWAvgPoolingLayerImpl.obj
 0001:00011190       ??0exception@std@@QEAA@XZ  0000000180012190 f i MWAvgPoolingLayerImpl.obj
 0001:000111d0       ??0memory@dnnl@@QEAA@AEBU01@@Z 00000001800121d0 f i MWAvgPoolingLayerImpl.obj
 0001:00011200       ??0memory@dnnl@@QEAA@AEBUdesc@01@AEBUengine@1@@Z 0000000180012200 f i MWAvgPoolingLayerImpl.obj
 0001:00011240       ??0memory@dnnl@@QEAA@AEBUdesc@01@AEBUengine@1@PEAX@Z 0000000180012240 f i MWAvgPoolingLayerImpl.obj
 0001:000112c0       ??0pooling_forward@dnnl@@QEAA@AEBUprimitive_desc@01@@Z 00000001800122c0 f i MWAvgPoolingLayerImpl.obj
 0001:000112f0       ??0primitive@dnnl@@QEAA@$$QEAU01@@Z 00000001800122f0 f i MWAvgPoolingLayerImpl.obj
 0001:00011320       ??0primitive@dnnl@@QEAA@AEBU01@@Z 0000000180012320 f i MWAvgPoolingLayerImpl.obj
 0001:00011350       ??0primitive@dnnl@@QEAA@AEBUprimitive_desc@1@@Z 0000000180012350 f i MWAvgPoolingLayerImpl.obj
 0001:00011390       ??0primitive@dnnl@@QEAA@PEBUdnnl_primitive_desc@@@Z 0000000180012390 f i MWAvgPoolingLayerImpl.obj
 0001:000113f0       ??0primitive_desc@dnnl@@QEAA@PEBXPEBUprimitive_attr@1@AEBUengine@1@PEBUdnnl_primitive_desc@@_N@Z 00000001800123f0 f i MWAvgPoolingLayerImpl.obj
 0001:000114e0       ??0primitive_desc@pooling_forward@dnnl@@QEAA@AEBUdesc@12@AEBUengine@2@_N@Z 00000001800124e0 f i MWAvgPoolingLayerImpl.obj
 0001:00011530       ??0primitive_desc_base@dnnl@@QEAA@XZ 0000000180012530 f i MWAvgPoolingLayerImpl.obj
 0001:00011550       ??0stream@dnnl@@QEAA@AEBUengine@1@W4flags@01@AEBUstream_attr@1@@Z 0000000180012550 f i MWAvgPoolingLayerImpl.obj
 0001:000115e0       ??0stream_attr@dnnl@@QEAA@XZ 00000001800125e0 f i MWAvgPoolingLayerImpl.obj
 0001:00011600       ??1?$_Alloc_construct_ptr@V?$allocator@U?$_List_node@U?$pair@$$CBHUmemory@dnnl@@@std@@PEAX@std@@@std@@@std@@QEAA@XZ 0000000180012600 f i MWAvgPoolingLayerImpl.obj
 0001:00011640       ??1?$_Hash@V?$_Umap_traits@HUmemory@dnnl@@V?$_Uhash_compare@HU?$hash@H@std@@U?$equal_to@H@2@@std@@V?$allocator@U?$pair@$$CBHUmemory@dnnl@@@std@@@4@$0A@@std@@@std@@QEAA@XZ 0000000180012640 f i MWAvgPoolingLayerImpl.obj
 0001:00011670       ??1?$_Hash_vec@V?$allocator@V?$_List_unchecked_iterator@V?$_List_val@U?$_List_simple_types@U?$pair@$$CBHUmemory@dnnl@@@std@@@std@@@std@@@std@@@std@@@std@@QEAA@XZ 0000000180012670 f i MWAvgPoolingLayerImpl.obj
 0001:00011690       ??1?$_List_node_emplace_op2@V?$allocator@U?$_List_node@U?$pair@$$CBHUmemory@dnnl@@@std@@PEAX@std@@@std@@@std@@QEAA@XZ 0000000180012690 f i MWAvgPoolingLayerImpl.obj
 0001:000116e0       ??1?$_Ref_count_obj2@Umemory@dnnl@@@std@@UEAA@XZ 00000001800126e0 f i MWAvgPoolingLayerImpl.obj
 0001:00011710       ??1?$_Ref_count_resource@PEAUdnnl_memory@@P6A?AW4dnnl_status_t@@PEAU1@@Z@std@@UEAA@XZ 0000000180012710 f i MWAvgPoolingLayerImpl.obj
 0001:00011730       ??1?$_Ref_count_resource@PEAUdnnl_primitive@@P6A?AW4dnnl_status_t@@PEAU1@@Z@std@@UEAA@XZ 0000000180012730 f i MWAvgPoolingLayerImpl.obj
 0001:00011750       ??1?$_Ref_count_resource@PEAUdnnl_primitive_desc@@P6A?AW4dnnl_status_t@@PEAU1@@Z@std@@UEAA@XZ 0000000180012750 f i MWAvgPoolingLayerImpl.obj
 0001:00011770       ??1?$_Ref_count_resource@PEAUdnnl_primitive_desc_iterator@@P6A?AW4dnnl_status_t@@PEAU1@@Z@std@@UEAA@XZ 0000000180012770 f i MWAvgPoolingLayerImpl.obj
 0001:00011790       ??1?$_Ref_count_resource@PEAUdnnl_stream@@P6A?AW4dnnl_status_t@@PEAU1@@Z@std@@UEAA@XZ 0000000180012790 f i MWAvgPoolingLayerImpl.obj
 0001:000117b0       ??1?$_Temporary_owner_del@PEAUdnnl_memory@@P6A?AW4dnnl_status_t@@PEAU1@@Z@std@@QEAA@XZ 00000001800127b0 f i MWAvgPoolingLayerImpl.obj
 0001:000117e0       ??1?$_Temporary_owner_del@PEAUdnnl_primitive@@P6A?AW4dnnl_status_t@@PEAU1@@Z@std@@QEAA@XZ 00000001800127e0 f i MWAvgPoolingLayerImpl.obj
 0001:00011810       ??1?$_Temporary_owner_del@PEAUdnnl_primitive_desc@@P6A?AW4dnnl_status_t@@PEAU1@@Z@std@@QEAA@XZ 0000000180012810 f i MWAvgPoolingLayerImpl.obj
 0001:00011840       ??1?$_Temporary_owner_del@PEAUdnnl_primitive_desc_iterator@@P6A?AW4dnnl_status_t@@PEAU1@@Z@std@@QEAA@XZ 0000000180012840 f i MWAvgPoolingLayerImpl.obj
 0001:00011870       ??1?$_Temporary_owner_del@PEAUdnnl_stream@@P6A?AW4dnnl_status_t@@PEAU1@@Z@std@@QEAA@XZ 0000000180012870 f i MWAvgPoolingLayerImpl.obj
 0001:000118a0       ??1?$_Tidy_guard@V?$vector@W4query@dnnl@@V?$allocator@W4query@dnnl@@@std@@@std@@@std@@QEAA@XZ 00000001800128a0 f i MWAvgPoolingLayerImpl.obj
 0001:000118d0       ??1?$_Tidy_guard@V?$vector@_JV?$allocator@_J@std@@@std@@@std@@QEAA@XZ 00000001800128d0 f i MWAvgPoolingLayerImpl.obj
 0001:00011900       ??1?$_Tree@V?$_Tmap_traits@HV?$shared_ptr@Umemory@dnnl@@@std@@U?$less@H@2@V?$allocator@U?$pair@$$CBHV?$shared_ptr@Umemory@dnnl@@@std@@@std@@@2@$0A@@std@@@std@@QEAA@XZ 0000000180012900 f i MWAvgPoolingLayerImpl.obj
 0001:00011940       ??1?$_Tree@V?$_Tmap_traits@HV?$shared_ptr@Ureorder@dnnl@@@std@@U?$less@H@2@V?$allocator@U?$pair@$$CBHV?$shared_ptr@Ureorder@dnnl@@@std@@@std@@@2@$0A@@std@@@std@@QEAA@XZ 0000000180012940 f i MWAvgPoolingLayerImpl.obj
 0001:00011980       ??1?$_Uninitialized_backout@PEAV?$_List_unchecked_iterator@V?$_List_val@U?$_List_simple_types@U?$pair@$$CBHUmemory@dnnl@@@std@@@std@@@std@@@std@@@std@@QEAA@XZ 0000000180012980 f i MWAvgPoolingLayerImpl.obj
 0001:000119b0       ??1?$_Uninitialized_backout_al@V?$allocator@Udnnl_exec_arg_t@@@std@@@std@@QEAA@XZ 00000001800129b0 f i MWAvgPoolingLayerImpl.obj
 0001:000119e0       ??1?$_Uninitialized_backout_al@V?$allocator@Uprimitive@dnnl@@@std@@@std@@QEAA@XZ 00000001800129e0 f i MWAvgPoolingLayerImpl.obj
 0001:00011a10       ??1?$_Uninitialized_backout_al@V?$allocator@V?$unordered_map@HUmemory@dnnl@@U?$hash@H@std@@U?$equal_to@H@4@V?$allocator@U?$pair@$$CBHUmemory@dnnl@@@std@@@4@@std@@@std@@@std@@QEAA@XZ 0000000180012a10 f i MWAvgPoolingLayerImpl.obj
 0001:00011a40       ??1?$_Uninitialized_backout_al@V?$allocator@W4query@dnnl@@@std@@@std@@QEAA@XZ 0000000180012a40 f i MWAvgPoolingLayerImpl.obj
 0001:00011a70       ??1?$_Uninitialized_backout_al@V?$allocator@_J@std@@@std@@QEAA@XZ 0000000180012a70 f i MWAvgPoolingLayerImpl.obj
 0001:00011aa0       ??1?$handle@PEAUdnnl_memory@@U?$handle_traits@PEAUdnnl_memory@@@dnnl@@@dnnl@@QEAA@XZ 0000000180012aa0 f i MWAvgPoolingLayerImpl.obj
 0001:00011ac0       ??1?$handle@PEAUdnnl_primitive@@U?$handle_traits@PEAUdnnl_primitive@@@dnnl@@@dnnl@@QEAA@XZ 0000000180012ac0 f i MWAvgPoolingLayerImpl.obj
 0001:00011ae0       ??1?$handle@PEAUdnnl_primitive_desc@@U?$handle_traits@PEAUdnnl_primitive_desc@@@dnnl@@@dnnl@@QEAA@XZ 0000000180012ae0 f i MWAvgPoolingLayerImpl.obj
 0001:00011b00       ??1?$handle@PEAUdnnl_primitive_desc_iterator@@U?$handle_traits@PEAUdnnl_primitive_desc_iterator@@@dnnl@@@dnnl@@QEAA@XZ 0000000180012b00 f i MWAvgPoolingLayerImpl.obj
 0001:00011b20       ??1?$handle@PEAUdnnl_stream@@U?$handle_traits@PEAUdnnl_stream@@@dnnl@@@dnnl@@QEAA@XZ 0000000180012b20 f i MWAvgPoolingLayerImpl.obj
 0001:00011b40       ??1?$handle@PEAUdnnl_stream_attr@@U?$handle_traits@PEAUdnnl_stream_attr@@@dnnl@@@dnnl@@QEAA@XZ 0000000180012b40 f i MWAvgPoolingLayerImpl.obj
 0001:00011b60       ??1?$list@U?$pair@$$CBHUmemory@dnnl@@@std@@V?$allocator@U?$pair@$$CBHUmemory@dnnl@@@std@@@2@@std@@QEAA@XZ 0000000180012b60 f i MWAvgPoolingLayerImpl.obj
 0001:00011b80       ??1?$map@HV?$shared_ptr@Umemory@dnnl@@@std@@U?$less@H@2@V?$allocator@U?$pair@$$CBHV?$shared_ptr@Umemory@dnnl@@@std@@@std@@@2@@std@@QEAA@XZ 0000000180012b80 f i MWAvgPoolingLayerImpl.obj
 0001:00011ba0       ??1?$map@HV?$shared_ptr@Ureorder@dnnl@@@std@@U?$less@H@2@V?$allocator@U?$pair@$$CBHV?$shared_ptr@Ureorder@dnnl@@@std@@@std@@@2@@std@@QEAA@XZ 0000000180012ba0 f i MWAvgPoolingLayerImpl.obj
 0001:00011bc0       ??1?$pair@$$CBHUmemory@dnnl@@@std@@QEAA@XZ 0000000180012bc0 f i MWAvgPoolingLayerImpl.obj
 0001:00011be0       ??1?$pair@$$CBHV?$shared_ptr@Umemory@dnnl@@@std@@@std@@QEAA@XZ 0000000180012be0 f i MWAvgPoolingLayerImpl.obj
 0001:00011c00       ??1?$pair@$$CBHV?$shared_ptr@Ureorder@dnnl@@@std@@@std@@QEAA@XZ 0000000180012c00 f i MWAvgPoolingLayerImpl.obj
 0001:00011c20       ??1?$shared_ptr@Udnnl_memory@@@std@@QEAA@XZ 0000000180012c20 f i MWAvgPoolingLayerImpl.obj
 0001:00011c40       ??1?$shared_ptr@Udnnl_primitive@@@std@@QEAA@XZ 0000000180012c40 f i MWAvgPoolingLayerImpl.obj
 0001:00011c60       ??1?$shared_ptr@Udnnl_primitive_desc@@@std@@QEAA@XZ 0000000180012c60 f i MWAvgPoolingLayerImpl.obj
 0001:00011c80       ??1?$shared_ptr@Udnnl_primitive_desc_iterator@@@std@@QEAA@XZ 0000000180012c80 f i MWAvgPoolingLayerImpl.obj
 0001:00011ca0       ??1?$shared_ptr@Udnnl_stream@@@std@@QEAA@XZ 0000000180012ca0 f i MWAvgPoolingLayerImpl.obj
 0001:00011cc0       ??1?$shared_ptr@Udnnl_stream_attr@@@std@@QEAA@XZ 0000000180012cc0 f i MWAvgPoolingLayerImpl.obj
 0001:00011ce0       ??1?$shared_ptr@Umemory@dnnl@@@std@@QEAA@XZ 0000000180012ce0 f i MWAvgPoolingLayerImpl.obj
 0001:00011d00       ??1?$shared_ptr@Ureorder@dnnl@@@std@@QEAA@XZ 0000000180012d00 f i MWAvgPoolingLayerImpl.obj
 0001:00011d20       ??1?$unique_ptr@Udesc@pooling_forward@dnnl@@U?$default_delete@Udesc@pooling_forward@dnnl@@@std@@@std@@QEAA@XZ 0000000180012d20 f i MWAvgPoolingLayerImpl.obj
 0001:00011d60       ??1?$unique_ptr@Upooling_forward@dnnl@@U?$default_delete@Upooling_forward@dnnl@@@std@@@std@@QEAA@XZ 0000000180012d60 f i MWAvgPoolingLayerImpl.obj
 0001:00011da0       ??1?$unique_ptr@Uprimitive@dnnl@@U?$default_delete@Uprimitive@dnnl@@@std@@@std@@QEAA@XZ 0000000180012da0 f i MWAvgPoolingLayerImpl.obj
 0001:00011de0       ??1?$unique_ptr@Uprimitive_desc@pooling_forward@dnnl@@U?$default_delete@Uprimitive_desc@pooling_forward@dnnl@@@std@@@std@@QEAA@XZ 0000000180012de0 f i MWAvgPoolingLayerImpl.obj
 0001:00011e20       ??1?$unordered_map@HUmemory@dnnl@@U?$hash@H@std@@U?$equal_to@H@4@V?$allocator@U?$pair@$$CBHUmemory@dnnl@@@std@@@4@@std@@QEAA@XZ 0000000180012e20 f i MWAvgPoolingLayerImpl.obj
 0001:00011e40       ??1?$vector@Udnnl_exec_arg_t@@V?$allocator@Udnnl_exec_arg_t@@@std@@@std@@QEAA@XZ 0000000180012e40 f i MWAvgPoolingLayerImpl.obj
 0001:00011e60       ??1?$vector@Uprimitive@dnnl@@V?$allocator@Uprimitive@dnnl@@@std@@@std@@QEAA@XZ 0000000180012e60 f i MWAvgPoolingLayerImpl.obj
 0001:00011e80       ??1?$vector@V?$unordered_map@HUmemory@dnnl@@U?$hash@H@std@@U?$equal_to@H@4@V?$allocator@U?$pair@$$CBHUmemory@dnnl@@@std@@@4@@std@@V?$allocator@V?$unordered_map@HUmemory@dnnl@@U?$hash@H@std@@U?$equal_to@H@4@V?$allocator@U?$pair@$$CBHUmemory@dnnl@@@std@@@4@@std@@@2@@std@@QEAA@XZ 0000000180012e80 f i MWAvgPoolingLayerImpl.obj
 0001:00011ea0       ??1?$vector@W4query@dnnl@@V?$allocator@W4query@dnnl@@@std@@@std@@QEAA@XZ 0000000180012ea0 f i MWAvgPoolingLayerImpl.obj
 0001:00011ec0       ??1?$vector@_JV?$allocator@_J@std@@@std@@QEAA@XZ 0000000180012ec0 f i MWAvgPoolingLayerImpl.obj
 0001:00011ee0       ??1MWCNNLayerImpl@@UEAA@XZ 0000000180012ee0 f i MWAvgPoolingLayerImpl.obj
 0001:00011f80       ??1_Clear_guard@?$_Hash@V?$_Umap_traits@HUmemory@dnnl@@V?$_Uhash_compare@HU?$hash@H@std@@U?$equal_to@H@2@@std@@V?$allocator@U?$pair@$$CBHUmemory@dnnl@@@std@@@4@$0A@@std@@@std@@QEAA@XZ 0000000180012f80 f i MWAvgPoolingLayerImpl.obj
 0001:00011fb0       ??1_Range_eraser@?$_Hash@V?$_Umap_traits@HUmemory@dnnl@@V?$_Uhash_compare@HU?$hash@H@std@@U?$equal_to@H@2@@std@@V?$allocator@U?$pair@$$CBHUmemory@dnnl@@@std@@@4@$0A@@std@@@std@@QEAA@XZ 0000000180012fb0 f i MWAvgPoolingLayerImpl.obj
 0001:00011ff0       ??1_Ref_count_base@std@@UEAA@XZ 0000000180012ff0 f i MWAvgPoolingLayerImpl.obj
 0001:00012000       ??1error@dnnl@@UEAA@XZ     0000000180013000 f i MWAvgPoolingLayerImpl.obj
 0001:00012020       ??1memory@dnnl@@QEAA@XZ    0000000180013020 f i MWAvgPoolingLayerImpl.obj
 0001:00012040       ??1pooling_forward@dnnl@@QEAA@XZ 0000000180013040 f i MWAvgPoolingLayerImpl.obj
 0001:00012060       ??1primitive@dnnl@@QEAA@XZ 0000000180013060 f i MWAvgPoolingLayerImpl.obj
 0001:00012080       ??1primitive_desc@dnnl@@QEAA@XZ 0000000180013080 f i MWAvgPoolingLayerImpl.obj
 0001:000120b0       ??1primitive_desc@pooling_forward@dnnl@@QEAA@XZ 00000001800130b0 f i MWAvgPoolingLayerImpl.obj
 0001:000120d0       ??1primitive_desc_base@dnnl@@QEAA@XZ 00000001800130d0 f i MWAvgPoolingLayerImpl.obj
 0001:000120f0       ??1stream@dnnl@@QEAA@XZ    00000001800130f0 f i MWAvgPoolingLayerImpl.obj
 0001:00012110       ??1stream_attr@dnnl@@QEAA@XZ 0000000180013110 f i MWAvgPoolingLayerImpl.obj
 0001:00012130       ??8?$_List_unchecked_const_iterator@V?$_List_val@U?$_List_simple_types@U?$pair@$$CBHUmemory@dnnl@@@std@@@std@@@std@@U_Iterator_base0@2@@std@@QEBA_NAEBV01@@Z 0000000180013130 f i MWAvgPoolingLayerImpl.obj
 0001:00012170       ??8type_info@@QEBA_NAEBV0@@Z 0000000180013170 f i MWAvgPoolingLayerImpl.obj
 0001:000121c0       ??9?$_List_unchecked_const_iterator@V?$_List_val@U?$_List_simple_types@U?$pair@$$CBHUmemory@dnnl@@@std@@@std@@@std@@U_Iterator_base0@2@@std@@QEBA_NAEBV01@@Z 00000001800131c0 f i MWAvgPoolingLayerImpl.obj
 0001:00012200       ??A?$vector@Uprimitive@dnnl@@V?$allocator@Uprimitive@dnnl@@@std@@@std@@QEAAAEAUprimitive@dnnl@@_K@Z 0000000180013200 f i MWAvgPoolingLayerImpl.obj
 0001:00012230       ??A?$vector@V?$unordered_map@HUmemory@dnnl@@U?$hash@H@std@@U?$equal_to@H@4@V?$allocator@U?$pair@$$CBHUmemory@dnnl@@@std@@@4@@std@@V?$allocator@V?$unordered_map@HUmemory@dnnl@@U?$hash@H@std@@U?$equal_to@H@4@V?$allocator@U?$pair@$$CBHUmemory@dnnl@@@std@@@4@@std@@@2@@std@@QEAAAEAV?$unordered_map@HUmemory@dnnl@@U?$hash@H@std@@U?$equal_to@H@4@V?$allocator@U?$pair@$$CBHUmemory@dnnl@@@std@@@4@@1@_K@Z 0000000180013230 f i MWAvgPoolingLayerImpl.obj
 0001:00012260       ??A?$vector@_JV?$allocator@_J@std@@@std@@QEBAAEB_J_K@Z 0000000180013260 f i MWAvgPoolingLayerImpl.obj
 0001:00012290       ??C?$unique_ptr@Uprimitive_desc@pooling_forward@dnnl@@U?$default_delete@Uprimitive_desc@pooling_forward@dnnl@@@std@@@std@@QEBAPEAUprimitive_desc@pooling_forward@dnnl@@XZ 0000000180013290 f i MWAvgPoolingLayerImpl.obj
 0001:000122a0       ??D?$_List_unchecked_const_iterator@V?$_List_val@U?$_List_simple_types@U?$pair@$$CBHUmemory@dnnl@@@std@@@std@@@std@@U_Iterator_base0@2@@std@@QEBAAEBU?$pair@$$CBHUmemory@dnnl@@@1@XZ 00000001800132a0 f i MWAvgPoolingLayerImpl.obj
 0001:000122c0       ??D?$_List_unchecked_iterator@V?$_List_val@U?$_List_simple_types@U?$pair@$$CBHUmemory@dnnl@@@std@@@std@@@std@@@std@@QEBAAEAU?$pair@$$CBHUmemory@dnnl@@@1@XZ 00000001800132c0 f i MWAvgPoolingLayerImpl.obj
 0001:000122e0       ??D?$unique_ptr@Udesc@pooling_forward@dnnl@@U?$default_delete@Udesc@pooling_forward@dnnl@@@std@@@std@@QEBAAEAUdesc@pooling_forward@dnnl@@XZ 00000001800132e0 f i MWAvgPoolingLayerImpl.obj
 0001:000122f0       ??D?$unique_ptr@Uengine@dnnl@@U?$default_delete@Uengine@dnnl@@@std@@@std@@QEBAAEAUengine@dnnl@@XZ 00000001800132f0 f i MWAvgPoolingLayerImpl.obj
 0001:00012300       ??D?$unique_ptr@Uprimitive@dnnl@@U?$default_delete@Uprimitive@dnnl@@@std@@@std@@QEBAAEAUprimitive@dnnl@@XZ 0000000180013300 f i MWAvgPoolingLayerImpl.obj
 0001:00012310       ??D?$unique_ptr@Uprimitive_desc@pooling_forward@dnnl@@U?$default_delete@Uprimitive_desc@pooling_forward@dnnl@@@std@@@std@@QEBAAEAUprimitive_desc@pooling_forward@dnnl@@XZ 0000000180013310 f i MWAvgPoolingLayerImpl.obj
 0001:00012320       ??E?$_List_unchecked_const_iterator@V?$_List_val@U?$_List_simple_types@U?$pair@$$CBHUmemory@dnnl@@@std@@@std@@@std@@U_Iterator_base0@2@@std@@QEAAAEAV01@XZ 0000000180013320 f i MWAvgPoolingLayerImpl.obj
 0001:00012340       ??E?$_List_unchecked_iterator@V?$_List_val@U?$_List_simple_types@U?$pair@$$CBHUmemory@dnnl@@@std@@@std@@@std@@@std@@QEAAAEAV01@XZ 0000000180013340 f i MWAvgPoolingLayerImpl.obj
 0001:00012360       ??F?$_List_unchecked_const_iterator@V?$_List_val@U?$_List_simple_types@U?$pair@$$CBHUmemory@dnnl@@@std@@@std@@@std@@U_Iterator_base0@2@@std@@QEAAAEAV01@XZ 0000000180013360 f i MWAvgPoolingLayerImpl.obj
 0001:00012380       ??R<lambda_2cb6fb12134205e5edb8ba066169e3a4>@@QEBA@W4query@dnnl@@@Z 0000000180013380 f i MWAvgPoolingLayerImpl.obj
 0001:000123c0       ??R?$_Conditionally_enabled_hash@H$00@std@@QEBA_KAEBH@Z 00000001800133c0 f i MWAvgPoolingLayerImpl.obj
 0001:000123e0       ??R?$default_delete@Udesc@pooling_forward@dnnl@@@std@@QEBAXPEAUdesc@pooling_forward@dnnl@@@Z 00000001800133e0 f i MWAvgPoolingLayerImpl.obj
 0001:00012410       ??R?$default_delete@Upooling_forward@dnnl@@@std@@QEBAXPEAUpooling_forward@dnnl@@@Z 0000000180013410 f i MWAvgPoolingLayerImpl.obj
 0001:00012460       ??R?$default_delete@Uprimitive@dnnl@@@std@@QEBAXPEAUprimitive@dnnl@@@Z 0000000180013460 f i MWAvgPoolingLayerImpl.obj
 0001:000124b0       ??R?$default_delete@Uprimitive_desc@pooling_forward@dnnl@@@std@@QEBAXPEAUprimitive_desc@pooling_forward@dnnl@@@Z 00000001800134b0 f i MWAvgPoolingLayerImpl.obj
 0001:00012500       ??R?$equal_to@H@std@@QEBA_NAEBH0@Z 0000000180013500 f i MWAvgPoolingLayerImpl.obj
 0001:00012540       ??_G?$_Ref_count_obj2@Umemory@dnnl@@@std@@UEAAPEAXI@Z 0000000180013540 f i MWAvgPoolingLayerImpl.obj
 0001:00012540       ??_E?$_Ref_count_obj2@Umemory@dnnl@@@std@@UEAAPEAXI@Z 0000000180013540 f i MWAvgPoolingLayerImpl.obj
 0001:00012580       ??_E?$_Ref_count_resource@PEAUdnnl_memory@@P6A?AW4dnnl_status_t@@PEAU1@@Z@std@@UEAAPEAXI@Z 0000000180013580 f i MWAvgPoolingLayerImpl.obj
 0001:00012580       ??_G?$_Ref_count_resource@PEAUdnnl_memory@@P6A?AW4dnnl_status_t@@PEAU1@@Z@std@@UEAAPEAXI@Z 0000000180013580 f i MWAvgPoolingLayerImpl.obj
 0001:000125c0       ??_G?$_Ref_count_resource@PEAUdnnl_primitive@@P6A?AW4dnnl_status_t@@PEAU1@@Z@std@@UEAAPEAXI@Z 00000001800135c0 f i MWAvgPoolingLayerImpl.obj
 0001:000125c0       ??_E?$_Ref_count_resource@PEAUdnnl_primitive@@P6A?AW4dnnl_status_t@@PEAU1@@Z@std@@UEAAPEAXI@Z 00000001800135c0 f i MWAvgPoolingLayerImpl.obj
 0001:00012600       ??_E?$_Ref_count_resource@PEAUdnnl_primitive_desc@@P6A?AW4dnnl_status_t@@PEAU1@@Z@std@@UEAAPEAXI@Z 0000000180013600 f i MWAvgPoolingLayerImpl.obj
 0001:00012600       ??_G?$_Ref_count_resource@PEAUdnnl_primitive_desc@@P6A?AW4dnnl_status_t@@PEAU1@@Z@std@@UEAAPEAXI@Z 0000000180013600 f i MWAvgPoolingLayerImpl.obj
 0001:00012640       ??_G?$_Ref_count_resource@PEAUdnnl_primitive_desc_iterator@@P6A?AW4dnnl_status_t@@PEAU1@@Z@std@@UEAAPEAXI@Z 0000000180013640 f i MWAvgPoolingLayerImpl.obj
 0001:00012640       ??_E?$_Ref_count_resource@PEAUdnnl_primitive_desc_iterator@@P6A?AW4dnnl_status_t@@PEAU1@@Z@std@@UEAAPEAXI@Z 0000000180013640 f i MWAvgPoolingLayerImpl.obj
 0001:00012680       ??_E?$_Ref_count_resource@PEAUdnnl_stream@@P6A?AW4dnnl_status_t@@PEAU1@@Z@std@@UEAAPEAXI@Z 0000000180013680 f i MWAvgPoolingLayerImpl.obj
 0001:00012680       ??_G?$_Ref_count_resource@PEAUdnnl_stream@@P6A?AW4dnnl_status_t@@PEAU1@@Z@std@@UEAAPEAXI@Z 0000000180013680 f i MWAvgPoolingLayerImpl.obj
 0001:000126c0       ??_G?$pair@$$CBHUmemory@dnnl@@@std@@QEAAPEAXI@Z 00000001800136c0 f i MWAvgPoolingLayerImpl.obj
 0001:00012700       ??_G?$pair@$$CBHV?$shared_ptr@Umemory@dnnl@@@std@@@std@@QEAAPEAXI@Z 0000000180013700 f i MWAvgPoolingLayerImpl.obj
 0001:00012740       ??_G?$pair@$$CBHV?$shared_ptr@Ureorder@dnnl@@@std@@@std@@QEAAPEAXI@Z 0000000180013740 f i MWAvgPoolingLayerImpl.obj
 0001:00012780       ??_G?$unordered_map@HUmemory@dnnl@@U?$hash@H@std@@U?$equal_to@H@4@V?$allocator@U?$pair@$$CBHUmemory@dnnl@@@std@@@4@@std@@QEAAPEAXI@Z 0000000180013780 f i MWAvgPoolingLayerImpl.obj
 0001:000127c0       ??_GMWAvgPoolingLayerImpl@@UEAAPEAXI@Z 00000001800137c0 f i MWAvgPoolingLayerImpl.obj
 0001:000127c0       ??_EMWAvgPoolingLayerImpl@@UEAAPEAXI@Z 00000001800137c0 f i MWAvgPoolingLayerImpl.obj
 0001:00012800       ??_GMWCNNLayerImpl@@UEAAPEAXI@Z 0000000180013800 f i MWAvgPoolingLayerImpl.obj
 0001:00012800       ??_EMWCNNLayerImpl@@UEAAPEAXI@Z 0000000180013800 f i MWAvgPoolingLayerImpl.obj
 0001:00012840       ??_Eerror@dnnl@@UEAAPEAXI@Z 0000000180013840 f i MWAvgPoolingLayerImpl.obj
 0001:00012840       ??_Gerror@dnnl@@UEAAPEAXI@Z 0000000180013840 f i MWAvgPoolingLayerImpl.obj
 0001:00012880       ??_Gmemory@dnnl@@QEAAPEAXI@Z 0000000180013880 f i MWAvgPoolingLayerImpl.obj
 0001:000128c0       ??_Gpooling_forward@dnnl@@QEAAPEAXI@Z 00000001800138c0 f i MWAvgPoolingLayerImpl.obj
 0001:00012900       ??_Gprimitive@dnnl@@QEAAPEAXI@Z 0000000180013900 f i MWAvgPoolingLayerImpl.obj
 0001:00012940       ??_Gprimitive_desc@pooling_forward@dnnl@@QEAAPEAXI@Z 0000000180013940 f i MWAvgPoolingLayerImpl.obj
 0001:00012980       ?_Alloc_sentinel_and_proxy@?$list@U?$pair@$$CBHUmemory@dnnl@@@std@@V?$allocator@U?$pair@$$CBHUmemory@dnnl@@@std@@@2@@std@@AEAAXXZ 0000000180013980 f i MWAvgPoolingLayerImpl.obj
 0001:00012a20       ?_Allocate@?$_Alloc_construct_ptr@V?$allocator@U?$_List_node@U?$pair@$$CBHUmemory@dnnl@@@std@@PEAX@std@@@std@@@std@@QEAAXXZ 0000000180013a20 f i MWAvgPoolingLayerImpl.obj
 0001:00012a60       ?_Assign_grow@?$_Hash_vec@V?$allocator@V?$_List_unchecked_iterator@V?$_List_val@U?$_List_simple_types@U?$pair@$$CBHUmemory@dnnl@@@std@@@std@@@std@@@std@@@std@@@std@@QEAAX_KV?$_List_unchecked_iterator@V?$_List_val@U?$_List_simple_types@U?$pair@$$CBHUmemory@dnnl@@@std@@@std@@@std@@@2@@Z 0000000180013a60 f i MWAvgPoolingLayerImpl.obj
 0001:00012b60       ?_Bump_erased@_Range_eraser@?$_Hash@V?$_Umap_traits@HUmemory@dnnl@@V?$_Uhash_compare@HU?$hash@H@std@@U?$equal_to@H@2@@std@@V?$allocator@U?$pair@$$CBHUmemory@dnnl@@@std@@@4@$0A@@std@@@std@@QEAAXXZ 0000000180013b60 f i MWAvgPoolingLayerImpl.obj
 0001:00012bd0       ?_Buy_nonzero@?$vector@W4query@dnnl@@V?$allocator@W4query@dnnl@@@std@@@std@@AEAAX_K@Z 0000000180013bd0 f i MWAvgPoolingLayerImpl.obj
 0001:00012c10       ?_Buy_nonzero@?$vector@_JV?$allocator@_J@std@@@std@@AEAAX_K@Z 0000000180013c10 f i MWAvgPoolingLayerImpl.obj
 0001:00012c50       ?_Buy_raw@?$vector@W4query@dnnl@@V?$allocator@W4query@dnnl@@@std@@@std@@AEAAX_K@Z 0000000180013c50 f i MWAvgPoolingLayerImpl.obj
 0001:00012ce0       ?_Buy_raw@?$vector@_JV?$allocator@_J@std@@@std@@AEAAX_K@Z 0000000180013ce0 f i MWAvgPoolingLayerImpl.obj
 0001:00012d70       ?_Calculate_growth@?$vector@Udnnl_exec_arg_t@@V?$allocator@Udnnl_exec_arg_t@@@std@@@std@@AEBA_K_K@Z 0000000180013d70 f i MWAvgPoolingLayerImpl.obj
 0001:00012e00       ?_Calculate_growth@?$vector@Uprimitive@dnnl@@V?$allocator@Uprimitive@dnnl@@@std@@@std@@AEBA_K_K@Z 0000000180013e00 f i MWAvgPoolingLayerImpl.obj
 0001:00012e90       ?_Calculate_growth@?$vector@V?$unordered_map@HUmemory@dnnl@@U?$hash@H@std@@U?$equal_to@H@4@V?$allocator@U?$pair@$$CBHUmemory@dnnl@@@std@@@4@@std@@V?$allocator@V?$unordered_map@HUmemory@dnnl@@U?$hash@H@std@@U?$equal_to@H@4@V?$allocator@U?$pair@$$CBHUmemory@dnnl@@@std@@@4@@std@@@2@@std@@AEBA_K_K@Z 0000000180013e90 f i MWAvgPoolingLayerImpl.obj
 0001:00012f20       ?_Ceiling_of_log_2@std@@YAK_K@Z 0000000180013f20 f i MWAvgPoolingLayerImpl.obj
 0001:00012f40       ?_Change_array@?$vector@Udnnl_exec_arg_t@@V?$allocator@Udnnl_exec_arg_t@@@std@@@std@@AEAAXQEAUdnnl_exec_arg_t@@_K1@Z 0000000180013f40 f i MWAvgPoolingLayerImpl.obj
 0001:00013040       ?_Change_array@?$vector@Uprimitive@dnnl@@V?$allocator@Uprimitive@dnnl@@@std@@@std@@AEAAXQEAUprimitive@dnnl@@_K1@Z 0000000180014040 f i MWAvgPoolingLayerImpl.obj
 0001:00013140       ?_Change_array@?$vector@V?$unordered_map@HUmemory@dnnl@@U?$hash@H@std@@U?$equal_to@H@4@V?$allocator@U?$pair@$$CBHUmemory@dnnl@@@std@@@4@@std@@V?$allocator@V?$unordered_map@HUmemory@dnnl@@U?$hash@H@std@@U?$equal_to@H@4@V?$allocator@U?$pair@$$CBHUmemory@dnnl@@@std@@@4@@std@@@2@@std@@AEAAXQEAV?$unordered_map@HUmemory@dnnl@@U?$hash@H@std@@U?$equal_to@H@4@V?$allocator@U?$pair@$$CBHUmemory@dnnl@@@std@@@4@@2@_K1@Z 0000000180014140 f i MWAvgPoolingLayerImpl.obj
 0001:00013240       ?_Check_max_size@?$_Hash@V?$_Umap_traits@HUmemory@dnnl@@V?$_Uhash_compare@HU?$hash@H@std@@U?$equal_to@H@2@@std@@V?$allocator@U?$pair@$$CBHUmemory@dnnl@@@std@@@4@$0A@@std@@@std@@IEBAXXZ 0000000180014240 f i MWAvgPoolingLayerImpl.obj
 0001:00013280       ?_Check_rehash_required_1@?$_Hash@V?$_Umap_traits@HUmemory@dnnl@@V?$_Uhash_compare@HU?$hash@H@std@@U?$equal_to@H@2@@std@@V?$allocator@U?$pair@$$CBHUmemory@dnnl@@@std@@@4@$0A@@std@@@std@@IEBA_NXZ 0000000180014280 f i MWAvgPoolingLayerImpl.obj
 0001:00013350       ?_Decref@?$_Ptr_base@Udnnl_memory@@@std@@IEAAXXZ 0000000180014350 f i MWAvgPoolingLayerImpl.obj
 0001:00013380       ?_Decref@?$_Ptr_base@Udnnl_primitive@@@std@@IEAAXXZ 0000000180014380 f i MWAvgPoolingLayerImpl.obj
 0001:000133b0       ?_Decref@?$_Ptr_base@Udnnl_primitive_desc@@@std@@IEAAXXZ 00000001800143b0 f i MWAvgPoolingLayerImpl.obj
 0001:000133e0       ?_Decref@?$_Ptr_base@Udnnl_primitive_desc_iterator@@@std@@IEAAXXZ 00000001800143e0 f i MWAvgPoolingLayerImpl.obj
 0001:00013410       ?_Decref@?$_Ptr_base@Udnnl_stream@@@std@@IEAAXXZ 0000000180014410 f i MWAvgPoolingLayerImpl.obj
 0001:00013440       ?_Decref@?$_Ptr_base@Udnnl_stream_attr@@@std@@IEAAXXZ 0000000180014440 f i MWAvgPoolingLayerImpl.obj
 0001:00013470       ?_Decref@?$_Ptr_base@Umemory@dnnl@@@std@@IEAAXXZ 0000000180014470 f i MWAvgPoolingLayerImpl.obj
 0001:000134a0       ?_Decref@?$_Ptr_base@Ureorder@dnnl@@@std@@IEAAXXZ 00000001800144a0 f i MWAvgPoolingLayerImpl.obj
 0001:000134d0       ?_Decref@_Ref_count_base@std@@QEAAXXZ 00000001800144d0 f i MWAvgPoolingLayerImpl.obj
 0001:00013520       ?_Decwref@_Ref_count_base@std@@QEAAXXZ 0000000180014520 f i MWAvgPoolingLayerImpl.obj
 0001:00013560       ?_Delete_this@?$_Ref_count_obj2@Umemory@dnnl@@@std@@EEAAXXZ 0000000180014560 f i MWAvgPoolingLayerImpl.obj
 0001:000135b0       ?_Delete_this@?$_Ref_count_resource@PEAUdnnl_memory@@P6A?AW4dnnl_status_t@@PEAU1@@Z@std@@EEAAXXZ 00000001800145b0 f i MWAvgPoolingLayerImpl.obj
 0001:00013600       ?_Delete_this@?$_Ref_count_resource@PEAUdnnl_primitive@@P6A?AW4dnnl_status_t@@PEAU1@@Z@std@@EEAAXXZ 0000000180014600 f i MWAvgPoolingLayerImpl.obj
 0001:00013650       ?_Delete_this@?$_Ref_count_resource@PEAUdnnl_primitive_desc@@P6A?AW4dnnl_status_t@@PEAU1@@Z@std@@EEAAXXZ 0000000180014650 f i MWAvgPoolingLayerImpl.obj
 0001:000136a0       ?_Delete_this@?$_Ref_count_resource@PEAUdnnl_primitive_desc_iterator@@P6A?AW4dnnl_status_t@@PEAU1@@Z@std@@EEAAXXZ 00000001800146a0 f i MWAvgPoolingLayerImpl.obj
 0001:000136f0       ?_Delete_this@?$_Ref_count_resource@PEAUdnnl_stream@@P6A?AW4dnnl_status_t@@PEAU1@@Z@std@@EEAAXXZ 00000001800146f0 f i MWAvgPoolingLayerImpl.obj
 0001:00013740       ?_Desired_grow_bucket_count@?$_Hash@V?$_Umap_traits@HUmemory@dnnl@@V?$_Uhash_compare@HU?$hash@H@std@@U?$equal_to@H@2@@std@@V?$allocator@U?$pair@$$CBHUmemory@dnnl@@@std@@@4@$0A@@std@@@std@@IEBA_K_K@Z 0000000180014740 f i MWAvgPoolingLayerImpl.obj
 0001:000137d0       ?_Destroy@?$_Ref_count_obj2@Umemory@dnnl@@@std@@EEAAXXZ 00000001800147d0 f i MWAvgPoolingLayerImpl.obj
 0001:000137f0       ?_Destroy@?$_Ref_count_resource@PEAUdnnl_memory@@P6A?AW4dnnl_status_t@@PEAU1@@Z@std@@EEAAXXZ 00000001800147f0 f i MWAvgPoolingLayerImpl.obj
 0001:00013820       ?_Destroy@?$_Ref_count_resource@PEAUdnnl_primitive@@P6A?AW4dnnl_status_t@@PEAU1@@Z@std@@EEAAXXZ 0000000180014820 f i MWAvgPoolingLayerImpl.obj
 0001:00013850       ?_Destroy@?$_Ref_count_resource@PEAUdnnl_primitive_desc@@P6A?AW4dnnl_status_t@@PEAU1@@Z@std@@EEAAXXZ 0000000180014850 f i MWAvgPoolingLayerImpl.obj
 0001:00013880       ?_Destroy@?$_Ref_count_resource@PEAUdnnl_primitive_desc_iterator@@P6A?AW4dnnl_status_t@@PEAU1@@Z@std@@EEAAXXZ 0000000180014880 f i MWAvgPoolingLayerImpl.obj
 0001:000138b0       ?_Destroy@?$_Ref_count_resource@PEAUdnnl_stream@@P6A?AW4dnnl_status_t@@PEAU1@@Z@std@@EEAAXXZ 00000001800148b0 f i MWAvgPoolingLayerImpl.obj
 0001:000138e0       ?_Destroy@?$vector@Udnnl_exec_arg_t@@V?$allocator@Udnnl_exec_arg_t@@@std@@@std@@AEAAXPEAUdnnl_exec_arg_t@@0@Z 00000001800148e0 f i MWAvgPoolingLayerImpl.obj
 0001:00013920       ?_Destroy@?$vector@Uprimitive@dnnl@@V?$allocator@Uprimitive@dnnl@@@std@@@std@@AEAAXPEAUprimitive@dnnl@@0@Z 0000000180014920 f i MWAvgPoolingLayerImpl.obj
 0001:00013960       ?_Destroy@?$vector@V?$unordered_map@HUmemory@dnnl@@U?$hash@H@std@@U?$equal_to@H@4@V?$allocator@U?$pair@$$CBHUmemory@dnnl@@@std@@@4@@std@@V?$allocator@V?$unordered_map@HUmemory@dnnl@@U?$hash@H@std@@U?$equal_to@H@4@V?$allocator@U?$pair@$$CBHUmemory@dnnl@@@std@@@4@@std@@@2@@std@@AEAAXPEAV?$unordered_map@HUmemory@dnnl@@U?$hash@H@std@@U?$equal_to@H@4@V?$allocator@U?$pair@$$CBHUmemory@dnnl@@@std@@@4@@2@0@Z 0000000180014960 f i MWAvgPoolingLayerImpl.obj
 0001:000139a0       ?_Destroy@?$vector@W4query@dnnl@@V?$allocator@W4query@dnnl@@@std@@@std@@AEAAXPEAW4query@dnnl@@0@Z 00000001800149a0 f i MWAvgPoolingLayerImpl.obj
 0001:000139e0       ?_Destroy@?$vector@_JV?$allocator@_J@std@@@std@@AEAAXPEA_J0@Z 00000001800149e0 f i MWAvgPoolingLayerImpl.obj
 0001:00013a20       ?_Do_hash@?$hash@H@std@@SA_KAEBH@Z 0000000180014a20 f i MWAvgPoolingLayerImpl.obj
 0001:00013a40       ?_Extract@?$_In_place_key_extract_map@HU?$pair@$$CBHUmemory@dnnl@@@std@@@std@@SAAEBHAEBU?$pair@$$CBHUmemory@dnnl@@@2@@Z 0000000180014a40 f i MWAvgPoolingLayerImpl.obj
 0001:00013a50       ?_Floor_of_log_2@std@@YAK_K@Z 0000000180014a50 f i MWAvgPoolingLayerImpl.obj
 0001:00013a80       ?_Fnv1a_append_bytes@std@@YA_K_KQEBE_K@Z 0000000180014a80 f i MWAvgPoolingLayerImpl.obj
 0001:00013b00       ?_Forced_rehash@?$_Hash@V?$_Umap_traits@HUmemory@dnnl@@V?$_Uhash_compare@HU?$hash@H@std@@U?$equal_to@H@2@@std@@V?$allocator@U?$pair@$$CBHUmemory@dnnl@@@std@@@4@$0A@@std@@@std@@IEAAX_K@Z 0000000180014b00 f i MWAvgPoolingLayerImpl.obj
 0001:00013e30       ?_Get_deleter@?$_Ref_count_resource@PEAUdnnl_memory@@P6A?AW4dnnl_status_t@@PEAU1@@Z@std@@UEBAPEAXAEBVtype_info@@@Z 0000000180014e30 f i MWAvgPoolingLayerImpl.obj
 0001:00013e80       ?_Get_deleter@?$_Ref_count_resource@PEAUdnnl_primitive@@P6A?AW4dnnl_status_t@@PEAU1@@Z@std@@UEBAPEAXAEBVtype_info@@@Z 0000000180014e80 f i MWAvgPoolingLayerImpl.obj
 0001:00013ed0       ?_Get_deleter@?$_Ref_count_resource@PEAUdnnl_primitive_desc@@P6A?AW4dnnl_status_t@@PEAU1@@Z@std@@UEBAPEAXAEBVtype_info@@@Z 0000000180014ed0 f i MWAvgPoolingLayerImpl.obj
 0001:00013f20       ?_Get_deleter@?$_Ref_count_resource@PEAUdnnl_primitive_desc_iterator@@P6A?AW4dnnl_status_t@@PEAU1@@Z@std@@UEBAPEAXAEBVtype_info@@@Z 0000000180014f20 f i MWAvgPoolingLayerImpl.obj
 0001:00013f70       ?_Get_deleter@?$_Ref_count_resource@PEAUdnnl_stream@@P6A?AW4dnnl_status_t@@PEAU1@@Z@std@@UEBAPEAXAEBVtype_info@@@Z 0000000180014f70 f i MWAvgPoolingLayerImpl.obj
 0001:00013fc0       ?_Get_deleter@_Ref_count_base@std@@UEBAPEAXAEBVtype_info@@@Z 0000000180014fc0 f i MWAvgPoolingLayerImpl.obj
 0001:00013fd0       ?_Get_first@?$_Compressed_pair@P6A?AW4dnnl_status_t@@PEAUdnnl_memory@@@ZPEAU2@$0A@@std@@QEAAAEAP6A?AW4dnnl_status_t@@PEAUdnnl_memory@@@ZXZ 0000000180014fd0 f i MWAvgPoolingLayerImpl.obj
 0001:00013fe0       ?_Get_first@?$_Compressed_pair@P6A?AW4dnnl_status_t@@PEAUdnnl_memory@@@ZPEAU2@$0A@@std@@QEBAAEBQ6A?AW4dnnl_status_t@@PEAUdnnl_memory@@@ZXZ 0000000180014fe0 f i MWAvgPoolingLayerImpl.obj
 0001:00013ff0       ?_Get_first@?$_Compressed_pair@P6A?AW4dnnl_status_t@@PEAUdnnl_primitive@@@ZPEAU2@$0A@@std@@QEAAAEAP6A?AW4dnnl_status_t@@PEAUdnnl_primitive@@@ZXZ 0000000180014ff0 f i MWAvgPoolingLayerImpl.obj
 0001:00014000       ?_Get_first@?$_Compressed_pair@P6A?AW4dnnl_status_t@@PEAUdnnl_primitive@@@ZPEAU2@$0A@@std@@QEBAAEBQ6A?AW4dnnl_status_t@@PEAUdnnl_primitive@@@ZXZ 0000000180015000 f i MWAvgPoolingLayerImpl.obj
 0001:00014010       ?_Get_first@?$_Compressed_pair@P6A?AW4dnnl_status_t@@PEAUdnnl_primitive_desc@@@ZPEAU2@$0A@@std@@QEAAAEAP6A?AW4dnnl_status_t@@PEAUdnnl_primitive_desc@@@ZXZ 0000000180015010 f i MWAvgPoolingLayerImpl.obj
 0001:00014020       ?_Get_first@?$_Compressed_pair@P6A?AW4dnnl_status_t@@PEAUdnnl_primitive_desc@@@ZPEAU2@$0A@@std@@QEBAAEBQ6A?AW4dnnl_status_t@@PEAUdnnl_primitive_desc@@@ZXZ 0000000180015020 f i MWAvgPoolingLayerImpl.obj
 0001:00014030       ?_Get_first@?$_Compressed_pair@P6A?AW4dnnl_status_t@@PEAUdnnl_primitive_desc_iterator@@@ZPEAU2@$0A@@std@@QEAAAEAP6A?AW4dnnl_status_t@@PEAUdnnl_primitive_desc_iterator@@@ZXZ 0000000180015030 f i MWAvgPoolingLayerImpl.obj
 0001:00014040       ?_Get_first@?$_Compressed_pair@P6A?AW4dnnl_status_t@@PEAUdnnl_primitive_desc_iterator@@@ZPEAU2@$0A@@std@@QEBAAEBQ6A?AW4dnnl_status_t@@PEAUdnnl_primitive_desc_iterator@@@ZXZ 0000000180015040 f i MWAvgPoolingLayerImpl.obj
 0001:00014050       ?_Get_first@?$_Compressed_pair@P6A?AW4dnnl_status_t@@PEAUdnnl_stream@@@ZPEAU2@$0A@@std@@QEAAAEAP6A?AW4dnnl_status_t@@PEAUdnnl_stream@@@ZXZ 0000000180015050 f i MWAvgPoolingLayerImpl.obj
 0001:00014060       ?_Get_first@?$_Compressed_pair@P6A?AW4dnnl_status_t@@PEAUdnnl_stream@@@ZPEAU2@$0A@@std@@QEBAAEBQ6A?AW4dnnl_status_t@@PEAUdnnl_stream@@@ZXZ 0000000180015060 f i MWAvgPoolingLayerImpl.obj
 0001:00014070       ?_Get_first@?$_Compressed_pair@U?$default_delete@Udesc@pooling_forward@dnnl@@@std@@PEAUdesc@pooling_forward@dnnl@@$00@std@@QEAAAEAU?$default_delete@Udesc@pooling_forward@dnnl@@@2@XZ 0000000180015070 f i MWAvgPoolingLayerImpl.obj
 0001:00014080       ?_Get_first@?$_Compressed_pair@U?$default_delete@Upooling_forward@dnnl@@@std@@PEAUpooling_forward@dnnl@@$00@std@@QEAAAEAU?$default_delete@Upooling_forward@dnnl@@@2@XZ 0000000180015080 f i MWAvgPoolingLayerImpl.obj
 0001:00014090       ?_Get_first@?$_Compressed_pair@U?$default_delete@Uprimitive@dnnl@@@std@@PEAUprimitive@dnnl@@$00@std@@QEAAAEAU?$default_delete@Uprimitive@dnnl@@@2@XZ 0000000180015090 f i MWAvgPoolingLayerImpl.obj
 0001:000140a0       ?_Get_first@?$_Compressed_pair@U?$default_delete@Uprimitive_desc@pooling_forward@dnnl@@@std@@PEAUprimitive_desc@pooling_forward@dnnl@@$00@std@@QEAAAEAU?$default_delete@Uprimitive_desc@pooling_forward@dnnl@@@2@XZ 00000001800150a0 f i MWAvgPoolingLayerImpl.obj
 0001:000140b0       ?_Get_first@?$_Compressed_pair@U?$equal_to@H@std@@M$00@std@@QEBAAEBU?$equal_to@H@2@XZ 00000001800150b0 f i MWAvgPoolingLayerImpl.obj
 0001:000140c0       ?_Get_first@?$_Compressed_pair@U?$hash@H@std@@V?$_Compressed_pair@U?$equal_to@H@std@@M$00@2@$00@std@@QEBAAEBU?$hash@H@2@XZ 00000001800150c0 f i MWAvgPoolingLayerImpl.obj
 0001:000140d0       ?_Get_first@?$_Compressed_pair@V?$allocator@U?$_List_node@U?$pair@$$CBHUmemory@dnnl@@@std@@PEAX@std@@@std@@V?$_List_val@U?$_List_simple_types@U?$pair@$$CBHUmemory@dnnl@@@std@@@std@@@2@$00@std@@QEAAAEAV?$allocator@U?$_List_node@U?$pair@$$CBHUmemory@dnnl@@@std@@PEAX@std@@@2@XZ 00000001800150d0 f i MWAvgPoolingLayerImpl.obj
 0001:000140e0       ?_Get_first@?$_Compressed_pair@V?$allocator@U?$_List_node@U?$pair@$$CBHUmemory@dnnl@@@std@@PEAX@std@@@std@@V?$_List_val@U?$_List_simple_types@U?$pair@$$CBHUmemory@dnnl@@@std@@@std@@@2@$00@std@@QEBAAEBV?$allocator@U?$_List_node@U?$pair@$$CBHUmemory@dnnl@@@std@@PEAX@std@@@2@XZ 00000001800150e0 f i MWAvgPoolingLayerImpl.obj
 0001:000140f0       ?_Get_first@?$_Compressed_pair@V?$allocator@U?$_Tree_node@U?$pair@$$CBHV?$shared_ptr@Umemory@dnnl@@@std@@@std@@PEAX@std@@@std@@V?$_Tree_val@U?$_Tree_simple_types@U?$pair@$$CBHV?$shared_ptr@Umemory@dnnl@@@std@@@std@@@std@@@2@$00@std@@QEAAAEAV?$allocator@U?$_Tree_node@U?$pair@$$CBHV?$shared_ptr@Umemory@dnnl@@@std@@@std@@PEAX@std@@@2@XZ 00000001800150f0 f i MWAvgPoolingLayerImpl.obj
 0001:00014100       ?_Get_first@?$_Compressed_pair@V?$allocator@U?$_Tree_node@U?$pair@$$CBHV?$shared_ptr@Ureorder@dnnl@@@std@@@std@@PEAX@std@@@std@@V?$_Tree_val@U?$_Tree_simple_types@U?$pair@$$CBHV?$shared_ptr@Ureorder@dnnl@@@std@@@std@@@std@@@2@$00@std@@QEAAAEAV?$allocator@U?$_Tree_node@U?$pair@$$CBHV?$shared_ptr@Ureorder@dnnl@@@std@@@std@@PEAX@std@@@2@XZ 0000000180015100 f i MWAvgPoolingLayerImpl.obj
 0001:00014110       ?_Get_first@?$_Compressed_pair@V?$allocator@Udnnl_exec_arg_t@@@std@@V?$_Vector_val@U?$_Simple_types@Udnnl_exec_arg_t@@@std@@@2@$00@std@@QEAAAEAV?$allocator@Udnnl_exec_arg_t@@@2@XZ 0000000180015110 f i MWAvgPoolingLayerImpl.obj
 0001:00014120       ?_Get_first@?$_Compressed_pair@V?$allocator@Udnnl_exec_arg_t@@@std@@V?$_Vector_val@U?$_Simple_types@Udnnl_exec_arg_t@@@std@@@2@$00@std@@QEBAAEBV?$allocator@Udnnl_exec_arg_t@@@2@XZ 0000000180015120 f i MWAvgPoolingLayerImpl.obj
 0001:00014130       ?_Get_first@?$_Compressed_pair@V?$allocator@Uprimitive@dnnl@@@std@@V?$_Vector_val@U?$_Simple_types@Uprimitive@dnnl@@@std@@@2@$00@std@@QEAAAEAV?$allocator@Uprimitive@dnnl@@@2@XZ 0000000180015130 f i MWAvgPoolingLayerImpl.obj
 0001:00014140       ?_Get_first@?$_Compressed_pair@V?$allocator@Uprimitive@dnnl@@@std@@V?$_Vector_val@U?$_Simple_types@Uprimitive@dnnl@@@std@@@2@$00@std@@QEBAAEBV?$allocator@Uprimitive@dnnl@@@2@XZ 0000000180015140 f i MWAvgPoolingLayerImpl.obj
 0001:00014150       ?_Get_first@?$_Compressed_pair@V?$allocator@V?$_List_unchecked_iterator@V?$_List_val@U?$_List_simple_types@U?$pair@$$CBHUmemory@dnnl@@@std@@@std@@@std@@@std@@@std@@V?$_Vector_val@U?$_Simple_types@V?$_List_unchecked_iterator@V?$_List_val@U?$_List_simple_types@U?$pair@$$CBHUmemory@dnnl@@@std@@@std@@@std@@@std@@@std@@@2@$00@std@@QEAAAEAV?$allocator@V?$_List_unchecked_iterator@V?$_List_val@U?$_List_simple_types@U?$pair@$$CBHUmemory@dnnl@@@std@@@std@@@std@@@std@@@2@XZ 0000000180015150 f i MWAvgPoolingLayerImpl.obj
 0001:00014160       ?_Get_first@?$_Compressed_pair@V?$allocator@V?$_List_unchecked_iterator@V?$_List_val@U?$_List_simple_types@U?$pair@$$CBHUmemory@dnnl@@@std@@@std@@@std@@@std@@@std@@V?$_Vector_val@U?$_Simple_types@V?$_List_unchecked_iterator@V?$_List_val@U?$_List_simple_types@U?$pair@$$CBHUmemory@dnnl@@@std@@@std@@@std@@@std@@@std@@@2@$00@std@@QEBAAEBV?$allocator@V?$_List_unchecked_iterator@V?$_List_val@U?$_List_simple_types@U?$pair@$$CBHUmemory@dnnl@@@std@@@std@@@std@@@std@@@2@XZ 0000000180015160 f i MWAvgPoolingLayerImpl.obj
 0001:00014170       ?_Get_first@?$_Compressed_pair@V?$allocator@V?$unordered_map@HUmemory@dnnl@@U?$hash@H@std@@U?$equal_to@H@4@V?$allocator@U?$pair@$$CBHUmemory@dnnl@@@std@@@4@@std@@@std@@V?$_Vector_val@U?$_Simple_types@V?$unordered_map@HUmemory@dnnl@@U?$hash@H@std@@U?$equal_to@H@4@V?$allocator@U?$pair@$$CBHUmemory@dnnl@@@std@@@4@@std@@@std@@@2@$00@std@@QEAAAEAV?$allocator@V?$unordered_map@HUmemory@dnnl@@U?$hash@H@std@@U?$equal_to@H@4@V?$allocator@U?$pair@$$CBHUmemory@dnnl@@@std@@@4@@std@@@2@XZ 0000000180015170 f i MWAvgPoolingLayerImpl.obj
 0001:00014180       ?_Get_first@?$_Compressed_pair@V?$allocator@V?$unordered_map@HUmemory@dnnl@@U?$hash@H@std@@U?$equal_to@H@4@V?$allocator@U?$pair@$$CBHUmemory@dnnl@@@std@@@4@@std@@@std@@V?$_Vector_val@U?$_Simple_types@V?$unordered_map@HUmemory@dnnl@@U?$hash@H@std@@U?$equal_to@H@4@V?$allocator@U?$pair@$$CBHUmemory@dnnl@@@std@@@4@@std@@@std@@@2@$00@std@@QEBAAEBV?$allocator@V?$unordered_map@HUmemory@dnnl@@U?$hash@H@std@@U?$equal_to@H@4@V?$allocator@U?$pair@$$CBHUmemory@dnnl@@@std@@@4@@std@@@2@XZ 0000000180015180 f i MWAvgPoolingLayerImpl.obj
 0001:00014190       ?_Get_first@?$_Compressed_pair@V?$allocator@W4query@dnnl@@@std@@V?$_Vector_val@U?$_Simple_types@W4query@dnnl@@@std@@@2@$00@std@@QEAAAEAV?$allocator@W4query@dnnl@@@2@XZ 0000000180015190 f i MWAvgPoolingLayerImpl.obj
 0001:000141a0       ?_Get_first@?$_Compressed_pair@V?$allocator@W4query@dnnl@@@std@@V?$_Vector_val@U?$_Simple_types@W4query@dnnl@@@std@@@2@$00@std@@QEBAAEBV?$allocator@W4query@dnnl@@@2@XZ 00000001800151a0 f i MWAvgPoolingLayerImpl.obj
 0001:000141b0       ?_Get_first@?$_Compressed_pair@V?$allocator@_J@std@@V?$_Vector_val@U?$_Simple_types@_J@std@@@2@$00@std@@QEAAAEAV?$allocator@_J@2@XZ 00000001800151b0 f i MWAvgPoolingLayerImpl.obj
 0001:000141c0       ?_Get_first@?$_Compressed_pair@V?$allocator@_J@std@@V?$_Vector_val@U?$_Simple_types@_J@std@@@2@$00@std@@QEBAAEBV?$allocator@_J@2@XZ 00000001800151c0 f i MWAvgPoolingLayerImpl.obj
 0001:000141d0       ?_Get_max_bucket_size@?$_Uhash_compare@HU?$hash@H@std@@U?$equal_to@H@2@@std@@QEAAAEAMXZ 00000001800151d0 f i MWAvgPoolingLayerImpl.obj
 0001:000141e0       ?_Get_max_bucket_size@?$_Uhash_compare@HU?$hash@H@std@@U?$equal_to@H@2@@std@@QEBAAEBMXZ 00000001800151e0 f i MWAvgPoolingLayerImpl.obj
 0001:000141f0       ?_Get_scary@?$_Tree@V?$_Tmap_traits@HV?$shared_ptr@Umemory@dnnl@@@std@@U?$less@H@2@V?$allocator@U?$pair@$$CBHV?$shared_ptr@Umemory@dnnl@@@std@@@std@@@2@$0A@@std@@@std@@IEAAPEAV?$_Tree_val@U?$_Tree_simple_types@U?$pair@$$CBHV?$shared_ptr@Umemory@dnnl@@@std@@@std@@@std@@@2@XZ 00000001800151f0 f i MWAvgPoolingLayerImpl.obj
 0001:00014210       ?_Get_scary@?$_Tree@V?$_Tmap_traits@HV?$shared_ptr@Ureorder@dnnl@@@std@@U?$less@H@2@V?$allocator@U?$pair@$$CBHV?$shared_ptr@Ureorder@dnnl@@@std@@@std@@@2@$0A@@std@@@std@@IEAAPEAV?$_Tree_val@U?$_Tree_simple_types@U?$pair@$$CBHV?$shared_ptr@Ureorder@dnnl@@@std@@@std@@@std@@@2@XZ 0000000180015210 f i MWAvgPoolingLayerImpl.obj
 0001:00014230       ?_Getal@?$_Hash@V?$_Umap_traits@HUmemory@dnnl@@V?$_Uhash_compare@HU?$hash@H@std@@U?$equal_to@H@2@@std@@V?$allocator@U?$pair@$$CBHUmemory@dnnl@@@std@@@4@$0A@@std@@@std@@IEBAAEBV?$allocator@U?$_List_node@U?$pair@$$CBHUmemory@dnnl@@@std@@PEAX@std@@@2@XZ 0000000180015230 f i MWAvgPoolingLayerImpl.obj
 0001:00014250       ?_Getal@?$_Tree@V?$_Tmap_traits@HV?$shared_ptr@Umemory@dnnl@@@std@@U?$less@H@2@V?$allocator@U?$pair@$$CBHV?$shared_ptr@Umemory@dnnl@@@std@@@std@@@2@$0A@@std@@@std@@IEAAAEAV?$allocator@U?$_Tree_node@U?$pair@$$CBHV?$shared_ptr@Umemory@dnnl@@@std@@@std@@PEAX@std@@@2@XZ 0000000180015250 f i MWAvgPoolingLayerImpl.obj
 0001:00014270       ?_Getal@?$_Tree@V?$_Tmap_traits@HV?$shared_ptr@Ureorder@dnnl@@@std@@U?$less@H@2@V?$allocator@U?$pair@$$CBHV?$shared_ptr@Ureorder@dnnl@@@std@@@std@@@2@$0A@@std@@@std@@IEAAAEAV?$allocator@U?$_Tree_node@U?$pair@$$CBHV?$shared_ptr@Ureorder@dnnl@@@std@@@std@@PEAX@std@@@2@XZ 0000000180015270 f i MWAvgPoolingLayerImpl.obj
 0001:00014290       ?_Getal@?$list@U?$pair@$$CBHUmemory@dnnl@@@std@@V?$allocator@U?$pair@$$CBHUmemory@dnnl@@@std@@@2@@std@@AEAAAEAV?$allocator@U?$_List_node@U?$pair@$$CBHUmemory@dnnl@@@std@@PEAX@std@@@2@XZ 0000000180015290 f i MWAvgPoolingLayerImpl.obj
 0001:000142b0       ?_Getal@?$list@U?$pair@$$CBHUmemory@dnnl@@@std@@V?$allocator@U?$pair@$$CBHUmemory@dnnl@@@std@@@2@@std@@AEBAAEBV?$allocator@U?$_List_node@U?$pair@$$CBHUmemory@dnnl@@@std@@PEAX@std@@@2@XZ 00000001800152b0 f i MWAvgPoolingLayerImpl.obj
 0001:000142d0       ?_Getal@?$vector@Udnnl_exec_arg_t@@V?$allocator@Udnnl_exec_arg_t@@@std@@@std@@AEAAAEAV?$allocator@Udnnl_exec_arg_t@@@2@XZ 00000001800152d0 f i MWAvgPoolingLayerImpl.obj
 0001:000142f0       ?_Getal@?$vector@Udnnl_exec_arg_t@@V?$allocator@Udnnl_exec_arg_t@@@std@@@std@@AEBAAEBV?$allocator@Udnnl_exec_arg_t@@@2@XZ 00000001800152f0 f i MWAvgPoolingLayerImpl.obj
 0001:00014310       ?_Getal@?$vector@Uprimitive@dnnl@@V?$allocator@Uprimitive@dnnl@@@std@@@std@@AEAAAEAV?$allocator@Uprimitive@dnnl@@@2@XZ 0000000180015310 f i MWAvgPoolingLayerImpl.obj
 0001:00014330       ?_Getal@?$vector@Uprimitive@dnnl@@V?$allocator@Uprimitive@dnnl@@@std@@@std@@AEBAAEBV?$allocator@Uprimitive@dnnl@@@2@XZ 0000000180015330 f i MWAvgPoolingLayerImpl.obj
 0001:00014350       ?_Getal@?$vector@V?$unordered_map@HUmemory@dnnl@@U?$hash@H@std@@U?$equal_to@H@4@V?$allocator@U?$pair@$$CBHUmemory@dnnl@@@std@@@4@@std@@V?$allocator@V?$unordered_map@HUmemory@dnnl@@U?$hash@H@std@@U?$equal_to@H@4@V?$allocator@U?$pair@$$CBHUmemory@dnnl@@@std@@@4@@std@@@2@@std@@AEAAAEAV?$allocator@V?$unordered_map@HUmemory@dnnl@@U?$hash@H@std@@U?$equal_to@H@4@V?$allocator@U?$pair@$$CBHUmemory@dnnl@@@std@@@4@@std@@@2@XZ 0000000180015350 f i MWAvgPoolingLayerImpl.obj
 0001:00014370       ?_Getal@?$vector@V?$unordered_map@HUmemory@dnnl@@U?$hash@H@std@@U?$equal_to@H@4@V?$allocator@U?$pair@$$CBHUmemory@dnnl@@@std@@@4@@std@@V?$allocator@V?$unordered_map@HUmemory@dnnl@@U?$hash@H@std@@U?$equal_to@H@4@V?$allocator@U?$pair@$$CBHUmemory@dnnl@@@std@@@4@@std@@@2@@std@@AEBAAEBV?$allocator@V?$unordered_map@HUmemory@dnnl@@U?$hash@H@std@@U?$equal_to@H@4@V?$allocator@U?$pair@$$CBHUmemory@dnnl@@@std@@@4@@std@@@2@XZ 0000000180015370 f i MWAvgPoolingLayerImpl.obj
 0001:00014390       ?_Getal@?$vector@W4query@dnnl@@V?$allocator@W4query@dnnl@@@std@@@std@@AEAAAEAV?$allocator@W4query@dnnl@@@2@XZ 0000000180015390 f i MWAvgPoolingLayerImpl.obj
 0001:000143b0       ?_Getal@?$vector@W4query@dnnl@@V?$allocator@W4query@dnnl@@@std@@@std@@AEBAAEBV?$allocator@W4query@dnnl@@@2@XZ 00000001800153b0 f i MWAvgPoolingLayerImpl.obj
 0001:000143d0       ?_Getal@?$vector@_JV?$allocator@_J@std@@@std@@AEAAAEAV?$allocator@_J@2@XZ 00000001800153d0 f i MWAvgPoolingLayerImpl.obj
 0001:000143f0       ?_Getal@?$vector@_JV?$allocator@_J@std@@@std@@AEBAAEBV?$allocator@_J@2@XZ 00000001800153f0 f i MWAvgPoolingLayerImpl.obj
 0001:00014410       ?_Incref@?$_Ptr_base@Udnnl_memory@@@std@@IEBAXXZ 0000000180015410 f i MWAvgPoolingLayerImpl.obj
 0001:00014440       ?_Incref@?$_Ptr_base@Udnnl_primitive@@@std@@IEBAXXZ 0000000180015440 f i MWAvgPoolingLayerImpl.obj
 0001:00014470       ?_Incref@_Ref_count_base@std@@QEAAXXZ 0000000180015470 f i MWAvgPoolingLayerImpl.obj
 0001:00014490       ?_Insert_new_node_before@?$_Hash@V?$_Umap_traits@HUmemory@dnnl@@V?$_Uhash_compare@HU?$hash@H@std@@U?$equal_to@H@2@@std@@V?$allocator@U?$pair@$$CBHUmemory@dnnl@@@std@@@4@$0A@@std@@@std@@IEAAPEAU?$_List_node@U?$pair@$$CBHUmemory@dnnl@@@std@@PEAX@2@_KQEAU32@1@Z 0000000180015490 f i MWAvgPoolingLayerImpl.obj
 0001:000145e0       ?_Make_iter@?$list@U?$pair@$$CBHUmemory@dnnl@@@std@@V?$allocator@U?$pair@$$CBHUmemory@dnnl@@@std@@@2@@std@@QEBA?AV?$_List_iterator@V?$_List_val@U?$_List_simple_types@U?$pair@$$CBHUmemory@dnnl@@@std@@@std@@@std@@@2@PEAU?$_List_node@U?$pair@$$CBHUmemory@dnnl@@@std@@PEAX@2@@Z 00000001800155e0 f i MWAvgPoolingLayerImpl.obj
 0001:00014620       ?_Max_bucket_size@?$_Hash@V?$_Umap_traits@HUmemory@dnnl@@V?$_Uhash_compare@HU?$hash@H@std@@U?$equal_to@H@2@@std@@V?$allocator@U?$pair@$$CBHUmemory@dnnl@@@std@@@4@$0A@@std@@@std@@IEAAAEAMXZ 0000000180015620 f i MWAvgPoolingLayerImpl.obj
 0001:00014640       ?_Max_bucket_size@?$_Hash@V?$_Umap_traits@HUmemory@dnnl@@V?$_Uhash_compare@HU?$hash@H@std@@U?$equal_to@H@2@@std@@V?$allocator@U?$pair@$$CBHUmemory@dnnl@@@std@@@4@$0A@@std@@@std@@IEBAAEBMXZ 0000000180015640 f i MWAvgPoolingLayerImpl.obj
 0001:00014660       ?_Min_load_factor_buckets@?$_Hash@V?$_Umap_traits@HUmemory@dnnl@@V?$_Uhash_compare@HU?$hash@H@std@@U?$equal_to@H@2@@std@@V?$allocator@U?$pair@$$CBHUmemory@dnnl@@@std@@@4@$0A@@std@@@std@@IEBA_K_K@Z 0000000180015660 f i MWAvgPoolingLayerImpl.obj
 0001:00014700       ?_Orphan_non_end@?$_List_val@U?$_List_simple_types@U?$pair@$$CBHUmemory@dnnl@@@std@@@std@@@std@@QEAAXXZ 0000000180015700 f i MWAvgPoolingLayerImpl.obj
 0001:00014710       ?_Orphan_range@?$vector@Udnnl_exec_arg_t@@V?$allocator@Udnnl_exec_arg_t@@@std@@@std@@AEBAXPEAUdnnl_exec_arg_t@@0@Z 0000000180015710 f i MWAvgPoolingLayerImpl.obj
 0001:00014720       ?_Orphan_range@?$vector@Uprimitive@dnnl@@V?$allocator@Uprimitive@dnnl@@@std@@@std@@AEBAXPEAUprimitive@dnnl@@0@Z 0000000180015720 f i MWAvgPoolingLayerImpl.obj
 0001:00014730       ?_Orphan_range@?$vector@V?$unordered_map@HUmemory@dnnl@@U?$hash@H@std@@U?$equal_to@H@4@V?$allocator@U?$pair@$$CBHUmemory@dnnl@@@std@@@4@@std@@V?$allocator@V?$unordered_map@HUmemory@dnnl@@U?$hash@H@std@@U?$equal_to@H@4@V?$allocator@U?$pair@$$CBHUmemory@dnnl@@@std@@@4@@std@@@2@@std@@AEBAXPEAV?$unordered_map@HUmemory@dnnl@@U?$hash@H@std@@U?$equal_to@H@4@V?$allocator@U?$pair@$$CBHUmemory@dnnl@@@std@@@4@@2@0@Z 0000000180015730 f i MWAvgPoolingLayerImpl.obj
 0001:00014740       ?_Reallocate_exactly@?$vector@Udnnl_exec_arg_t@@V?$allocator@Udnnl_exec_arg_t@@@std@@@std@@AEAAX_K@Z 0000000180015740 f i MWAvgPoolingLayerImpl.obj
 0001:000147f0       ?_Rehash_for_1@?$_Hash@V?$_Umap_traits@HUmemory@dnnl@@V?$_Uhash_compare@HU?$hash@H@std@@U?$equal_to@H@2@@std@@V?$allocator@U?$pair@$$CBHUmemory@dnnl@@@std@@@4@$0A@@std@@@std@@IEAAXXZ 00000001800157f0 f i MWAvgPoolingLayerImpl.obj
 0001:00014840       ?_Release@?$_Alloc_construct_ptr@V?$allocator@U?$_List_node@U?$pair@$$CBHUmemory@dnnl@@@std@@PEAX@std@@@std@@@std@@QEAAPEAU?$_List_node@U?$pair@$$CBHUmemory@dnnl@@@std@@PEAX@2@XZ 0000000180015840 f i MWAvgPoolingLayerImpl.obj
 0001:00014870       ?_Release@?$_Uninitialized_backout@PEAV?$_List_unchecked_iterator@V?$_List_val@U?$_List_simple_types@U?$pair@$$CBHUmemory@dnnl@@@std@@@std@@@std@@@std@@@std@@QEAAPEAV?$_List_unchecked_iterator@V?$_List_val@U?$_List_simple_types@U?$pair@$$CBHUmemory@dnnl@@@std@@@std@@@std@@@2@XZ 0000000180015870 f i MWAvgPoolingLayerImpl.obj
 0001:00014890       ?_Release@?$_Uninitialized_backout_al@V?$allocator@Udnnl_exec_arg_t@@@std@@@std@@QEAAPEAUdnnl_exec_arg_t@@XZ 0000000180015890 f i MWAvgPoolingLayerImpl.obj
 0001:000148b0       ?_Release@?$_Uninitialized_backout_al@V?$allocator@Uprimitive@dnnl@@@std@@@std@@QEAAPEAUprimitive@dnnl@@XZ 00000001800158b0 f i MWAvgPoolingLayerImpl.obj
 0001:000148d0       ?_Release@?$_Uninitialized_backout_al@V?$allocator@V?$unordered_map@HUmemory@dnnl@@U?$hash@H@std@@U?$equal_to@H@4@V?$allocator@U?$pair@$$CBHUmemory@dnnl@@@std@@@4@@std@@@std@@@std@@QEAAPEAV?$unordered_map@HUmemory@dnnl@@U?$hash@H@std@@U?$equal_to@H@4@V?$allocator@U?$pair@$$CBHUmemory@dnnl@@@std@@@4@@2@XZ 00000001800158d0 f i MWAvgPoolingLayerImpl.obj
 0001:000148f0       ?_Release@?$_Uninitialized_backout_al@V?$allocator@W4query@dnnl@@@std@@@std@@QEAAPEAW4query@dnnl@@XZ 00000001800158f0 f i MWAvgPoolingLayerImpl.obj
 0001:00014910       ?_Release@?$_Uninitialized_backout_al@V?$allocator@_J@std@@@std@@QEAAPEA_JXZ 0000000180015910 f i MWAvgPoolingLayerImpl.obj
 0001:00014930       ?_Swap@?$_Ptr_base@Udnnl_memory@@@std@@IEAAXAEAV12@@Z 0000000180015930 f i MWAvgPoolingLayerImpl.obj
 0001:00014970       ?_Swap@?$_Ptr_base@Udnnl_primitive@@@std@@IEAAXAEAV12@@Z 0000000180015970 f i MWAvgPoolingLayerImpl.obj
 0001:000149b0       ?_Swap@?$_Ptr_base@Udnnl_primitive_desc@@@std@@IEAAXAEAV12@@Z 00000001800159b0 f i MWAvgPoolingLayerImpl.obj
 0001:000149f0       ?_Swap@?$_Ptr_base@Udnnl_primitive_desc_iterator@@@std@@IEAAXAEAV12@@Z 00000001800159f0 f i MWAvgPoolingLayerImpl.obj
 0001:00014a30       ?_Swap@?$_Ptr_base@Udnnl_stream@@@std@@IEAAXAEAV12@@Z 0000000180015a30 f i MWAvgPoolingLayerImpl.obj
 0001:00014a70       ?_Swap_val@?$_Vector_val@U?$_Simple_types@V?$_List_unchecked_iterator@V?$_List_val@U?$_List_simple_types@U?$pair@$$CBHUmemory@dnnl@@@std@@@std@@@std@@@std@@@std@@@std@@QEAAXAEAV12@@Z 0000000180015a70 f i MWAvgPoolingLayerImpl.obj
 0001:00014ae0       ?_Swap_val@?$list@U?$pair@$$CBHUmemory@dnnl@@@std@@V?$allocator@U?$pair@$$CBHUmemory@dnnl@@@std@@@2@@std@@AEAAXAEAV12@@Z 0000000180015ae0 f i MWAvgPoolingLayerImpl.obj
 0001:00014b50       ?_Tidy@?$_Hash_vec@V?$allocator@V?$_List_unchecked_iterator@V?$_List_val@U?$_List_simple_types@U?$pair@$$CBHUmemory@dnnl@@@std@@@std@@@std@@@std@@@std@@@std@@QEAAXXZ 0000000180015b50 f i MWAvgPoolingLayerImpl.obj
 0001:00014bd0       ?_Tidy@?$list@U?$pair@$$CBHUmemory@dnnl@@@std@@V?$allocator@U?$pair@$$CBHUmemory@dnnl@@@std@@@2@@std@@AEAAXXZ 0000000180015bd0 f i MWAvgPoolingLayerImpl.obj
 0001:00014c30       ?_Tidy@?$vector@Udnnl_exec_arg_t@@V?$allocator@Udnnl_exec_arg_t@@@std@@@std@@AEAAXXZ 0000000180015c30 f i MWAvgPoolingLayerImpl.obj
 0001:00014d00       ?_Tidy@?$vector@Uprimitive@dnnl@@V?$allocator@Uprimitive@dnnl@@@std@@@std@@AEAAXXZ 0000000180015d00 f i MWAvgPoolingLayerImpl.obj
 0001:00014dd0       ?_Tidy@?$vector@V?$unordered_map@HUmemory@dnnl@@U?$hash@H@std@@U?$equal_to@H@4@V?$allocator@U?$pair@$$CBHUmemory@dnnl@@@std@@@4@@std@@V?$allocator@V?$unordered_map@HUmemory@dnnl@@U?$hash@H@std@@U?$equal_to@H@4@V?$allocator@U?$pair@$$CBHUmemory@dnnl@@@std@@@4@@std@@@2@@std@@AEAAXXZ 0000000180015dd0 f i MWAvgPoolingLayerImpl.obj
 0001:00014ea0       ?_Tidy@?$vector@W4query@dnnl@@V?$allocator@W4query@dnnl@@@std@@@std@@AEAAXXZ 0000000180015ea0 f i MWAvgPoolingLayerImpl.obj
 0001:00014f70       ?_Tidy@?$vector@_JV?$allocator@_J@std@@@std@@AEAAXXZ 0000000180015f70 f i MWAvgPoolingLayerImpl.obj
 0001:00015040       ?_Umove@?$vector@Udnnl_exec_arg_t@@V?$allocator@Udnnl_exec_arg_t@@@std@@@std@@AEAAPEAUdnnl_exec_arg_t@@PEAU3@00@Z 0000000180016040 f i MWAvgPoolingLayerImpl.obj
 0001:00015080       ?_Umove@?$vector@Uprimitive@dnnl@@V?$allocator@Uprimitive@dnnl@@@std@@@std@@AEAAPEAUprimitive@dnnl@@PEAU34@00@Z 0000000180016080 f i MWAvgPoolingLayerImpl.obj
 0001:000150c0       ?_Umove@?$vector@V?$unordered_map@HUmemory@dnnl@@U?$hash@H@std@@U?$equal_to@H@4@V?$allocator@U?$pair@$$CBHUmemory@dnnl@@@std@@@4@@std@@V?$allocator@V?$unordered_map@HUmemory@dnnl@@U?$hash@H@std@@U?$equal_to@H@4@V?$allocator@U?$pair@$$CBHUmemory@dnnl@@@std@@@4@@std@@@2@@std@@AEAAPEAV?$unordered_map@HUmemory@dnnl@@U?$hash@H@std@@U?$equal_to@H@4@V?$allocator@U?$pair@$$CBHUmemory@dnnl@@@std@@@4@@2@PEAV32@00@Z 00000001800160c0 f i MWAvgPoolingLayerImpl.obj
 0001:00015100       ?_Umove_if_noexcept1@?$vector@Udnnl_exec_arg_t@@V?$allocator@Udnnl_exec_arg_t@@@std@@@std@@AEAAXPEAUdnnl_exec_arg_t@@00U?$integral_constant@_N$00@2@@Z 0000000180016100 f i MWAvgPoolingLayerImpl.obj
 0001:00015140       ?_Umove_if_noexcept1@?$vector@Uprimitive@dnnl@@V?$allocator@Uprimitive@dnnl@@@std@@@std@@AEAAXPEAUprimitive@dnnl@@00U?$integral_constant@_N$00@2@@Z 0000000180016140 f i MWAvgPoolingLayerImpl.obj
 0001:00015180       ?_Umove_if_noexcept1@?$vector@V?$unordered_map@HUmemory@dnnl@@U?$hash@H@std@@U?$equal_to@H@4@V?$allocator@U?$pair@$$CBHUmemory@dnnl@@@std@@@4@@std@@V?$allocator@V?$unordered_map@HUmemory@dnnl@@U?$hash@H@std@@U?$equal_to@H@4@V?$allocator@U?$pair@$$CBHUmemory@dnnl@@@std@@@4@@std@@@2@@std@@AEAAXPEAV?$unordered_map@HUmemory@dnnl@@U?$hash@H@std@@U?$equal_to@H@4@V?$allocator@U?$pair@$$CBHUmemory@dnnl@@@std@@@4@@2@00U?$integral_constant@_N$0A@@2@@Z 0000000180016180 f i MWAvgPoolingLayerImpl.obj
 0001:000151c0       ?_Umove_if_noexcept@?$vector@Udnnl_exec_arg_t@@V?$allocator@Udnnl_exec_arg_t@@@std@@@std@@AEAAXPEAUdnnl_exec_arg_t@@00@Z 00000001800161c0 f i MWAvgPoolingLayerImpl.obj
 0001:00015220       ?_Umove_if_noexcept@?$vector@Uprimitive@dnnl@@V?$allocator@Uprimitive@dnnl@@@std@@@std@@AEAAXPEAUprimitive@dnnl@@00@Z 0000000180016220 f i MWAvgPoolingLayerImpl.obj
 0001:00015280       ?_Umove_if_noexcept@?$vector@V?$unordered_map@HUmemory@dnnl@@U?$hash@H@std@@U?$equal_to@H@4@V?$allocator@U?$pair@$$CBHUmemory@dnnl@@@std@@@4@@std@@V?$allocator@V?$unordered_map@HUmemory@dnnl@@U?$hash@H@std@@U?$equal_to@H@4@V?$allocator@U?$pair@$$CBHUmemory@dnnl@@@std@@@4@@std@@@2@@std@@AEAAXPEAV?$unordered_map@HUmemory@dnnl@@U?$hash@H@std@@U?$equal_to@H@4@V?$allocator@U?$pair@$$CBHUmemory@dnnl@@@std@@@4@@2@00@Z 0000000180016280 f i MWAvgPoolingLayerImpl.obj
 0001:000152e0       ?_Unchecked_begin@?$_Hash@V?$_Umap_traits@HUmemory@dnnl@@V?$_Uhash_compare@HU?$hash@H@std@@U?$equal_to@H@2@@std@@V?$allocator@U?$pair@$$CBHUmemory@dnnl@@@std@@@4@$0A@@std@@@std@@QEAA?AV?$_List_unchecked_iterator@V?$_List_val@U?$_List_simple_types@U?$pair@$$CBHUmemory@dnnl@@@std@@@std@@@std@@@2@XZ 00000001800162e0 f i MWAvgPoolingLayerImpl.obj
 0001:00015310       ?_Unchecked_begin@?$_Hash@V?$_Umap_traits@HUmemory@dnnl@@V?$_Uhash_compare@HU?$hash@H@std@@U?$equal_to@H@2@@std@@V?$allocator@U?$pair@$$CBHUmemory@dnnl@@@std@@@4@$0A@@std@@@std@@QEBA?AV?$_List_unchecked_const_iterator@V?$_List_val@U?$_List_simple_types@U?$pair@$$CBHUmemory@dnnl@@@std@@@std@@@std@@U_Iterator_base0@2@@2@XZ 0000000180016310 f i MWAvgPoolingLayerImpl.obj
 0001:00015340       ?_Unchecked_begin@?$list@U?$pair@$$CBHUmemory@dnnl@@@std@@V?$allocator@U?$pair@$$CBHUmemory@dnnl@@@std@@@2@@std@@QEAA?AV?$_List_unchecked_iterator@V?$_List_val@U?$_List_simple_types@U?$pair@$$CBHUmemory@dnnl@@@std@@@std@@@std@@@2@XZ 0000000180016340 f i MWAvgPoolingLayerImpl.obj
 0001:00015370       ?_Unchecked_begin@?$list@U?$pair@$$CBHUmemory@dnnl@@@std@@V?$allocator@U?$pair@$$CBHUmemory@dnnl@@@std@@@2@@std@@QEBA?AV?$_List_unchecked_const_iterator@V?$_List_val@U?$_List_simple_types@U?$pair@$$CBHUmemory@dnnl@@@std@@@std@@@std@@U_Iterator_base0@2@@2@XZ 0000000180016370 f i MWAvgPoolingLayerImpl.obj
 0001:000153a0       ?_Unchecked_end@?$_Hash@V?$_Umap_traits@HUmemory@dnnl@@V?$_Uhash_compare@HU?$hash@H@std@@U?$equal_to@H@2@@std@@V?$allocator@U?$pair@$$CBHUmemory@dnnl@@@std@@@4@$0A@@std@@@std@@QEAA?AV?$_List_unchecked_iterator@V?$_List_val@U?$_List_simple_types@U?$pair@$$CBHUmemory@dnnl@@@std@@@std@@@std@@@2@XZ 00000001800163a0 f i MWAvgPoolingLayerImpl.obj
 0001:000153d0       ?_Unchecked_end@?$_Hash@V?$_Umap_traits@HUmemory@dnnl@@V?$_Uhash_compare@HU?$hash@H@std@@U?$equal_to@H@2@@std@@V?$allocator@U?$pair@$$CBHUmemory@dnnl@@@std@@@4@$0A@@std@@@std@@QEBA?AV?$_List_unchecked_const_iterator@V?$_List_val@U?$_List_simple_types@U?$pair@$$CBHUmemory@dnnl@@@std@@@std@@@std@@U_Iterator_base0@2@@2@XZ 00000001800163d0 f i MWAvgPoolingLayerImpl.obj
 0001:00015400       ?_Unchecked_end@?$list@U?$pair@$$CBHUmemory@dnnl@@@std@@V?$allocator@U?$pair@$$CBHUmemory@dnnl@@@std@@@2@@std@@QEAA?AV?$_List_unchecked_iterator@V?$_List_val@U?$_List_simple_types@U?$pair@$$CBHUmemory@dnnl@@@std@@@std@@@std@@@2@XZ 0000000180016400 f i MWAvgPoolingLayerImpl.obj
 0001:00015430       ?_Unchecked_end@?$list@U?$pair@$$CBHUmemory@dnnl@@@std@@V?$allocator@U?$pair@$$CBHUmemory@dnnl@@@std@@@2@@std@@QEBA?AV?$_List_unchecked_const_iterator@V?$_List_val@U?$_List_simple_types@U?$pair@$$CBHUmemory@dnnl@@@std@@@std@@@std@@U_Iterator_base0@2@@2@XZ 0000000180016430 f i MWAvgPoolingLayerImpl.obj
 0001:00015460       ?_Unchecked_erase@?$_Hash@V?$_Umap_traits@HUmemory@dnnl@@V?$_Uhash_compare@HU?$hash@H@std@@U?$equal_to@H@2@@std@@V?$allocator@U?$pair@$$CBHUmemory@dnnl@@@std@@@4@$0A@@std@@@std@@AEAAPEAU?$_List_node@U?$pair@$$CBHUmemory@dnnl@@@std@@PEAX@2@PEAU32@QEAU32@@Z 0000000180016460 f i MWAvgPoolingLayerImpl.obj
 0001:00015770       ?_Unchecked_splice@?$_List_val@U?$_List_simple_types@U?$pair@$$CBHUmemory@dnnl@@@std@@@std@@@std@@SAPEAU?$_List_node@U?$pair@$$CBHUmemory@dnnl@@@std@@PEAX@2@QEAU32@00@Z 0000000180016770 f i MWAvgPoolingLayerImpl.obj
 0001:00015810       ?_Unwrapped@?$_Vector_const_iterator@V?$_Vector_val@U?$_Simple_types@W4query@dnnl@@@std@@@std@@@std@@QEBAPEBW4query@dnnl@@XZ 0000000180016810 f i MWAvgPoolingLayerImpl.obj
 0001:00015830       ?_Xlength@?$vector@Udnnl_exec_arg_t@@V?$allocator@Udnnl_exec_arg_t@@@std@@@std@@CAXXZ 0000000180016830 f i MWAvgPoolingLayerImpl.obj
 0001:00015850       ?_Xlength@?$vector@Uprimitive@dnnl@@V?$allocator@Uprimitive@dnnl@@@std@@@std@@CAXXZ 0000000180016850 f i MWAvgPoolingLayerImpl.obj
 0001:00015870       ?_Xlength@?$vector@V?$unordered_map@HUmemory@dnnl@@U?$hash@H@std@@U?$equal_to@H@4@V?$allocator@U?$pair@$$CBHUmemory@dnnl@@@std@@@4@@std@@V?$allocator@V?$unordered_map@HUmemory@dnnl@@U?$hash@H@std@@U?$equal_to@H@4@V?$allocator@U?$pair@$$CBHUmemory@dnnl@@@std@@@4@@std@@@2@@std@@CAXXZ 0000000180016870 f i MWAvgPoolingLayerImpl.obj
 0001:00015890       ?_Xlength@?$vector@W4query@dnnl@@V?$allocator@W4query@dnnl@@@std@@@std@@CAXXZ 0000000180016890 f i MWAvgPoolingLayerImpl.obj
 0001:000158b0       ?_Xlength@?$vector@_JV?$allocator@_J@std@@@std@@CAXXZ 00000001800168b0 f i MWAvgPoolingLayerImpl.obj
 0001:000158d0       ?allocate@?$allocator@U?$_List_node@U?$pair@$$CBHUmemory@dnnl@@@std@@PEAX@std@@@std@@QEAAPEAU?$_List_node@U?$pair@$$CBHUmemory@dnnl@@@std@@PEAX@2@_K@Z 00000001800168d0 f i MWAvgPoolingLayerImpl.obj
 0001:00015900       ?allocate@?$allocator@Udnnl_exec_arg_t@@@std@@QEAAPEAUdnnl_exec_arg_t@@_K@Z 0000000180016900 f i MWAvgPoolingLayerImpl.obj
 0001:00015930       ?allocate@?$allocator@Uprimitive@dnnl@@@std@@QEAAPEAUprimitive@dnnl@@_K@Z 0000000180016930 f i MWAvgPoolingLayerImpl.obj
 0001:00015960       ?allocate@?$allocator@V?$_List_unchecked_iterator@V?$_List_val@U?$_List_simple_types@U?$pair@$$CBHUmemory@dnnl@@@std@@@std@@@std@@@std@@@std@@QEAAPEAV?$_List_unchecked_iterator@V?$_List_val@U?$_List_simple_types@U?$pair@$$CBHUmemory@dnnl@@@std@@@std@@@std@@@2@_K@Z 0000000180016960 f i MWAvgPoolingLayerImpl.obj
 0001:00015990       ?allocate@?$allocator@V?$unordered_map@HUmemory@dnnl@@U?$hash@H@std@@U?$equal_to@H@4@V?$allocator@U?$pair@$$CBHUmemory@dnnl@@@std@@@4@@std@@@std@@QEAAPEAV?$unordered_map@HUmemory@dnnl@@U?$hash@H@std@@U?$equal_to@H@4@V?$allocator@U?$pair@$$CBHUmemory@dnnl@@@std@@@4@@2@_K@Z 0000000180016990 f i MWAvgPoolingLayerImpl.obj
 0001:000159c0       ?allocate@?$allocator@W4query@dnnl@@@std@@QEAAPEAW4query@dnnl@@_K@Z 00000001800169c0 f i MWAvgPoolingLayerImpl.obj
 0001:000159f0       ?allocate@?$allocator@_J@std@@QEAAPEA_J_K@Z 00000001800169f0 f i MWAvgPoolingLayerImpl.obj
 0001:00015a20       ?allocate@MWCNNLayerImpl@@UEAAXXZ 0000000180016a20 f i MWAvgPoolingLayerImpl.obj
 0001:00015a30       ?begin@?$initializer_list@U?$pair@$$CBHUmemory@dnnl@@@std@@@std@@QEBAPEBU?$pair@$$CBHUmemory@dnnl@@@2@XZ 0000000180016a30 f i MWAvgPoolingLayerImpl.obj
 0001:00015a40       ?begin@?$initializer_list@W4query@dnnl@@@std@@QEBAPEBW4query@dnnl@@XZ 0000000180016a40 f i MWAvgPoolingLayerImpl.obj
 0001:00015a50       ?begin@?$initializer_list@_J@std@@QEBAPEB_JXZ 0000000180016a50 f i MWAvgPoolingLayerImpl.obj
 0001:00015a60       ?begin@?$vector@W4query@dnnl@@V?$allocator@W4query@dnnl@@@std@@@std@@QEBA?AV?$_Vector_const_iterator@V?$_Vector_val@U?$_Simple_types@W4query@dnnl@@@std@@@std@@@2@XZ 0000000180016a60 f i MWAvgPoolingLayerImpl.obj
 0001:00015ab0       ?bucket@?$_Hash@V?$_Umap_traits@HUmemory@dnnl@@V?$_Uhash_compare@HU?$hash@H@std@@U?$equal_to@H@2@@std@@V?$allocator@U?$pair@$$CBHUmemory@dnnl@@@std@@@4@$0A@@std@@@std@@QEBA_KAEBH@Z 0000000180016ab0 f i MWAvgPoolingLayerImpl.obj
 0001:00015ae0       ?bucket_count@?$_Hash@V?$_Umap_traits@HUmemory@dnnl@@V?$_Uhash_compare@HU?$hash@H@std@@U?$equal_to@H@2@@std@@V?$allocator@U?$pair@$$CBHUmemory@dnnl@@@std@@@4@$0A@@std@@@std@@QEBA_KXZ 0000000180016ae0 f i MWAvgPoolingLayerImpl.obj
 0001:00015af0       ?capacity@?$vector@Udnnl_exec_arg_t@@V?$allocator@Udnnl_exec_arg_t@@@std@@@std@@QEBA_KXZ 0000000180016af0 f i MWAvgPoolingLayerImpl.obj
 0001:00015b20       ?capacity@?$vector@Uprimitive@dnnl@@V?$allocator@Uprimitive@dnnl@@@std@@@std@@QEBA_KXZ 0000000180016b20 f i MWAvgPoolingLayerImpl.obj
 0001:00015b50       ?capacity@?$vector@V?$unordered_map@HUmemory@dnnl@@U?$hash@H@std@@U?$equal_to@H@4@V?$allocator@U?$pair@$$CBHUmemory@dnnl@@@std@@@4@@std@@V?$allocator@V?$unordered_map@HUmemory@dnnl@@U?$hash@H@std@@U?$equal_to@H@4@V?$allocator@U?$pair@$$CBHUmemory@dnnl@@@std@@@4@@std@@@2@@std@@QEBA_KXZ 0000000180016b50 f i MWAvgPoolingLayerImpl.obj
 0001:00015b80       ?cbegin@?$vector@W4query@dnnl@@V?$allocator@W4query@dnnl@@@std@@@std@@QEBA?AV?$_Vector_const_iterator@V?$_Vector_val@U?$_Simple_types@W4query@dnnl@@@std@@@std@@@2@XZ 0000000180016b80 f i MWAvgPoolingLayerImpl.obj
 0001:00015bb0       ?cend@?$vector@W4query@dnnl@@V?$allocator@W4query@dnnl@@@std@@@std@@QEBA?AV?$_Vector_const_iterator@V?$_Vector_val@U?$_Simple_types@W4query@dnnl@@@std@@@std@@@2@XZ 0000000180016bb0 f i MWAvgPoolingLayerImpl.obj
 0001:00015be0       ?cleanup@MWCNNLayerImpl@@UEAAXXZ 0000000180016be0 f i MWAvgPoolingLayerImpl.obj
 0001:00015bf0       ?clear@?$_Hash@V?$_Umap_traits@HUmemory@dnnl@@V?$_Uhash_compare@HU?$hash@H@std@@U?$equal_to@H@2@@std@@V?$allocator@U?$pair@$$CBHUmemory@dnnl@@@std@@@4@$0A@@std@@@std@@QEAAXXZ 0000000180016bf0 f i MWAvgPoolingLayerImpl.obj
 0001:00015ca0       ?clear@?$list@U?$pair@$$CBHUmemory@dnnl@@@std@@V?$allocator@U?$pair@$$CBHUmemory@dnnl@@@std@@@2@@std@@QEAAXXZ 0000000180016ca0 f i MWAvgPoolingLayerImpl.obj
 0001:00015d10       ?convert_to_c@dnnl@@YA?AW4dnnl_alg_kind_t@@W4algorithm@1@@Z 0000000180016d10 f i MWAvgPoolingLayerImpl.obj
 0001:00015d20       ?convert_to_c@dnnl@@YA?AW4dnnl_prop_kind_t@@W4prop_kind@1@@Z 0000000180016d20 f i MWAvgPoolingLayerImpl.obj
 0001:00015d30       ?convert_to_c@dnnl@@YA?AW4dnnl_query_t@@W4query@1@@Z 0000000180016d30 f i MWAvgPoolingLayerImpl.obj
 0001:00015d40       ?convert_to_c@memory@dnnl@@SA?AW4dnnl_data_type_t@@W4data_type@12@@Z 0000000180016d40 f i MWAvgPoolingLayerImpl.obj
 0001:00015d50       ?convert_to_c@memory@dnnl@@SA?AW4dnnl_format_tag_t@@W4format_tag@12@@Z 0000000180016d50 f i MWAvgPoolingLayerImpl.obj
 0001:00015d60       ?data@?$vector@Udnnl_exec_arg_t@@V?$allocator@Udnnl_exec_arg_t@@@std@@@std@@QEAAPEAUdnnl_exec_arg_t@@XZ 0000000180016d60 f i MWAvgPoolingLayerImpl.obj
 0001:00015d80       ?data@?$vector@_JV?$allocator@_J@std@@@std@@QEBAPEB_JXZ 0000000180016d80 f i MWAvgPoolingLayerImpl.obj
 0001:00015da0       ?deallocate@?$_Default_allocator_traits@V?$allocator@U?$_List_node@U?$pair@$$CBHUmemory@dnnl@@@std@@PEAX@std@@@std@@@std@@SAXAEAV?$allocator@U?$_List_node@U?$pair@$$CBHUmemory@dnnl@@@std@@PEAX@std@@@2@QEAU?$_List_node@U?$pair@$$CBHUmemory@dnnl@@@std@@PEAX@2@_K@Z 0000000180016da0 f i MWAvgPoolingLayerImpl.obj
 0001:00015dd0       ?deallocate@?$_Default_allocator_traits@V?$allocator@U?$_Tree_node@U?$pair@$$CBHV?$shared_ptr@Umemory@dnnl@@@std@@@std@@PEAX@std@@@std@@@std@@SAXAEAV?$allocator@U?$_Tree_node@U?$pair@$$CBHV?$shared_ptr@Umemory@dnnl@@@std@@@std@@PEAX@std@@@2@QEAU?$_Tree_node@U?$pair@$$CBHV?$shared_ptr@Umemory@dnnl@@@std@@@std@@PEAX@2@_K@Z 0000000180016dd0 f i MWAvgPoolingLayerImpl.obj
 0001:00015e00       ?deallocate@?$_Default_allocator_traits@V?$allocator@U?$_Tree_node@U?$pair@$$CBHV?$shared_ptr@Ureorder@dnnl@@@std@@@std@@PEAX@std@@@std@@@std@@SAXAEAV?$allocator@U?$_Tree_node@U?$pair@$$CBHV?$shared_ptr@Ureorder@dnnl@@@std@@@std@@PEAX@std@@@2@QEAU?$_Tree_node@U?$pair@$$CBHV?$shared_ptr@Ureorder@dnnl@@@std@@@std@@PEAX@2@_K@Z 0000000180016e00 f i MWAvgPoolingLayerImpl.obj
 0001:00015e30       ?deallocate@?$allocator@U?$_List_node@U?$pair@$$CBHUmemory@dnnl@@@std@@PEAX@std@@@std@@QEAAXQEAU?$_List_node@U?$pair@$$CBHUmemory@dnnl@@@std@@PEAX@2@_K@Z 0000000180016e30 f i MWAvgPoolingLayerImpl.obj
 0001:00015e60       ?deallocate@?$allocator@Udnnl_exec_arg_t@@@std@@QEAAXQEAUdnnl_exec_arg_t@@_K@Z 0000000180016e60 f i MWAvgPoolingLayerImpl.obj
 0001:00015e90       ?deallocate@?$allocator@Uprimitive@dnnl@@@std@@QEAAXQEAUprimitive@dnnl@@_K@Z 0000000180016e90 f i MWAvgPoolingLayerImpl.obj
 0001:00015ec0       ?deallocate@?$allocator@V?$_List_unchecked_iterator@V?$_List_val@U?$_List_simple_types@U?$pair@$$CBHUmemory@dnnl@@@std@@@std@@@std@@@std@@@std@@QEAAXQEAV?$_List_unchecked_iterator@V?$_List_val@U?$_List_simple_types@U?$pair@$$CBHUmemory@dnnl@@@std@@@std@@@std@@@2@_K@Z 0000000180016ec0 f i MWAvgPoolingLayerImpl.obj
 0001:00015ef0       ?deallocate@?$allocator@V?$unordered_map@HUmemory@dnnl@@U?$hash@H@std@@U?$equal_to@H@4@V?$allocator@U?$pair@$$CBHUmemory@dnnl@@@std@@@4@@std@@@std@@QEAAXQEAV?$unordered_map@HUmemory@dnnl@@U?$hash@H@std@@U?$equal_to@H@4@V?$allocator@U?$pair@$$CBHUmemory@dnnl@@@std@@@4@@2@_K@Z 0000000180016ef0 f i MWAvgPoolingLayerImpl.obj
 0001:00015f20       ?deallocate@?$allocator@W4query@dnnl@@@std@@QEAAXQEAW4query@dnnl@@_K@Z 0000000180016f20 f i MWAvgPoolingLayerImpl.obj
 0001:00015f50       ?deallocate@?$allocator@_J@std@@QEAAXQEA_J_K@Z 0000000180016f50 f i MWAvgPoolingLayerImpl.obj
 0001:00015f80       ?deallocate@MWCNNLayerImpl@@UEAAXXZ 0000000180016f80 f i MWAvgPoolingLayerImpl.obj
 0001:00015f90       ?destructor@?$handle_traits@PEAUdnnl_memory@@@dnnl@@SA?AW4dnnl_status_t@@PEAUdnnl_memory@@@Z 0000000180016f90 f i MWAvgPoolingLayerImpl.obj
 0001:00015fb0       ?destructor@?$handle_traits@PEAUdnnl_primitive@@@dnnl@@SA?AW4dnnl_status_t@@PEAUdnnl_primitive@@@Z 0000000180016fb0 f i MWAvgPoolingLayerImpl.obj
 0001:00015fd0       ?destructor@?$handle_traits@PEAUdnnl_primitive_desc@@@dnnl@@SA?AW4dnnl_status_t@@PEAUdnnl_primitive_desc@@@Z 0000000180016fd0 f i MWAvgPoolingLayerImpl.obj
 0001:00015ff0       ?destructor@?$handle_traits@PEAUdnnl_primitive_desc_iterator@@@dnnl@@SA?AW4dnnl_status_t@@PEAUdnnl_primitive_desc_iterator@@@Z 0000000180016ff0 f i MWAvgPoolingLayerImpl.obj
 0001:00016010       ?destructor@?$handle_traits@PEAUdnnl_stream@@@dnnl@@SA?AW4dnnl_status_t@@PEAUdnnl_stream@@@Z 0000000180017010 f i MWAvgPoolingLayerImpl.obj
 0001:00016030       ?dst_desc@primitive_desc@pooling_forward@dnnl@@QEBA?AUdesc@memory@3@XZ 0000000180017030 f i MWAvgPoolingLayerImpl.obj
 0001:00016060       ?dst_desc@primitive_desc_base@dnnl@@QEBA?AUdesc@memory@2@H@Z 0000000180017060 f i MWAvgPoolingLayerImpl.obj
 0001:000160a0       ?dummy_destructor@?$handle@PEAUdnnl_memory@@U?$handle_traits@PEAUdnnl_memory@@@dnnl@@@dnnl@@CA?AW4dnnl_status_t@@PEAUdnnl_memory@@@Z 00000001800170a0 f i MWAvgPoolingLayerImpl.obj
 0001:000160b0       ?dummy_destructor@?$handle@PEAUdnnl_primitive@@U?$handle_traits@PEAUdnnl_primitive@@@dnnl@@@dnnl@@CA?AW4dnnl_status_t@@PEAUdnnl_primitive@@@Z 00000001800170b0 f i MWAvgPoolingLayerImpl.obj
 0001:000160c0       ?dummy_destructor@?$handle@PEAUdnnl_primitive_desc@@U?$handle_traits@PEAUdnnl_primitive_desc@@@dnnl@@@dnnl@@CA?AW4dnnl_status_t@@PEAUdnnl_primitive_desc@@@Z 00000001800170c0 f i MWAvgPoolingLayerImpl.obj
 0001:000160d0       ?dummy_destructor@?$handle@PEAUdnnl_primitive_desc_iterator@@U?$handle_traits@PEAUdnnl_primitive_desc_iterator@@@dnnl@@@dnnl@@CA?AW4dnnl_status_t@@PEAUdnnl_primitive_desc_iterator@@@Z 00000001800170d0 f i MWAvgPoolingLayerImpl.obj
 0001:000160e0       ?dummy_destructor@?$handle@PEAUdnnl_stream@@U?$handle_traits@PEAUdnnl_stream@@@dnnl@@@dnnl@@CA?AW4dnnl_status_t@@PEAUdnnl_stream@@@Z 00000001800170e0 f i MWAvgPoolingLayerImpl.obj
 0001:000160f0       ?end@?$initializer_list@U?$pair@$$CBHUmemory@dnnl@@@std@@@std@@QEBAPEBU?$pair@$$CBHUmemory@dnnl@@@2@XZ 00000001800170f0 f i MWAvgPoolingLayerImpl.obj
 0001:00016100       ?end@?$initializer_list@W4query@dnnl@@@std@@QEBAPEBW4query@dnnl@@XZ 0000000180017100 f i MWAvgPoolingLayerImpl.obj
 0001:00016110       ?end@?$initializer_list@_J@std@@QEBAPEB_JXZ 0000000180017110 f i MWAvgPoolingLayerImpl.obj
 0001:00016120       ?end@?$vector@W4query@dnnl@@V?$allocator@W4query@dnnl@@@std@@@std@@QEBA?AV?$_Vector_const_iterator@V?$_Vector_val@U?$_Simple_types@W4query@dnnl@@@std@@@std@@@2@XZ 0000000180017120 f i MWAvgPoolingLayerImpl.obj
 0001:00016170       ?execute@primitive@dnnl@@QEBAXAEBUstream@2@AEBV?$unordered_map@HUmemory@dnnl@@U?$hash@H@std@@U?$equal_to@H@4@V?$allocator@U?$pair@$$CBHUmemory@dnnl@@@std@@@4@@std@@@Z 0000000180017170 f i MWAvgPoolingLayerImpl.obj
 0001:000162c0       ?fetch_impl@primitive_desc@dnnl@@AEAAXXZ 00000001800172c0 f i MWAvgPoolingLayerImpl.obj
 0001:00016340       ?get@?$_Ptr_base@Udnnl_engine@@@std@@IEBAPEAUdnnl_engine@@XZ 0000000180017340 f i MWAvgPoolingLayerImpl.obj
 0001:00016350       ?get@?$_Ptr_base@Udnnl_memory@@@std@@IEBAPEAUdnnl_memory@@XZ 0000000180017350 f i MWAvgPoolingLayerImpl.obj
 0001:00016360       ?get@?$_Ptr_base@Udnnl_primitive@@@std@@IEBAPEAUdnnl_primitive@@XZ 0000000180017360 f i MWAvgPoolingLayerImpl.obj
 0001:00016370       ?get@?$_Ptr_base@Udnnl_primitive_attr@@@std@@IEBAPEAUdnnl_primitive_attr@@XZ 0000000180017370 f i MWAvgPoolingLayerImpl.obj
 0001:00016380       ?get@?$_Ptr_base@Udnnl_primitive_desc@@@std@@IEBAPEAUdnnl_primitive_desc@@XZ 0000000180017380 f i MWAvgPoolingLayerImpl.obj
 0001:00016390       ?get@?$_Ptr_base@Udnnl_primitive_desc_iterator@@@std@@IEBAPEAUdnnl_primitive_desc_iterator@@XZ 0000000180017390 f i MWAvgPoolingLayerImpl.obj
 0001:000163a0       ?get@?$_Ptr_base@Udnnl_stream@@@std@@IEBAPEAUdnnl_stream@@XZ 00000001800173a0 f i MWAvgPoolingLayerImpl.obj
 0001:000163b0       ?get@?$_Ptr_base@Udnnl_stream_attr@@@std@@IEBAPEAUdnnl_stream_attr@@XZ 00000001800173b0 f i MWAvgPoolingLayerImpl.obj
 0001:000163c0       ?get@?$_Ptr_base@Umemory@dnnl@@@std@@IEBAPEAUmemory@dnnl@@XZ 00000001800173c0 f i MWAvgPoolingLayerImpl.obj
 0001:000163d0       ?get@?$handle@PEAUdnnl_engine@@U?$handle_traits@PEAUdnnl_engine@@@dnnl@@@dnnl@@QEBAPEAUdnnl_engine@@_N@Z 00000001800173d0 f i MWAvgPoolingLayerImpl.obj
 0001:00016440       ?get@?$handle@PEAUdnnl_memory@@U?$handle_traits@PEAUdnnl_memory@@@dnnl@@@dnnl@@QEBAPEAUdnnl_memory@@_N@Z 0000000180017440 f i MWAvgPoolingLayerImpl.obj
 0001:000164b0       ?get@?$handle@PEAUdnnl_primitive@@U?$handle_traits@PEAUdnnl_primitive@@@dnnl@@@dnnl@@QEBAPEAUdnnl_primitive@@_N@Z 00000001800174b0 f i MWAvgPoolingLayerImpl.obj
 0001:00016520       ?get@?$handle@PEAUdnnl_primitive_attr@@U?$handle_traits@PEAUdnnl_primitive_attr@@@dnnl@@@dnnl@@QEBAPEAUdnnl_primitive_attr@@_N@Z 0000000180017520 f i MWAvgPoolingLayerImpl.obj
 0001:00016590       ?get@?$handle@PEAUdnnl_primitive_desc@@U?$handle_traits@PEAUdnnl_primitive_desc@@@dnnl@@@dnnl@@QEBAPEAUdnnl_primitive_desc@@_N@Z 0000000180017590 f i MWAvgPoolingLayerImpl.obj
 0001:00016600       ?get@?$handle@PEAUdnnl_primitive_desc_iterator@@U?$handle_traits@PEAUdnnl_primitive_desc_iterator@@@dnnl@@@dnnl@@QEBAPEAUdnnl_primitive_desc_iterator@@_N@Z 0000000180017600 f i MWAvgPoolingLayerImpl.obj
 0001:00016670       ?get@?$handle@PEAUdnnl_stream@@U?$handle_traits@PEAUdnnl_stream@@@dnnl@@@dnnl@@QEBAPEAUdnnl_stream@@_N@Z 0000000180017670 f i MWAvgPoolingLayerImpl.obj
 0001:000166e0       ?get@?$handle@PEAUdnnl_stream_attr@@U?$handle_traits@PEAUdnnl_stream_attr@@@dnnl@@@dnnl@@QEBAPEAUdnnl_stream_attr@@_N@Z 00000001800176e0 f i MWAvgPoolingLayerImpl.obj
 0001:00016750       ?getLayer@MWCNNLayerImpl@@QEAAPEAVMWCNNLayer@@XZ 0000000180017750 f i MWAvgPoolingLayerImpl.obj
 0001:00016760       ?get_desc@memory@dnnl@@QEBA?AUdesc@12@XZ 0000000180017760 f i MWAvgPoolingLayerImpl.obj
 0001:000167b0       ?insert@?$_Hash@V?$_Umap_traits@HUmemory@dnnl@@V?$_Uhash_compare@HU?$hash@H@std@@U?$equal_to@H@2@@std@@V?$allocator@U?$pair@$$CBHUmemory@dnnl@@@std@@@4@$0A@@std@@@std@@QEAAXV?$initializer_list@U?$pair@$$CBHUmemory@dnnl@@@std@@@2@@Z 00000001800177b0 f i MWAvgPoolingLayerImpl.obj
 0001:00016800       ?max_load_factor@?$_Hash@V?$_Umap_traits@HUmemory@dnnl@@V?$_Uhash_compare@HU?$hash@H@std@@U?$equal_to@H@2@@std@@V?$allocator@U?$pair@$$CBHUmemory@dnnl@@@std@@@4@$0A@@std@@@std@@QEBAMXZ 0000000180017800 f i MWAvgPoolingLayerImpl.obj
 0001:00016820       ?max_size@?$_Default_allocator_traits@V?$allocator@U?$_List_node@U?$pair@$$CBHUmemory@dnnl@@@std@@PEAX@std@@@std@@@std@@SA_KAEBV?$allocator@U?$_List_node@U?$pair@$$CBHUmemory@dnnl@@@std@@PEAX@std@@@2@@Z 0000000180017820 f i MWAvgPoolingLayerImpl.obj
 0001:00016830       ?max_size@?$_Default_allocator_traits@V?$allocator@Udnnl_exec_arg_t@@@std@@@std@@SA_KAEBV?$allocator@Udnnl_exec_arg_t@@@2@@Z 0000000180017830 f i MWAvgPoolingLayerImpl.obj
 0001:00016840       ?max_size@?$_Default_allocator_traits@V?$allocator@Uprimitive@dnnl@@@std@@@std@@SA_KAEBV?$allocator@Uprimitive@dnnl@@@2@@Z 0000000180017840 f i MWAvgPoolingLayerImpl.obj
 0001:00016850       ?max_size@?$_Default_allocator_traits@V?$allocator@V?$_List_unchecked_iterator@V?$_List_val@U?$_List_simple_types@U?$pair@$$CBHUmemory@dnnl@@@std@@@std@@@std@@@std@@@std@@@std@@SA_KAEBV?$allocator@V?$_List_unchecked_iterator@V?$_List_val@U?$_List_simple_types@U?$pair@$$CBHUmemory@dnnl@@@std@@@std@@@std@@@std@@@2@@Z 0000000180017850 f i MWAvgPoolingLayerImpl.obj
 0001:00016860       ?max_size@?$_Default_allocator_traits@V?$allocator@V?$unordered_map@HUmemory@dnnl@@U?$hash@H@std@@U?$equal_to@H@4@V?$allocator@U?$pair@$$CBHUmemory@dnnl@@@std@@@4@@std@@@std@@@std@@SA_KAEBV?$allocator@V?$unordered_map@HUmemory@dnnl@@U?$hash@H@std@@U?$equal_to@H@4@V?$allocator@U?$pair@$$CBHUmemory@dnnl@@@std@@@4@@std@@@2@@Z 0000000180017860 f i MWAvgPoolingLayerImpl.obj
 0001:00016870       ?max_size@?$_Default_allocator_traits@V?$allocator@W4query@dnnl@@@std@@@std@@SA_KAEBV?$allocator@W4query@dnnl@@@2@@Z 0000000180017870 f i MWAvgPoolingLayerImpl.obj
 0001:00016880       ?max_size@?$_Default_allocator_traits@V?$allocator@_J@std@@@std@@SA_KAEBV?$allocator@_J@2@@Z 0000000180017880 f i MWAvgPoolingLayerImpl.obj
 0001:00016890       ?max_size@?$_Hash_vec@V?$allocator@V?$_List_unchecked_iterator@V?$_List_val@U?$_List_simple_types@U?$pair@$$CBHUmemory@dnnl@@@std@@@std@@@std@@@std@@@std@@@std@@QEBA_KXZ 0000000180017890 f i MWAvgPoolingLayerImpl.obj
 0001:000168e0       ?max_size@?$list@U?$pair@$$CBHUmemory@dnnl@@@std@@V?$allocator@U?$pair@$$CBHUmemory@dnnl@@@std@@@2@@std@@QEBA_KXZ 00000001800178e0 f i MWAvgPoolingLayerImpl.obj
 0001:00016930       ?max_size@?$vector@Udnnl_exec_arg_t@@V?$allocator@Udnnl_exec_arg_t@@@std@@@std@@QEBA_KXZ 0000000180017930 f i MWAvgPoolingLayerImpl.obj
 0001:00016980       ?max_size@?$vector@Uprimitive@dnnl@@V?$allocator@Uprimitive@dnnl@@@std@@@std@@QEBA_KXZ 0000000180017980 f i MWAvgPoolingLayerImpl.obj
 0001:000169d0       ?max_size@?$vector@V?$unordered_map@HUmemory@dnnl@@U?$hash@H@std@@U?$equal_to@H@4@V?$allocator@U?$pair@$$CBHUmemory@dnnl@@@std@@@4@@std@@V?$allocator@V?$unordered_map@HUmemory@dnnl@@U?$hash@H@std@@U?$equal_to@H@4@V?$allocator@U?$pair@$$CBHUmemory@dnnl@@@std@@@4@@std@@@2@@std@@QEBA_KXZ 00000001800179d0 f i MWAvgPoolingLayerImpl.obj
 0001:00016a20       ?max_size@?$vector@W4query@dnnl@@V?$allocator@W4query@dnnl@@@std@@@std@@QEBA_KXZ 0000000180017a20 f i MWAvgPoolingLayerImpl.obj
 0001:00016a70       ?max_size@?$vector@_JV?$allocator@_J@std@@@std@@QEBA_KXZ 0000000180017a70 f i MWAvgPoolingLayerImpl.obj
 0001:00016ac0       ?postSetup@MWCNNLayerImpl@@UEAAXXZ 0000000180017ac0 f i MWAvgPoolingLayerImpl.obj
 0001:00016ad0       ?predict@MWCNNLayerImpl@@UEAAXXZ 0000000180017ad0 f i MWAvgPoolingLayerImpl.obj
 0001:00016ae0       ?push_back@?$vector@Udnnl_exec_arg_t@@V?$allocator@Udnnl_exec_arg_t@@@std@@@std@@QEAAX$$QEAUdnnl_exec_arg_t@@@Z 0000000180017ae0 f i MWAvgPoolingLayerImpl.obj
 0001:00016b10       ?push_back@?$vector@Uprimitive@dnnl@@V?$allocator@Uprimitive@dnnl@@@std@@@std@@QEAAXAEBUprimitive@dnnl@@@Z 0000000180017b10 f i MWAvgPoolingLayerImpl.obj
 0001:00016b40       ?push_back@?$vector@V?$unordered_map@HUmemory@dnnl@@U?$hash@H@std@@U?$equal_to@H@4@V?$allocator@U?$pair@$$CBHUmemory@dnnl@@@std@@@4@@std@@V?$allocator@V?$unordered_map@HUmemory@dnnl@@U?$hash@H@std@@U?$equal_to@H@4@V?$allocator@U?$pair@$$CBHUmemory@dnnl@@@std@@@4@@std@@@2@@std@@QEAAX$$QEAV?$unordered_map@HUmemory@dnnl@@U?$hash@H@std@@U?$equal_to@H@4@V?$allocator@U?$pair@$$CBHUmemory@dnnl@@@std@@@4@@2@@Z 0000000180017b40 f i MWAvgPoolingLayerImpl.obj
 0001:00016b70       ?query_md@primitive_desc_base@dnnl@@QEBA?AUdesc@memory@2@W4query@2@H@Z 0000000180017b70 f i MWAvgPoolingLayerImpl.obj
 0001:00016db0       ?release@?$unique_ptr@Udesc@pooling_forward@dnnl@@U?$default_delete@Udesc@pooling_forward@dnnl@@@std@@@std@@QEAAPEAUdesc@pooling_forward@dnnl@@XZ 0000000180017db0 f i MWAvgPoolingLayerImpl.obj
 0001:00016de0       ?release@?$unique_ptr@Upooling_forward@dnnl@@U?$default_delete@Upooling_forward@dnnl@@@std@@@std@@QEAAPEAUpooling_forward@dnnl@@XZ 0000000180017de0 f i MWAvgPoolingLayerImpl.obj
 0001:00016e10       ?release@?$unique_ptr@Uprimitive_desc@pooling_forward@dnnl@@U?$default_delete@Uprimitive_desc@pooling_forward@dnnl@@@std@@@std@@QEAAPEAUprimitive_desc@pooling_forward@dnnl@@XZ 0000000180017e10 f i MWAvgPoolingLayerImpl.obj
 0001:00016e40       ?reserve@?$vector@Udnnl_exec_arg_t@@V?$allocator@Udnnl_exec_arg_t@@@std@@@std@@QEAAX_K@Z 0000000180017e40 f i MWAvgPoolingLayerImpl.obj
 0001:00016e90       ?reset@?$handle@PEAUdnnl_memory@@U?$handle_traits@PEAUdnnl_memory@@@dnnl@@@dnnl@@QEAAXPEAUdnnl_memory@@_N@Z 0000000180017e90 f i MWAvgPoolingLayerImpl.obj
 0001:00016ef0       ?reset@?$handle@PEAUdnnl_primitive@@U?$handle_traits@PEAUdnnl_primitive@@@dnnl@@@dnnl@@QEAAXPEAUdnnl_primitive@@_N@Z 0000000180017ef0 f i MWAvgPoolingLayerImpl.obj
 0001:00016f50       ?reset@?$handle@PEAUdnnl_primitive_desc@@U?$handle_traits@PEAUdnnl_primitive_desc@@@dnnl@@@dnnl@@QEAAXPEAUdnnl_primitive_desc@@_N@Z 0000000180017f50 f i MWAvgPoolingLayerImpl.obj
 0001:00016fb0       ?reset@?$handle@PEAUdnnl_primitive_desc_iterator@@U?$handle_traits@PEAUdnnl_primitive_desc_iterator@@@dnnl@@@dnnl@@QEAAXPEAUdnnl_primitive_desc_iterator@@_N@Z 0000000180017fb0 f i MWAvgPoolingLayerImpl.obj
 0001:00017010       ?reset@?$handle@PEAUdnnl_stream@@U?$handle_traits@PEAUdnnl_stream@@@dnnl@@@dnnl@@QEAAXPEAUdnnl_stream@@_N@Z 0000000180018010 f i MWAvgPoolingLayerImpl.obj
 0001:00017070       ?reset@?$unique_ptr@Udesc@pooling_forward@dnnl@@U?$default_delete@Udesc@pooling_forward@dnnl@@@std@@@std@@QEAAXPEAUdesc@pooling_forward@dnnl@@@Z 0000000180018070 f i MWAvgPoolingLayerImpl.obj
 0001:000170c0       ?reset@?$unique_ptr@Uprimitive@dnnl@@U?$default_delete@Uprimitive@dnnl@@@std@@@std@@QEAAXPEAUprimitive@dnnl@@@Z 00000001800180c0 f i MWAvgPoolingLayerImpl.obj
 0001:00017110       ?reset@?$unique_ptr@Uprimitive_desc@pooling_forward@dnnl@@U?$default_delete@Uprimitive_desc@pooling_forward@dnnl@@@std@@@std@@QEAAXPEAUprimitive_desc@pooling_forward@dnnl@@@Z 0000000180018110 f i MWAvgPoolingLayerImpl.obj
 0001:00017160       ?select_on_container_copy_construction@?$_Default_allocator_traits@V?$allocator@U?$_List_node@U?$pair@$$CBHUmemory@dnnl@@@std@@PEAX@std@@@std@@@std@@SA?AV?$allocator@U?$_List_node@U?$pair@$$CBHUmemory@dnnl@@@std@@PEAX@std@@@2@AEBV32@@Z 0000000180018160 f i MWAvgPoolingLayerImpl.obj
 0001:00017170       ?size@?$_Hash@V?$_Umap_traits@HUmemory@dnnl@@V?$_Uhash_compare@HU?$hash@H@std@@U?$equal_to@H@2@@std@@V?$allocator@U?$pair@$$CBHUmemory@dnnl@@@std@@@4@$0A@@std@@@std@@QEBA_KXZ 0000000180018170 f i MWAvgPoolingLayerImpl.obj
 0001:00017190       ?size@?$_Hash_vec@V?$allocator@V?$_List_unchecked_iterator@V?$_List_val@U?$_List_simple_types@U?$pair@$$CBHUmemory@dnnl@@@std@@@std@@@std@@@std@@@std@@@std@@QEBA_KXZ 0000000180018190 f i MWAvgPoolingLayerImpl.obj
 0001:000171b0       ?size@?$list@U?$pair@$$CBHUmemory@dnnl@@@std@@V?$allocator@U?$pair@$$CBHUmemory@dnnl@@@std@@@2@@std@@QEBA_KXZ 00000001800181b0 f i MWAvgPoolingLayerImpl.obj
 0001:000171c0       ?size@?$vector@Udnnl_exec_arg_t@@V?$allocator@Udnnl_exec_arg_t@@@std@@@std@@QEBA_KXZ 00000001800181c0 f i MWAvgPoolingLayerImpl.obj
 0001:000171f0       ?size@?$vector@Uprimitive@dnnl@@V?$allocator@Uprimitive@dnnl@@@std@@@std@@QEBA_KXZ 00000001800181f0 f i MWAvgPoolingLayerImpl.obj
 0001:00017220       ?size@?$vector@V?$unordered_map@HUmemory@dnnl@@U?$hash@H@std@@U?$equal_to@H@4@V?$allocator@U?$pair@$$CBHUmemory@dnnl@@@std@@@4@@std@@V?$allocator@V?$unordered_map@HUmemory@dnnl@@U?$hash@H@std@@U?$equal_to@H@4@V?$allocator@U?$pair@$$CBHUmemory@dnnl@@@std@@@4@@std@@@2@@std@@QEBA_KXZ 0000000180018220 f i MWAvgPoolingLayerImpl.obj
 0001:00017250       ?size@?$vector@_JV?$allocator@_J@std@@@std@@QEBA_KXZ 0000000180018250 f i MWAvgPoolingLayerImpl.obj
 0001:00017280       ?swap@?$shared_ptr@Udnnl_memory@@@std@@QEAAXAEAV12@@Z 0000000180018280 f i MWAvgPoolingLayerImpl.obj
 0001:000172b0       ?swap@?$shared_ptr@Udnnl_primitive@@@std@@QEAAXAEAV12@@Z 00000001800182b0 f i MWAvgPoolingLayerImpl.obj
 0001:000172e0       ?swap@?$shared_ptr@Udnnl_primitive_desc@@@std@@QEAAXAEAV12@@Z 00000001800182e0 f i MWAvgPoolingLayerImpl.obj
 0001:00017310       ?swap@?$shared_ptr@Udnnl_primitive_desc_iterator@@@std@@QEAAXAEAV12@@Z 0000000180018310 f i MWAvgPoolingLayerImpl.obj
 0001:00017340       ?swap@?$shared_ptr@Udnnl_stream@@@std@@QEAAXAEAV12@@Z 0000000180018340 f i MWAvgPoolingLayerImpl.obj
 0001:00017370       ?what@error@dnnl@@UEBAPEBDXZ 0000000180018370 f i MWAvgPoolingLayerImpl.obj
 0001:00017380       ?wrap_c_api@error@dnnl@@SAXW4dnnl_status_t@@PEBD@Z 0000000180018380 f i MWAvgPoolingLayerImpl.obj
 0001:000173c0       ??0MWConvLayerImpl@@QEAA@PEAVMWCNNLayer@@PEAVMWTargetNetworkImpl@@HHHHHHHHHHHHHPEBD2@Z 00000001800183c0 f   MWConvLayerImpl.obj
 0001:00018410       ??1MWConvLayerImpl@@UEAA@XZ 0000000180019410 f   MWConvLayerImpl.obj
 0001:00018540       ?predict@MWConvLayerImpl@@UEAAXXZ 0000000180019540 f   MWConvLayerImpl.obj
 0001:000186b0       ?propagateSize@MWConvLayerImpl@@UEAAXXZ 00000001800196b0 f   MWConvLayerImpl.obj
 0001:0001a550       ?cleanup@MWConvLayerImpl@@UEAAXXZ 000000018001b550 f   MWConvLayerImpl.obj
 0001:0001a5d0       ?loadWeights@MWConvLayerImpl@@AEAAXPEBDH@Z 000000018001b5d0 f   MWConvLayerImpl.obj
 0001:0001a640       ?loadBias@MWConvLayerImpl@@AEAAXPEBDH@Z 000000018001b640 f   MWConvLayerImpl.obj
 0001:0001a6c0       ??$?0$$V@?$_Compressed_pair@U?$default_delete@Udesc@convolution_forward@dnnl@@@std@@PEAUdesc@convolution_forward@dnnl@@$00@std@@QEAA@U_Zero_then_variadic_args_t@1@@Z 000000018001b6c0 f i MWConvLayerImpl.obj
 0001:0001a6e0       ??$?0$$V@?$_Compressed_pair@U?$default_delete@Udesc@memory@dnnl@@@std@@PEAUdesc@memory@dnnl@@$00@std@@QEAA@U_Zero_then_variadic_args_t@1@@Z 000000018001b6e0 f i MWConvLayerImpl.obj
 0001:0001a700       ??$?0$$V@?$_Compressed_pair@U?$default_delete@Uprimitive_desc@convolution_forward@dnnl@@@std@@PEAUprimitive_desc@convolution_forward@dnnl@@$00@std@@QEAA@U_Zero_then_variadic_args_t@1@@Z 000000018001b700 f i MWConvLayerImpl.obj
 0001:0001a720       ??$?0$$V@?$_Compressed_pair@U?$default_delete@Ureorder@dnnl@@@std@@PEAUreorder@dnnl@@$00@std@@QEAA@U_Zero_then_variadic_args_t@1@@Z 000000018001b720 f i MWConvLayerImpl.obj
 0001:0001a740       ??$?0$$V@?$_Compressed_pair@V?$allocator@_J@std@@V?$_Vector_val@U?$_Simple_types@_J@std@@@2@$00@std@@QEAA@U_Zero_then_variadic_args_t@1@@Z 000000018001b740 f i MWConvLayerImpl.obj
 0001:0001a770       ??$?0AEAPEAUconvolution_forward@dnnl@@@?$_Compressed_pair@U?$default_delete@Uconvolution_forward@dnnl@@@std@@PEAUconvolution_forward@dnnl@@$00@std@@QEAA@U_Zero_then_variadic_args_t@1@AEAPEAUconvolution_forward@dnnl@@@Z 000000018001b770 f i MWConvLayerImpl.obj
 0001:0001a7b0       ??$?0AEAPEAUdesc@convolution_forward@dnnl@@@?$_Compressed_pair@U?$default_delete@Udesc@convolution_forward@dnnl@@@std@@PEAUdesc@convolution_forward@dnnl@@$00@std@@QEAA@U_Zero_then_variadic_args_t@1@AEAPEAUdesc@convolution_forward@dnnl@@@Z 000000018001b7b0 f i MWConvLayerImpl.obj
 0001:0001a7f0       ??$?0AEAPEAUdesc@memory@dnnl@@@?$_Compressed_pair@U?$default_delete@Udesc@memory@dnnl@@@std@@PEAUdesc@memory@dnnl@@$00@std@@QEAA@U_Zero_then_variadic_args_t@1@AEAPEAUdesc@memory@dnnl@@@Z 000000018001b7f0 f i MWConvLayerImpl.obj
 0001:0001a830       ??$?0AEAPEAUprimitive_desc@convolution_forward@dnnl@@@?$_Compressed_pair@U?$default_delete@Uprimitive_desc@convolution_forward@dnnl@@@std@@PEAUprimitive_desc@convolution_forward@dnnl@@$00@std@@QEAA@U_Zero_then_variadic_args_t@1@AEAPEAUprimitive_desc@convolution_forward@dnnl@@@Z 000000018001b830 f i MWConvLayerImpl.obj
 0001:0001a870       ??$?0AEAPEAUreorder@dnnl@@@?$_Compressed_pair@U?$default_delete@Ureorder@dnnl@@@std@@PEAUreorder@dnnl@@$00@std@@QEAA@U_Zero_then_variadic_args_t@1@AEAPEAUreorder@dnnl@@@Z 000000018001b870 f i MWConvLayerImpl.obj
 0001:0001a8b0       ??$?0P6A?AW4dnnl_status_t@@PEAUdnnl_engine@@@ZAEAPEAU1@@?$_Compressed_pair@P6A?AW4dnnl_status_t@@PEAUdnnl_engine@@@ZPEAU2@$0A@@std@@QEAA@U_One_then_variadic_args_t@1@$$QEAP6A?AW4dnnl_status_t@@PEAUdnnl_engine@@@ZAEAPEAU4@@Z 000000018001b8b0 f i MWConvLayerImpl.obj
 0001:0001a900       ??$?0P6A?AW4dnnl_status_t@@PEAUdnnl_primitive_attr@@@ZAEAPEAU1@@?$_Compressed_pair@P6A?AW4dnnl_status_t@@PEAUdnnl_primitive_attr@@@ZPEAU2@$0A@@std@@QEAA@U_One_then_variadic_args_t@1@$$QEAP6A?AW4dnnl_status_t@@PEAUdnnl_primitive_attr@@@ZAEAPEAU4@@Z 000000018001b900 f i MWConvLayerImpl.obj
 0001:0001a950       ??$?0U?$default_delete@Uconvolution_forward@dnnl@@@std@@$0A@@?$unique_ptr@Uconvolution_forward@dnnl@@U?$default_delete@Uconvolution_forward@dnnl@@@std@@@std@@QEAA@PEAUconvolution_forward@dnnl@@@Z 000000018001b950 f i MWConvLayerImpl.obj
 0001:0001a980       ??$?0U?$default_delete@Udesc@convolution_forward@dnnl@@@std@@$0A@@?$unique_ptr@Udesc@convolution_forward@dnnl@@U?$default_delete@Udesc@convolution_forward@dnnl@@@std@@@std@@QEAA@$$QEAV01@@Z 000000018001b980 f i MWConvLayerImpl.obj
 0001:0001a9d0       ??$?0U?$default_delete@Udesc@convolution_forward@dnnl@@@std@@$0A@@?$unique_ptr@Udesc@convolution_forward@dnnl@@U?$default_delete@Udesc@convolution_forward@dnnl@@@std@@@std@@QEAA@PEAUdesc@convolution_forward@dnnl@@@Z 000000018001b9d0 f i MWConvLayerImpl.obj
 0001:0001aa00       ??$?0U?$default_delete@Udesc@convolution_forward@dnnl@@@std@@$0A@@?$unique_ptr@Udesc@convolution_forward@dnnl@@U?$default_delete@Udesc@convolution_forward@dnnl@@@std@@@std@@QEAA@XZ 000000018001ba00 f i MWConvLayerImpl.obj
 0001:0001aa30       ??$?0U?$default_delete@Udesc@convolution_forward@dnnl@@@std@@PEAUdesc@convolution_forward@dnnl@@@?$_Compressed_pair@U?$default_delete@Udesc@convolution_forward@dnnl@@@std@@PEAUdesc@convolution_forward@dnnl@@$00@std@@QEAA@U_One_then_variadic_args_t@1@$$QEAU?$default_delete@Udesc@convolution_forward@dnnl@@@1@$$QEAPEAUdesc@convolution_forward@dnnl@@@Z 000000018001ba30 f i MWConvLayerImpl.obj
 0001:0001aa70       ??$?0U?$default_delete@Udesc@memory@dnnl@@@std@@$0A@@?$unique_ptr@Udesc@memory@dnnl@@U?$default_delete@Udesc@memory@dnnl@@@std@@@std@@QEAA@$$QEAV01@@Z 000000018001ba70 f i MWConvLayerImpl.obj
 0001:0001aac0       ??$?0U?$default_delete@Udesc@memory@dnnl@@@std@@$0A@@?$unique_ptr@Udesc@memory@dnnl@@U?$default_delete@Udesc@memory@dnnl@@@std@@@std@@QEAA@PEAUdesc@memory@dnnl@@@Z 000000018001bac0 f i MWConvLayerImpl.obj
 0001:0001aaf0       ??$?0U?$default_delete@Udesc@memory@dnnl@@@std@@$0A@@?$unique_ptr@Udesc@memory@dnnl@@U?$default_delete@Udesc@memory@dnnl@@@std@@@std@@QEAA@XZ 000000018001baf0 f i MWConvLayerImpl.obj
 0001:0001ab20       ??$?0U?$default_delete@Udesc@memory@dnnl@@@std@@PEAUdesc@memory@dnnl@@@?$_Compressed_pair@U?$default_delete@Udesc@memory@dnnl@@@std@@PEAUdesc@memory@dnnl@@$00@std@@QEAA@U_One_then_variadic_args_t@1@$$QEAU?$default_delete@Udesc@memory@dnnl@@@1@$$QEAPEAUdesc@memory@dnnl@@@Z 000000018001bb20 f i MWConvLayerImpl.obj
 0001:0001ab60       ??$?0U?$default_delete@Uprimitive_desc@convolution_forward@dnnl@@@std@@$0A@@?$unique_ptr@Uprimitive_desc@convolution_forward@dnnl@@U?$default_delete@Uprimitive_desc@convolution_forward@dnnl@@@std@@@std@@QEAA@PEAUprimitive_desc@convolution_forward@dnnl@@@Z 000000018001bb60 f i MWConvLayerImpl.obj
 0001:0001ab90       ??$?0U?$default_delete@Uprimitive_desc@convolution_forward@dnnl@@@std@@$0A@@?$unique_ptr@Uprimitive_desc@convolution_forward@dnnl@@U?$default_delete@Uprimitive_desc@convolution_forward@dnnl@@@std@@@std@@QEAA@XZ 000000018001bb90 f i MWConvLayerImpl.obj
 0001:0001abc0       ??$?0U?$default_delete@Ureorder@dnnl@@@std@@$0A@@?$unique_ptr@Ureorder@dnnl@@U?$default_delete@Ureorder@dnnl@@@std@@@std@@QEAA@PEAUreorder@dnnl@@@Z 000000018001bbc0 f i MWConvLayerImpl.obj
 0001:0001abf0       ??$?0U?$default_delete@Ureorder@dnnl@@@std@@$0A@@?$unique_ptr@Ureorder@dnnl@@U?$default_delete@Ureorder@dnnl@@@std@@@std@@QEAA@XZ 000000018001bbf0 f i MWConvLayerImpl.obj
 0001:0001ac20       ??$?0Uconvolution_forward@dnnl@@$0A@@?$default_delete@Uprimitive@dnnl@@@std@@QEAA@AEBU?$default_delete@Uconvolution_forward@dnnl@@@1@@Z 000000018001bc20 f i MWConvLayerImpl.obj
 0001:0001ac30       ??$?0Udnnl_engine@@P6A?AW4dnnl_status_t@@PEAU0@@Z$0A@@?$shared_ptr@Udnnl_engine@@@std@@QEAA@PEAUdnnl_engine@@P6A?AW4dnnl_status_t@@0@Z@Z 000000018001bc30 f i MWConvLayerImpl.obj
 0001:0001ac80       ??$?0Udnnl_primitive_attr@@P6A?AW4dnnl_status_t@@PEAU0@@Z$0A@@?$shared_ptr@Udnnl_primitive_attr@@@std@@QEAA@PEAUdnnl_primitive_attr@@P6A?AW4dnnl_status_t@@0@Z@Z 000000018001bc80 f i MWConvLayerImpl.obj
 0001:0001acd0       ??$?0Umemory@dnnl@@$0A@@?$shared_ptr@Umemory@dnnl@@@std@@QEAA@PEAUmemory@dnnl@@@Z 000000018001bcd0 f i MWConvLayerImpl.obj
 0001:0001ad70       ??$?4U?$default_delete@Udesc@convolution_forward@dnnl@@@std@@$0A@@?$unique_ptr@Udesc@convolution_forward@dnnl@@U?$default_delete@Udesc@convolution_forward@dnnl@@@std@@@std@@QEAAAEAV01@$$QEAV01@@Z 000000018001bd70 f i MWConvLayerImpl.obj
 0001:0001ade0       ??$?4U?$default_delete@Udesc@memory@dnnl@@@std@@$0A@@?$unique_ptr@Udesc@memory@dnnl@@U?$default_delete@Udesc@memory@dnnl@@@std@@@std@@QEAAAEAV01@$$QEAV01@@Z 000000018001bde0 f i MWConvLayerImpl.obj
 0001:0001ae50       ??$?4U?$default_delete@Uprimitive_desc@convolution_forward@dnnl@@@std@@$0A@@?$unique_ptr@Uprimitive_desc@convolution_forward@dnnl@@U?$default_delete@Uprimitive_desc@convolution_forward@dnnl@@@std@@@std@@QEAAAEAV01@$$QEAV01@@Z 000000018001be50 f i MWConvLayerImpl.obj
 0001:0001aec0       ??$?4U?$default_delete@Ureorder@dnnl@@@std@@$0A@@?$unique_ptr@Ureorder@dnnl@@U?$default_delete@Ureorder@dnnl@@@std@@@std@@QEAAAEAV01@$$QEAV01@@Z 000000018001bec0 f i MWConvLayerImpl.obj
 0001:0001af30       ??$?4Uconvolution_forward@dnnl@@U?$default_delete@Uconvolution_forward@dnnl@@@std@@$0A@@?$unique_ptr@Uprimitive@dnnl@@U?$default_delete@Uprimitive@dnnl@@@std@@@std@@QEAAAEAV01@$$QEAV?$unique_ptr@Uconvolution_forward@dnnl@@U?$default_delete@Uconvolution_forward@dnnl@@@std@@@1@@Z 000000018001bf30 f i MWConvLayerImpl.obj
 0001:0001af90       ??$?HDU?$char_traits@D@std@@V?$allocator@D@1@@std@@YA?AV?$basic_string@DU?$char_traits@D@std@@V?$allocator@D@2@@0@QEBD$$QEAV10@@Z 000000018001bf90 f i MWConvLayerImpl.obj
 0001:0001aff0       ??$_Copy_construct_from@Umemory@dnnl@@@?$_Ptr_base@Umemory@dnnl@@@std@@IEAAXAEBV?$shared_ptr@Umemory@dnnl@@@1@@Z 000000018001bff0 f i MWConvLayerImpl.obj
 0001:0001b030       ??$_Reallocate_grow_by@V<lambda_f3a66ab6a0570788f31503db83886f49>@@_KPEBD_K@?$basic_string@DU?$char_traits@D@std@@V?$allocator@D@2@@std@@AEAAAEAV01@_KV<lambda_f3a66ab6a0570788f31503db83886f49>@@_KPEBD2@Z 000000018001c030 f i MWConvLayerImpl.obj
 0001:0001b230       ??$_Set_ptr_rep_and_enable_shared@Udnnl_engine@@@?$shared_ptr@Udnnl_engine@@@std@@AEAAXQEAUdnnl_engine@@QEAV_Ref_count_base@1@@Z 000000018001c230 f i MWConvLayerImpl.obj
 0001:0001b260       ??$_Set_ptr_rep_and_enable_shared@Udnnl_primitive_attr@@@?$shared_ptr@Udnnl_primitive_attr@@@std@@AEAAXQEAUdnnl_primitive_attr@@QEAV_Ref_count_base@1@@Z 000000018001c260 f i MWConvLayerImpl.obj
 0001:0001b290       ??$_Setpd@PEAUdnnl_engine@@P6A?AW4dnnl_status_t@@PEAU1@@Z@?$shared_ptr@Udnnl_engine@@@std@@AEAAXQEAUdnnl_engine@@P6A?AW4dnnl_status_t@@PEAU2@@Z@Z 000000018001c290 f i MWConvLayerImpl.obj
 0001:0001b330       ??$_Setpd@PEAUdnnl_primitive_attr@@P6A?AW4dnnl_status_t@@PEAU1@@Z@?$shared_ptr@Udnnl_primitive_attr@@@std@@AEAAXQEAUdnnl_primitive_attr@@P6A?AW4dnnl_status_t@@PEAU2@@Z@Z 000000018001c330 f i MWConvLayerImpl.obj
 0001:0001b3d0       ??$addressof@Q6A?AW4dnnl_status_t@@PEAUdnnl_engine@@@Z@std@@YAPEBQ6A?AW4dnnl_status_t@@PEAUdnnl_engine@@@ZAEBQ6A?AW41@0@Z@Z 000000018001c3d0 f i MWConvLayerImpl.obj
 0001:0001b3e0       ??$addressof@Q6A?AW4dnnl_status_t@@PEAUdnnl_primitive_attr@@@Z@std@@YAPEBQ6A?AW4dnnl_status_t@@PEAUdnnl_primitive_attr@@@ZAEBQ6A?AW41@0@Z@Z 000000018001c3e0 f i MWConvLayerImpl.obj
 0001:0001b3f0       ??$addressof@V?$unique_ptr@Udesc@convolution_forward@dnnl@@U?$default_delete@Udesc@convolution_forward@dnnl@@@std@@@std@@@std@@YAPEAV?$unique_ptr@Udesc@convolution_forward@dnnl@@U?$default_delete@Udesc@convolution_forward@dnnl@@@std@@@0@AEAV10@@Z 000000018001c3f0 f i MWConvLayerImpl.obj
 0001:0001b400       ??$addressof@V?$unique_ptr@Udesc@memory@dnnl@@U?$default_delete@Udesc@memory@dnnl@@@std@@@std@@@std@@YAPEAV?$unique_ptr@Udesc@memory@dnnl@@U?$default_delete@Udesc@memory@dnnl@@@std@@@0@AEAV10@@Z 000000018001c400 f i MWConvLayerImpl.obj
 0001:0001b410       ??$addressof@V?$unique_ptr@Uprimitive_desc@convolution_forward@dnnl@@U?$default_delete@Uprimitive_desc@convolution_forward@dnnl@@@std@@@std@@@std@@YAPEAV?$unique_ptr@Uprimitive_desc@convolution_forward@dnnl@@U?$default_delete@Uprimitive_desc@convolution_forward@dnnl@@@std@@@0@AEAV10@@Z 000000018001c410 f i MWConvLayerImpl.obj
 0001:0001b420       ??$addressof@V?$unique_ptr@Ureorder@dnnl@@U?$default_delete@Ureorder@dnnl@@@std@@@std@@@std@@YAPEAV?$unique_ptr@Ureorder@dnnl@@U?$default_delete@Ureorder@dnnl@@@std@@@0@AEAV10@@Z 000000018001c420 f i MWConvLayerImpl.obj
 0001:0001b430       ??$call_fread@M@MWCNNLayer@@SAXPEAM_K1PEAU_iobuf@@QEBD@Z 000000018001c430 f i MWConvLayerImpl.obj
 0001:0001b530       ??$exchange@PEAUconvolution_forward@dnnl@@$$T@std@@YAPEAUconvolution_forward@dnnl@@AEAPEAU12@$$QEA$$T@Z 000000018001c530 f i MWConvLayerImpl.obj
 0001:0001b570       ??$exchange@PEAUdesc@convolution_forward@dnnl@@$$T@std@@YAPEAUdesc@convolution_forward@dnnl@@AEAPEAU123@$$QEA$$T@Z 000000018001c570 f i MWConvLayerImpl.obj
 0001:0001b5b0       ??$exchange@PEAUdesc@convolution_forward@dnnl@@AEAPEAU123@@std@@YAPEAUdesc@convolution_forward@dnnl@@AEAPEAU123@0@Z 000000018001c5b0 f i MWConvLayerImpl.obj
 0001:0001b5f0       ??$exchange@PEAUdesc@memory@dnnl@@$$T@std@@YAPEAUdesc@memory@dnnl@@AEAPEAU123@$$QEA$$T@Z 000000018001c5f0 f i MWConvLayerImpl.obj
 0001:0001b630       ??$exchange@PEAUdesc@memory@dnnl@@AEAPEAU123@@std@@YAPEAUdesc@memory@dnnl@@AEAPEAU123@0@Z 000000018001c630 f i MWConvLayerImpl.obj
 0001:0001b670       ??$exchange@PEAUprimitive_desc@convolution_forward@dnnl@@$$T@std@@YAPEAUprimitive_desc@convolution_forward@dnnl@@AEAPEAU123@$$QEA$$T@Z 000000018001c670 f i MWConvLayerImpl.obj
 0001:0001b6b0       ??$exchange@PEAUprimitive_desc@convolution_forward@dnnl@@AEAPEAU123@@std@@YAPEAUprimitive_desc@convolution_forward@dnnl@@AEAPEAU123@0@Z 000000018001c6b0 f i MWConvLayerImpl.obj
 0001:0001b6f0       ??$exchange@PEAUreorder@dnnl@@$$T@std@@YAPEAUreorder@dnnl@@AEAPEAU12@$$QEA$$T@Z 000000018001c6f0 f i MWConvLayerImpl.obj
 0001:0001b730       ??$exchange@PEAUreorder@dnnl@@AEAPEAU12@@std@@YAPEAUreorder@dnnl@@AEAPEAU12@0@Z 000000018001c730 f i MWConvLayerImpl.obj
 0001:0001b770       ??$forward@AEAPEAUconvolution_forward@dnnl@@@std@@YAAEAPEAUconvolution_forward@dnnl@@AEAPEAU12@@Z 000000018001c770 f i MWConvLayerImpl.obj
 0001:0001b780       ??$forward@AEAPEAUdesc@convolution_forward@dnnl@@@std@@YAAEAPEAUdesc@convolution_forward@dnnl@@AEAPEAU123@@Z 000000018001c780 f i MWConvLayerImpl.obj
 0001:0001b790       ??$forward@AEAPEAUdesc@memory@dnnl@@@std@@YAAEAPEAUdesc@memory@dnnl@@AEAPEAU123@@Z 000000018001c790 f i MWConvLayerImpl.obj
 0001:0001b7a0       ??$forward@AEAPEAUdnnl_engine@@@std@@YAAEAPEAUdnnl_engine@@AEAPEAU1@@Z 000000018001c7a0 f i MWConvLayerImpl.obj
 0001:0001b7b0       ??$forward@AEAPEAUdnnl_primitive_attr@@@std@@YAAEAPEAUdnnl_primitive_attr@@AEAPEAU1@@Z 000000018001c7b0 f i MWConvLayerImpl.obj
 0001:0001b7c0       ??$forward@AEAPEAUprimitive_desc@convolution_forward@dnnl@@@std@@YAAEAPEAUprimitive_desc@convolution_forward@dnnl@@AEAPEAU123@@Z 000000018001c7c0 f i MWConvLayerImpl.obj
 0001:0001b7d0       ??$forward@AEAPEAUreorder@dnnl@@@std@@YAAEAPEAUreorder@dnnl@@AEAPEAU12@@Z 000000018001c7d0 f i MWConvLayerImpl.obj
 0001:0001b7e0       ??$forward@P6A?AW4dnnl_status_t@@PEAUdnnl_engine@@@Z@std@@YA$$QEAP6A?AW4dnnl_status_t@@PEAUdnnl_engine@@@ZAEAP6A?AW41@0@Z@Z 000000018001c7e0 f i MWConvLayerImpl.obj
 0001:0001b7f0       ??$forward@P6A?AW4dnnl_status_t@@PEAUdnnl_primitive_attr@@@Z@std@@YA$$QEAP6A?AW4dnnl_status_t@@PEAUdnnl_primitive_attr@@@ZAEAP6A?AW41@0@Z@Z 000000018001c7f0 f i MWConvLayerImpl.obj
 0001:0001b800       ??$forward@PEAUdesc@convolution_forward@dnnl@@@std@@YA$$QEAPEAUdesc@convolution_forward@dnnl@@AEAPEAU123@@Z 000000018001c800 f i MWConvLayerImpl.obj
 0001:0001b810       ??$forward@PEAUdesc@memory@dnnl@@@std@@YA$$QEAPEAUdesc@memory@dnnl@@AEAPEAU123@@Z 000000018001c810 f i MWConvLayerImpl.obj
 0001:0001b820       ??$forward@U?$default_delete@Uconvolution_forward@dnnl@@@std@@@std@@YA$$QEAU?$default_delete@Uconvolution_forward@dnnl@@@0@AEAU10@@Z 000000018001c820 f i MWConvLayerImpl.obj
 0001:0001b830       ??$forward@U?$default_delete@Udesc@convolution_forward@dnnl@@@std@@@std@@YA$$QEAU?$default_delete@Udesc@convolution_forward@dnnl@@@0@AEAU10@@Z 000000018001c830 f i MWConvLayerImpl.obj
 0001:0001b840       ??$forward@U?$default_delete@Udesc@memory@dnnl@@@std@@@std@@YA$$QEAU?$default_delete@Udesc@memory@dnnl@@@0@AEAU10@@Z 000000018001c840 f i MWConvLayerImpl.obj
 0001:0001b850       ??$forward@U?$default_delete@Uprimitive_desc@convolution_forward@dnnl@@@std@@@std@@YA$$QEAU?$default_delete@Uprimitive_desc@convolution_forward@dnnl@@@0@AEAU10@@Z 000000018001c850 f i MWConvLayerImpl.obj
 0001:0001b860       ??$forward@U?$default_delete@Ureorder@dnnl@@@std@@@std@@YA$$QEAU?$default_delete@Ureorder@dnnl@@@0@AEAU10@@Z 000000018001c860 f i MWConvLayerImpl.obj
 0001:0001b870       ??$move@AEAP6A?AW4dnnl_status_t@@PEAUdnnl_engine@@@Z@std@@YA$$QEAP6A?AW4dnnl_status_t@@PEAUdnnl_engine@@@ZAEAP6A?AW41@0@Z@Z 000000018001c870 f i MWConvLayerImpl.obj
 0001:0001b880       ??$move@AEAP6A?AW4dnnl_status_t@@PEAUdnnl_primitive_attr@@@Z@std@@YA$$QEAP6A?AW4dnnl_status_t@@PEAUdnnl_primitive_attr@@@ZAEAP6A?AW41@0@Z@Z 000000018001c880 f i MWConvLayerImpl.obj
 0001:0001b890       ??$move@AEAPEAUdnnl_engine@@@std@@YA$$QEAPEAUdnnl_engine@@AEAPEAU1@@Z 000000018001c890 f i MWConvLayerImpl.obj
 0001:0001b8a0       ??$move@AEAPEAUdnnl_primitive_attr@@@std@@YA$$QEAPEAUdnnl_primitive_attr@@AEAPEAU1@@Z 000000018001c8a0 f i MWConvLayerImpl.obj
 0001:0001b8b0       ??$move@AEAPEAUmemory@dnnl@@@std@@YA$$QEAPEAUmemory@dnnl@@AEAPEAU12@@Z 000000018001c8b0 f i MWConvLayerImpl.obj
 0001:0001b8c0       ??$reset@Udnnl_engine@@P6A?AW4dnnl_status_t@@PEAU1@@Z@?$shared_ptr@Udnnl_engine@@@std@@QEAAXPEAUdnnl_engine@@P6A?AW4dnnl_status_t@@0@Z@Z 000000018001c8c0 f i MWConvLayerImpl.obj
 0001:0001b910       ??$reset@Udnnl_primitive_attr@@P6A?AW4dnnl_status_t@@PEAU1@@Z@?$shared_ptr@Udnnl_primitive_attr@@@std@@QEAAXPEAUdnnl_primitive_attr@@P6A?AW4dnnl_status_t@@0@Z@Z 000000018001c910 f i MWConvLayerImpl.obj
 0001:0001b960       ??$swap@PEAUdnnl_engine@@$0A@@std@@YAXAEAPEAUdnnl_engine@@0@Z 000000018001c960 f i MWConvLayerImpl.obj
 0001:0001b9b0       ??$swap@PEAUdnnl_primitive_attr@@$0A@@std@@YAXAEAPEAUdnnl_primitive_attr@@0@Z 000000018001c9b0 f i MWConvLayerImpl.obj
 0001:0001ba00       ??$swap@PEAUmemory@dnnl@@$0A@@std@@YAXAEAPEAUmemory@dnnl@@0@Z 000000018001ca00 f i MWConvLayerImpl.obj
 0001:0001ba50       ??0?$_Ptr_base@Udnnl_engine@@@std@@IEAA@XZ 000000018001ca50 f i MWConvLayerImpl.obj
 0001:0001ba80       ??0?$_Ptr_base@Udnnl_primitive_attr@@@std@@IEAA@XZ 000000018001ca80 f i MWConvLayerImpl.obj
 0001:0001bab0       ??0?$_Ref_count@Umemory@dnnl@@@std@@QEAA@PEAUmemory@dnnl@@@Z 000000018001cab0 f i MWConvLayerImpl.obj
 0001:0001bb00       ??0?$_Ref_count_resource@PEAUdnnl_engine@@P6A?AW4dnnl_status_t@@PEAU1@@Z@std@@QEAA@PEAUdnnl_engine@@P6A?AW4dnnl_status_t@@0@Z@Z 000000018001cb00 f i MWConvLayerImpl.obj
 0001:0001bb70       ??0?$_Ref_count_resource@PEAUdnnl_primitive_attr@@P6A?AW4dnnl_status_t@@PEAU1@@Z@std@@QEAA@PEAUdnnl_primitive_attr@@P6A?AW4dnnl_status_t@@0@Z@Z 000000018001cb70 f i MWConvLayerImpl.obj
 0001:0001bbe0       ??0?$_Temporary_owner@Umemory@dnnl@@@std@@QEAA@QEAUmemory@dnnl@@@Z 000000018001cbe0 f i MWConvLayerImpl.obj
 0001:0001bc00       ??0?$_Temporary_owner_del@PEAUdnnl_engine@@P6A?AW4dnnl_status_t@@PEAU1@@Z@std@@QEAA@QEAUdnnl_engine@@AEAP6A?AW4dnnl_status_t@@PEAU2@@Z@Z 000000018001cc00 f i MWConvLayerImpl.obj
 0001:0001bc40       ??0?$_Temporary_owner_del@PEAUdnnl_primitive_attr@@P6A?AW4dnnl_status_t@@PEAU1@@Z@std@@QEAA@QEAUdnnl_primitive_attr@@AEAP6A?AW4dnnl_status_t@@PEAU2@@Z@Z 000000018001cc40 f i MWConvLayerImpl.obj
 0001:0001bc80       ??0?$handle@PEAUdnnl_engine@@U?$handle_traits@PEAUdnnl_engine@@@dnnl@@@dnnl@@QEAA@PEAUdnnl_engine@@_N@Z 000000018001cc80 f i MWConvLayerImpl.obj
 0001:0001bcd0       ??0?$handle@PEAUdnnl_primitive_attr@@U?$handle_traits@PEAUdnnl_primitive_attr@@@dnnl@@@dnnl@@QEAA@XZ 000000018001ccd0 f i MWConvLayerImpl.obj
 0001:0001bd00       ??0?$shared_ptr@Udnnl_engine@@@std@@QEAA@$$T@Z 000000018001cd00 f i MWConvLayerImpl.obj
 0001:0001bd30       ??0?$shared_ptr@Udnnl_primitive_attr@@@std@@QEAA@$$T@Z 000000018001cd30 f i MWConvLayerImpl.obj
 0001:0001bd60       ??0?$shared_ptr@Umemory@dnnl@@@std@@QEAA@AEBV01@@Z 000000018001cd60 f i MWConvLayerImpl.obj
 0001:0001bda0       ??0?$vector@_JV?$allocator@_J@std@@@std@@QEAA@XZ 000000018001cda0 f i MWConvLayerImpl.obj
 0001:0001bde0       ??0convolution_forward@dnnl@@QEAA@AEBUprimitive_desc@01@@Z 000000018001cde0 f i MWConvLayerImpl.obj
 0001:0001be10       ??0desc@convolution_forward@dnnl@@QEAA@W4prop_kind@2@W4algorithm@2@AEBU0memory@2@222AEBV?$vector@_JV?$allocator@_J@std@@@std@@333@Z 000000018001ce10 f i MWConvLayerImpl.obj
 0001:0001bfe0       ??0desc@convolution_forward@dnnl@@QEAA@W4prop_kind@2@W4algorithm@2@AEBU0memory@2@22AEBV?$vector@_JV?$allocator@_J@std@@@std@@333@Z 000000018001cfe0 f i MWConvLayerImpl.obj
 0001:0001c1a0       ??0engine@dnnl@@QEAA@PEAUdnnl_engine@@_N@Z 000000018001d1a0 f i MWConvLayerImpl.obj
 0001:0001c1e0       ??0primitive_attr@dnnl@@QEAA@XZ 000000018001d1e0 f i MWConvLayerImpl.obj
 0001:0001c230       ??0primitive_desc@convolution_forward@dnnl@@QEAA@AEBUdesc@12@AEBUengine@2@_N@Z 000000018001d230 f i MWConvLayerImpl.obj
 0001:0001c280       ??0primitive_desc@reorder@dnnl@@QEAA@AEBUmemory@2@0AEBUprimitive_attr@2@@Z 000000018001d280 f i MWConvLayerImpl.obj
 0001:0001c3f0       ??0reorder@dnnl@@QEAA@AEBUmemory@1@0AEBUprimitive_attr@1@@Z 000000018001d3f0 f i MWConvLayerImpl.obj
 0001:0001c460       ??1?$_Ref_count@Umemory@dnnl@@@std@@UEAA@XZ 000000018001d460 f i MWConvLayerImpl.obj
 0001:0001c480       ??1?$_Ref_count_resource@PEAUdnnl_engine@@P6A?AW4dnnl_status_t@@PEAU1@@Z@std@@UEAA@XZ 000000018001d480 f i MWConvLayerImpl.obj
 0001:0001c4a0       ??1?$_Ref_count_resource@PEAUdnnl_primitive_attr@@P6A?AW4dnnl_status_t@@PEAU1@@Z@std@@UEAA@XZ 000000018001d4a0 f i MWConvLayerImpl.obj
 0001:0001c4c0       ??1?$_Temporary_owner@Umemory@dnnl@@@std@@QEAA@XZ 000000018001d4c0 f i MWConvLayerImpl.obj
 0001:0001c510       ??1?$_Temporary_owner_del@PEAUdnnl_engine@@P6A?AW4dnnl_status_t@@PEAU1@@Z@std@@QEAA@XZ 000000018001d510 f i MWConvLayerImpl.obj
 0001:0001c540       ??1?$_Temporary_owner_del@PEAUdnnl_primitive_attr@@P6A?AW4dnnl_status_t@@PEAU1@@Z@std@@QEAA@XZ 000000018001d540 f i MWConvLayerImpl.obj
 0001:0001c570       ??1?$handle@PEAUdnnl_engine@@U?$handle_traits@PEAUdnnl_engine@@@dnnl@@@dnnl@@QEAA@XZ 000000018001d570 f i MWConvLayerImpl.obj
 0001:0001c590       ??1?$handle@PEAUdnnl_primitive_attr@@U?$handle_traits@PEAUdnnl_primitive_attr@@@dnnl@@@dnnl@@QEAA@XZ 000000018001d590 f i MWConvLayerImpl.obj
 0001:0001c5b0       ??1?$shared_ptr@Udnnl_engine@@@std@@QEAA@XZ 000000018001d5b0 f i MWConvLayerImpl.obj
 0001:0001c5d0       ??1?$shared_ptr@Udnnl_primitive_attr@@@std@@QEAA@XZ 000000018001d5d0 f i MWConvLayerImpl.obj
 0001:0001c5f0       ??1?$unique_ptr@Uconvolution_forward@dnnl@@U?$default_delete@Uconvolution_forward@dnnl@@@std@@@std@@QEAA@XZ 000000018001d5f0 f i MWConvLayerImpl.obj
 0001:0001c630       ??1?$unique_ptr@Udesc@convolution_forward@dnnl@@U?$default_delete@Udesc@convolution_forward@dnnl@@@std@@@std@@QEAA@XZ 000000018001d630 f i MWConvLayerImpl.obj
 0001:0001c670       ??1?$unique_ptr@Udesc@memory@dnnl@@U?$default_delete@Udesc@memory@dnnl@@@std@@@std@@QEAA@XZ 000000018001d670 f i MWConvLayerImpl.obj
 0001:0001c6b0       ??1?$unique_ptr@Uprimitive_desc@convolution_forward@dnnl@@U?$default_delete@Uprimitive_desc@convolution_forward@dnnl@@@std@@@std@@QEAA@XZ 000000018001d6b0 f i MWConvLayerImpl.obj
 0001:0001c6f0       ??1?$unique_ptr@Ureorder@dnnl@@U?$default_delete@Ureorder@dnnl@@@std@@@std@@QEAA@XZ 000000018001d6f0 f i MWConvLayerImpl.obj
 0001:0001c730       ??1convolution_forward@dnnl@@QEAA@XZ 000000018001d730 f i MWConvLayerImpl.obj
 0001:0001c750       ??1engine@dnnl@@QEAA@XZ    000000018001d750 f i MWConvLayerImpl.obj
 0001:0001c770       ??1primitive_attr@dnnl@@QEAA@XZ 000000018001d770 f i MWConvLayerImpl.obj
 0001:0001c790       ??1primitive_desc@convolution_forward@dnnl@@QEAA@XZ 000000018001d790 f i MWConvLayerImpl.obj
 0001:0001c7b0       ??1primitive_desc@reorder@dnnl@@QEAA@XZ 000000018001d7b0 f i MWConvLayerImpl.obj
 0001:0001c7d0       ??1reorder@dnnl@@QEAA@XZ   000000018001d7d0 f i MWConvLayerImpl.obj
 0001:0001c7f0       ??4?$shared_ptr@Umemory@dnnl@@@std@@QEAAAEAV01@$$QEAV01@@Z 000000018001d7f0 f i MWConvLayerImpl.obj
 0001:0001c840       ??4?$shared_ptr@Umemory@dnnl@@@std@@QEAAAEAV01@AEBV01@@Z 000000018001d840 f i MWConvLayerImpl.obj
 0001:0001c880       ??8desc@memory@dnnl@@QEBA_NAEBU012@@Z 000000018001d880 f i MWConvLayerImpl.obj
 0001:0001c8c0       ??9desc@memory@dnnl@@QEBA_NAEBU012@@Z 000000018001d8c0 f i MWConvLayerImpl.obj
 0001:0001c900       ??C?$unique_ptr@Uprimitive_desc@convolution_forward@dnnl@@U?$default_delete@Uprimitive_desc@convolution_forward@dnnl@@@std@@@std@@QEBAPEAUprimitive_desc@convolution_forward@dnnl@@XZ 000000018001d900 f i MWConvLayerImpl.obj
 0001:0001c910       ??D?$unique_ptr@Udesc@convolution_forward@dnnl@@U?$default_delete@Udesc@convolution_forward@dnnl@@@std@@@std@@QEBAAEAUdesc@convolution_forward@dnnl@@XZ 000000018001d910 f i MWConvLayerImpl.obj
 0001:0001c920       ??D?$unique_ptr@Udesc@memory@dnnl@@U?$default_delete@Udesc@memory@dnnl@@@std@@@std@@QEBAAEAUdesc@memory@dnnl@@XZ 000000018001d920 f i MWConvLayerImpl.obj
 0001:0001c930       ??D?$unique_ptr@Uprimitive_desc@convolution_forward@dnnl@@U?$default_delete@Uprimitive_desc@convolution_forward@dnnl@@@std@@@std@@QEBAAEAUprimitive_desc@convolution_forward@dnnl@@XZ 000000018001d930 f i MWConvLayerImpl.obj
 0001:0001c940       ??D?$unique_ptr@Ureorder@dnnl@@U?$default_delete@Ureorder@dnnl@@@std@@@std@@QEBAAEAUreorder@dnnl@@XZ 000000018001d940 f i MWConvLayerImpl.obj
 0001:0001c950       ??R<lambda_f3a66ab6a0570788f31503db83886f49>@@QEBA@QEADQEBD_K212@Z 000000018001d950 f i MWConvLayerImpl.obj
 0001:0001ca00       ??R?$default_delete@Uconvolution_forward@dnnl@@@std@@QEBAXPEAUconvolution_forward@dnnl@@@Z 000000018001da00 f i MWConvLayerImpl.obj
 0001:0001ca50       ??R?$default_delete@Udesc@convolution_forward@dnnl@@@std@@QEBAXPEAUdesc@convolution_forward@dnnl@@@Z 000000018001da50 f i MWConvLayerImpl.obj
 0001:0001ca80       ??R?$default_delete@Udesc@memory@dnnl@@@std@@QEBAXPEAUdesc@memory@dnnl@@@Z 000000018001da80 f i MWConvLayerImpl.obj
 0001:0001cab0       ??R?$default_delete@Uprimitive_desc@convolution_forward@dnnl@@@std@@QEBAXPEAUprimitive_desc@convolution_forward@dnnl@@@Z 000000018001dab0 f i MWConvLayerImpl.obj
 0001:0001cb00       ??R?$default_delete@Ureorder@dnnl@@@std@@QEBAXPEAUreorder@dnnl@@@Z 000000018001db00 f i MWConvLayerImpl.obj
 0001:0001cb50       ??_G?$_Ref_count@Umemory@dnnl@@@std@@UEAAPEAXI@Z 000000018001db50 f i MWConvLayerImpl.obj
 0001:0001cb50       ??_E?$_Ref_count@Umemory@dnnl@@@std@@UEAAPEAXI@Z 000000018001db50 f i MWConvLayerImpl.obj
 0001:0001cb90       ??_E?$_Ref_count_resource@PEAUdnnl_engine@@P6A?AW4dnnl_status_t@@PEAU1@@Z@std@@UEAAPEAXI@Z 000000018001db90 f i MWConvLayerImpl.obj
 0001:0001cb90       ??_G?$_Ref_count_resource@PEAUdnnl_engine@@P6A?AW4dnnl_status_t@@PEAU1@@Z@std@@UEAAPEAXI@Z 000000018001db90 f i MWConvLayerImpl.obj
 0001:0001cbd0       ??_E?$_Ref_count_resource@PEAUdnnl_primitive_attr@@P6A?AW4dnnl_status_t@@PEAU1@@Z@std@@UEAAPEAXI@Z 000000018001dbd0 f i MWConvLayerImpl.obj
 0001:0001cbd0       ??_G?$_Ref_count_resource@PEAUdnnl_primitive_attr@@P6A?AW4dnnl_status_t@@PEAU1@@Z@std@@UEAAPEAXI@Z 000000018001dbd0 f i MWConvLayerImpl.obj
 0001:0001cc10       ??_EMWConvLayerImpl@@UEAAPEAXI@Z 000000018001dc10 f i MWConvLayerImpl.obj
 0001:0001cc10       ??_GMWConvLayerImpl@@UEAAPEAXI@Z 000000018001dc10 f i MWConvLayerImpl.obj
 0001:0001cc50       ??_Gconvolution_forward@dnnl@@QEAAPEAXI@Z 000000018001dc50 f i MWConvLayerImpl.obj
 0001:0001cc90       ??_Gprimitive_desc@convolution_forward@dnnl@@QEAAPEAXI@Z 000000018001dc90 f i MWConvLayerImpl.obj
 0001:0001ccd0       ??_Greorder@dnnl@@QEAAPEAXI@Z 000000018001dcd0 f i MWConvLayerImpl.obj
 0001:0001cd10       ?_Decref@?$_Ptr_base@Udnnl_engine@@@std@@IEAAXXZ 000000018001dd10 f i MWConvLayerImpl.obj
 0001:0001cd40       ?_Decref@?$_Ptr_base@Udnnl_primitive_attr@@@std@@IEAAXXZ 000000018001dd40 f i MWConvLayerImpl.obj
 0001:0001cd70       ?_Delete_this@?$_Ref_count@Umemory@dnnl@@@std@@EEAAXXZ 000000018001dd70 f i MWConvLayerImpl.obj
 0001:0001cdc0       ?_Delete_this@?$_Ref_count_resource@PEAUdnnl_engine@@P6A?AW4dnnl_status_t@@PEAU1@@Z@std@@EEAAXXZ 000000018001ddc0 f i MWConvLayerImpl.obj
 0001:0001ce10       ?_Delete_this@?$_Ref_count_resource@PEAUdnnl_primitive_attr@@P6A?AW4dnnl_status_t@@PEAU1@@Z@std@@EEAAXXZ 000000018001de10 f i MWConvLayerImpl.obj
 0001:0001ce60       ?_Destroy@?$_Ref_count@Umemory@dnnl@@@std@@EEAAXXZ 000000018001de60 f i MWConvLayerImpl.obj
 0001:0001ceb0       ?_Destroy@?$_Ref_count_resource@PEAUdnnl_engine@@P6A?AW4dnnl_status_t@@PEAU1@@Z@std@@EEAAXXZ 000000018001deb0 f i MWConvLayerImpl.obj
 0001:0001cee0       ?_Destroy@?$_Ref_count_resource@PEAUdnnl_primitive_attr@@P6A?AW4dnnl_status_t@@PEAU1@@Z@std@@EEAAXXZ 000000018001dee0 f i MWConvLayerImpl.obj
 0001:0001cf10       ?_Get_deleter@?$_Ref_count_resource@PEAUdnnl_engine@@P6A?AW4dnnl_status_t@@PEAU1@@Z@std@@UEBAPEAXAEBVtype_info@@@Z 000000018001df10 f i MWConvLayerImpl.obj
 0001:0001cf60       ?_Get_deleter@?$_Ref_count_resource@PEAUdnnl_primitive_attr@@P6A?AW4dnnl_status_t@@PEAU1@@Z@std@@UEBAPEAXAEBVtype_info@@@Z 000000018001df60 f i MWConvLayerImpl.obj
 0001:0001cfb0       ?_Get_first@?$_Compressed_pair@P6A?AW4dnnl_status_t@@PEAUdnnl_engine@@@ZPEAU2@$0A@@std@@QEAAAEAP6A?AW4dnnl_status_t@@PEAUdnnl_engine@@@ZXZ 000000018001dfb0 f i MWConvLayerImpl.obj
 0001:0001cfc0       ?_Get_first@?$_Compressed_pair@P6A?AW4dnnl_status_t@@PEAUdnnl_engine@@@ZPEAU2@$0A@@std@@QEBAAEBQ6A?AW4dnnl_status_t@@PEAUdnnl_engine@@@ZXZ 000000018001dfc0 f i MWConvLayerImpl.obj
 0001:0001cfd0       ?_Get_first@?$_Compressed_pair@P6A?AW4dnnl_status_t@@PEAUdnnl_primitive_attr@@@ZPEAU2@$0A@@std@@QEAAAEAP6A?AW4dnnl_status_t@@PEAUdnnl_primitive_attr@@@ZXZ 000000018001dfd0 f i MWConvLayerImpl.obj
 0001:0001cfe0       ?_Get_first@?$_Compressed_pair@P6A?AW4dnnl_status_t@@PEAUdnnl_primitive_attr@@@ZPEAU2@$0A@@std@@QEBAAEBQ6A?AW4dnnl_status_t@@PEAUdnnl_primitive_attr@@@ZXZ 000000018001dfe0 f i MWConvLayerImpl.obj
 0001:0001cff0       ?_Get_first@?$_Compressed_pair@U?$default_delete@Uconvolution_forward@dnnl@@@std@@PEAUconvolution_forward@dnnl@@$00@std@@QEAAAEAU?$default_delete@Uconvolution_forward@dnnl@@@2@XZ 000000018001dff0 f i MWConvLayerImpl.obj
 0001:0001d000       ?_Get_first@?$_Compressed_pair@U?$default_delete@Udesc@convolution_forward@dnnl@@@std@@PEAUdesc@convolution_forward@dnnl@@$00@std@@QEAAAEAU?$default_delete@Udesc@convolution_forward@dnnl@@@2@XZ 000000018001e000 f i MWConvLayerImpl.obj
 0001:0001d010       ?_Get_first@?$_Compressed_pair@U?$default_delete@Udesc@memory@dnnl@@@std@@PEAUdesc@memory@dnnl@@$00@std@@QEAAAEAU?$default_delete@Udesc@memory@dnnl@@@2@XZ 000000018001e010 f i MWConvLayerImpl.obj
 0001:0001d020       ?_Get_first@?$_Compressed_pair@U?$default_delete@Uprimitive_desc@convolution_forward@dnnl@@@std@@PEAUprimitive_desc@convolution_forward@dnnl@@$00@std@@QEAAAEAU?$default_delete@Uprimitive_desc@convolution_forward@dnnl@@@2@XZ 000000018001e020 f i MWConvLayerImpl.obj
 0001:0001d030       ?_Get_first@?$_Compressed_pair@U?$default_delete@Ureorder@dnnl@@@std@@PEAUreorder@dnnl@@$00@std@@QEAAAEAU?$default_delete@Ureorder@dnnl@@@2@XZ 000000018001e030 f i MWConvLayerImpl.obj
 0001:0001d040       ?_Incref@?$_Ptr_base@Umemory@dnnl@@@std@@IEBAXXZ 000000018001e040 f i MWConvLayerImpl.obj
 0001:0001d070       ?_Swap@?$_Ptr_base@Udnnl_engine@@@std@@IEAAXAEAV12@@Z 000000018001e070 f i MWConvLayerImpl.obj
 0001:0001d0b0       ?_Swap@?$_Ptr_base@Udnnl_primitive_attr@@@std@@IEAAXAEAV12@@Z 000000018001e0b0 f i MWConvLayerImpl.obj
 0001:0001d0f0       ?_Swap@?$_Ptr_base@Umemory@dnnl@@@std@@IEAAXAEAV12@@Z 000000018001e0f0 f i MWConvLayerImpl.obj
 0001:0001d130       ?destructor@?$handle_traits@PEAUdnnl_engine@@@dnnl@@SA?AW4dnnl_status_t@@PEAUdnnl_engine@@@Z 000000018001e130 f i MWConvLayerImpl.obj
 0001:0001d150       ?destructor@?$handle_traits@PEAUdnnl_primitive_attr@@@dnnl@@SA?AW4dnnl_status_t@@PEAUdnnl_primitive_attr@@@Z 000000018001e150 f i MWConvLayerImpl.obj
 0001:0001d170       ?dst_desc@primitive_desc@convolution_forward@dnnl@@QEBA?AUdesc@memory@3@XZ 000000018001e170 f i MWConvLayerImpl.obj
 0001:0001d1a0       ?dummy_destructor@?$handle@PEAUdnnl_engine@@U?$handle_traits@PEAUdnnl_engine@@@dnnl@@@dnnl@@CA?AW4dnnl_status_t@@PEAUdnnl_engine@@@Z 000000018001e1a0 f i MWConvLayerImpl.obj
 0001:0001d1b0       ?dummy_destructor@?$handle@PEAUdnnl_primitive_attr@@U?$handle_traits@PEAUdnnl_primitive_attr@@@dnnl@@@dnnl@@CA?AW4dnnl_status_t@@PEAUdnnl_primitive_attr@@@Z 000000018001e1b0 f i MWConvLayerImpl.obj
 0001:0001d1c0       ?get_deleter@?$unique_ptr@Udesc@convolution_forward@dnnl@@U?$default_delete@Udesc@convolution_forward@dnnl@@@std@@@std@@QEAAAEAU?$default_delete@Udesc@convolution_forward@dnnl@@@2@XZ 000000018001e1c0 f i MWConvLayerImpl.obj
 0001:0001d1e0       ?get_deleter@?$unique_ptr@Udesc@memory@dnnl@@U?$default_delete@Udesc@memory@dnnl@@@std@@@std@@QEAAAEAU?$default_delete@Udesc@memory@dnnl@@@2@XZ 000000018001e1e0 f i MWConvLayerImpl.obj
 0001:0001d200       ?get_engine@memory@dnnl@@QEBA?AUengine@2@XZ 000000018001e200 f i MWConvLayerImpl.obj
 0001:0001d270       ?insert@?$basic_string@DU?$char_traits@D@std@@V?$allocator@D@2@@std@@QEAAAEAV12@_KQEBD0@Z 000000018001e270 f i MWConvLayerImpl.obj
 0001:0001d4a0       ?insert@?$basic_string@DU?$char_traits@D@std@@V?$allocator@D@2@@std@@QEAAAEAV12@_KQEBD@Z 000000018001e4a0 f i MWConvLayerImpl.obj
 0001:0001d4f0       ?release@?$unique_ptr@Uconvolution_forward@dnnl@@U?$default_delete@Uconvolution_forward@dnnl@@@std@@@std@@QEAAPEAUconvolution_forward@dnnl@@XZ 000000018001e4f0 f i MWConvLayerImpl.obj
 0001:0001d520       ?release@?$unique_ptr@Udesc@convolution_forward@dnnl@@U?$default_delete@Udesc@convolution_forward@dnnl@@@std@@@std@@QEAAPEAUdesc@convolution_forward@dnnl@@XZ 000000018001e520 f i MWConvLayerImpl.obj
 0001:0001d550       ?release@?$unique_ptr@Udesc@memory@dnnl@@U?$default_delete@Udesc@memory@dnnl@@@std@@@std@@QEAAPEAUdesc@memory@dnnl@@XZ 000000018001e550 f i MWConvLayerImpl.obj
 0001:0001d580       ?release@?$unique_ptr@Uprimitive_desc@convolution_forward@dnnl@@U?$default_delete@Uprimitive_desc@convolution_forward@dnnl@@@std@@@std@@QEAAPEAUprimitive_desc@convolution_forward@dnnl@@XZ 000000018001e580 f i MWConvLayerImpl.obj
 0001:0001d5b0       ?release@?$unique_ptr@Ureorder@dnnl@@U?$default_delete@Ureorder@dnnl@@@std@@@std@@QEAAPEAUreorder@dnnl@@XZ 000000018001e5b0 f i MWConvLayerImpl.obj
 0001:0001d5e0       ?reset@?$handle@PEAUdnnl_engine@@U?$handle_traits@PEAUdnnl_engine@@@dnnl@@@dnnl@@QEAAXPEAUdnnl_engine@@_N@Z 000000018001e5e0 f i MWConvLayerImpl.obj
 0001:0001d640       ?reset@?$handle@PEAUdnnl_primitive_attr@@U?$handle_traits@PEAUdnnl_primitive_attr@@@dnnl@@@dnnl@@QEAAXPEAUdnnl_primitive_attr@@_N@Z 000000018001e640 f i MWConvLayerImpl.obj
 0001:0001d6a0       ?reset@?$unique_ptr@Udesc@convolution_forward@dnnl@@U?$default_delete@Udesc@convolution_forward@dnnl@@@std@@@std@@QEAAXPEAUdesc@convolution_forward@dnnl@@@Z 000000018001e6a0 f i MWConvLayerImpl.obj
 0001:0001d6f0       ?reset@?$unique_ptr@Udesc@memory@dnnl@@U?$default_delete@Udesc@memory@dnnl@@@std@@@std@@QEAAXPEAUdesc@memory@dnnl@@@Z 000000018001e6f0 f i MWConvLayerImpl.obj
 0001:0001d740       ?reset@?$unique_ptr@Uprimitive_desc@convolution_forward@dnnl@@U?$default_delete@Uprimitive_desc@convolution_forward@dnnl@@@std@@@std@@QEAAXPEAUprimitive_desc@convolution_forward@dnnl@@@Z 000000018001e740 f i MWConvLayerImpl.obj
 0001:0001d790       ?reset@?$unique_ptr@Ureorder@dnnl@@U?$default_delete@Ureorder@dnnl@@@std@@@std@@QEAAXPEAUreorder@dnnl@@@Z 000000018001e790 f i MWConvLayerImpl.obj
 0001:0001d7e0       ?src_desc@primitive_desc@convolution_forward@dnnl@@QEBA?AUdesc@memory@3@XZ 000000018001e7e0 f i MWConvLayerImpl.obj
 0001:0001d810       ?src_desc@primitive_desc_base@dnnl@@QEBA?AUdesc@memory@2@H@Z 000000018001e810 f i MWConvLayerImpl.obj
 0001:0001d850       ?swap@?$shared_ptr@Udnnl_engine@@@std@@QEAAXAEAV12@@Z 000000018001e850 f i MWConvLayerImpl.obj
 0001:0001d880       ?swap@?$shared_ptr@Udnnl_primitive_attr@@@std@@QEAAXAEAV12@@Z 000000018001e880 f i MWConvLayerImpl.obj
 0001:0001d8b0       ?swap@?$shared_ptr@Umemory@dnnl@@@std@@QEAAXAEAV12@@Z 000000018001e8b0 f i MWConvLayerImpl.obj
 0001:0001d8e0       ?weights_desc@primitive_desc@convolution_forward@dnnl@@QEBA?AUdesc@memory@3@XZ 000000018001e8e0 f i MWConvLayerImpl.obj
 0001:0001d910       ?weights_desc@primitive_desc_base@dnnl@@QEBA?AUdesc@memory@2@H@Z 000000018001e910 f i MWConvLayerImpl.obj
 0001:0001d950       ??0MWElementwiseAffineLayerImpl@@QEAA@PEAVMWCNNLayer@@PEAVMWTargetNetworkImpl@@HHHHHH_NHHPEBD3@Z 000000018001e950 f   MWElementwiseAffineLayerImpl.obj
 0001:0001db70       ??1MWElementwiseAffineLayerImpl@@UEAA@XZ 000000018001eb70 f   MWElementwiseAffineLayerImpl.obj
 0001:0001dc00       ?predict@MWElementwiseAffineLayerImpl@@UEAAXXZ 000000018001ec00 f   MWElementwiseAffineLayerImpl.obj
 0001:0001e920       ?cleanup@MWElementwiseAffineLayerImpl@@UEAAXXZ 000000018001f920 f   MWElementwiseAffineLayerImpl.obj
 0001:0001e9a0       ?propagateSize@MWElementwiseAffineLayerImpl@@UEAAXXZ 000000018001f9a0 f   MWElementwiseAffineLayerImpl.obj
 0001:0001ed80       ?loadScale@MWElementwiseAffineLayerImpl@@AEAAXPEBD@Z 000000018001fd80 f   MWElementwiseAffineLayerImpl.obj
 0001:0001ee40       ?loadOffset@MWElementwiseAffineLayerImpl@@AEAAXPEBD@Z 000000018001fe40 f   MWElementwiseAffineLayerImpl.obj
 0001:0001ef00       ?clipAffineOutput@MWElementwiseAffineLayerImpl@@AEAAXXZ 000000018001ff00 f   MWElementwiseAffineLayerImpl.obj
 0001:0001f050       ?createScalarAffine@MWElementwiseAffineLayerImpl@@AEAAXXZ 0000000180020050 f   MWElementwiseAffineLayerImpl.obj
 0001:0001f5f0       ?createVectorAffine@MWElementwiseAffineLayerImpl@@AEAAXXZ 00000001800205f0 f   MWElementwiseAffineLayerImpl.obj
 0001:0001f7a0       ??$?0$$V@?$_Compressed_pair@U?$default_delete@Udesc@eltwise_forward@dnnl@@@std@@PEAUdesc@eltwise_forward@dnnl@@$00@std@@QEAA@U_Zero_then_variadic_args_t@1@@Z 00000001800207a0 f i MWElementwiseAffineLayerImpl.obj
 0001:0001f7c0       ??$?0$$V@?$_Compressed_pair@U?$default_delete@Uprimitive_desc@eltwise_forward@dnnl@@@std@@PEAUprimitive_desc@eltwise_forward@dnnl@@$00@std@@QEAA@U_Zero_then_variadic_args_t@1@@Z 00000001800207c0 f i MWElementwiseAffineLayerImpl.obj
 0001:0001f7e0       ??$?0AEAPEAUdesc@eltwise_forward@dnnl@@@?$_Compressed_pair@U?$default_delete@Udesc@eltwise_forward@dnnl@@@std@@PEAUdesc@eltwise_forward@dnnl@@$00@std@@QEAA@U_Zero_then_variadic_args_t@1@AEAPEAUdesc@eltwise_forward@dnnl@@@Z 00000001800207e0 f i MWElementwiseAffineLayerImpl.obj
 0001:0001f820       ??$?0AEAPEAUeltwise_forward@dnnl@@@?$_Compressed_pair@U?$default_delete@Ueltwise_forward@dnnl@@@std@@PEAUeltwise_forward@dnnl@@$00@std@@QEAA@U_Zero_then_variadic_args_t@1@AEAPEAUeltwise_forward@dnnl@@@Z 0000000180020820 f i MWElementwiseAffineLayerImpl.obj
 0001:0001f860       ??$?0AEAPEAUprimitive_desc@eltwise_forward@dnnl@@@?$_Compressed_pair@U?$default_delete@Uprimitive_desc@eltwise_forward@dnnl@@@std@@PEAUprimitive_desc@eltwise_forward@dnnl@@$00@std@@QEAA@U_Zero_then_variadic_args_t@1@AEAPEAUprimitive_desc@eltwise_forward@dnnl@@@Z 0000000180020860 f i MWElementwiseAffineLayerImpl.obj
 0001:0001f8a0       ??$?0MU?$default_delete@$$BY0A@M@std@@$0A@@?$shared_ptr@M@std@@QEAA@PEAMU?$default_delete@$$BY0A@M@1@@Z 00000001800208a0 f i MWElementwiseAffineLayerImpl.obj
 0001:0001f8f0       ??$?0U?$default_delete@$$BY0A@M@std@@AEAPEAM@?$_Compressed_pair@U?$default_delete@$$BY0A@M@std@@PEAM$00@std@@QEAA@U_One_then_variadic_args_t@1@$$QEAU?$default_delete@$$BY0A@M@1@AEAPEAM@Z 00000001800208f0 f i MWElementwiseAffineLayerImpl.obj
 0001:0001f930       ??$?0U?$default_delete@Udesc@eltwise_forward@dnnl@@@std@@$0A@@?$unique_ptr@Udesc@eltwise_forward@dnnl@@U?$default_delete@Udesc@eltwise_forward@dnnl@@@std@@@std@@QEAA@PEAUdesc@eltwise_forward@dnnl@@@Z 0000000180020930 f i MWElementwiseAffineLayerImpl.obj
 0001:0001f960       ??$?0U?$default_delete@Udesc@eltwise_forward@dnnl@@@std@@$0A@@?$unique_ptr@Udesc@eltwise_forward@dnnl@@U?$default_delete@Udesc@eltwise_forward@dnnl@@@std@@@std@@QEAA@XZ 0000000180020960 f i MWElementwiseAffineLayerImpl.obj
 0001:0001f990       ??$?0U?$default_delete@Ueltwise_forward@dnnl@@@std@@$0A@@?$unique_ptr@Ueltwise_forward@dnnl@@U?$default_delete@Ueltwise_forward@dnnl@@@std@@@std@@QEAA@PEAUeltwise_forward@dnnl@@@Z 0000000180020990 f i MWElementwiseAffineLayerImpl.obj
 0001:0001f9c0       ??$?0U?$default_delete@Uprimitive_desc@eltwise_forward@dnnl@@@std@@$0A@@?$unique_ptr@Uprimitive_desc@eltwise_forward@dnnl@@U?$default_delete@Uprimitive_desc@eltwise_forward@dnnl@@@std@@@std@@QEAA@PEAUprimitive_desc@eltwise_forward@dnnl@@@Z 00000001800209c0 f i MWElementwiseAffineLayerImpl.obj
 0001:0001f9f0       ??$?0U?$default_delete@Uprimitive_desc@eltwise_forward@dnnl@@@std@@$0A@@?$unique_ptr@Uprimitive_desc@eltwise_forward@dnnl@@U?$default_delete@Uprimitive_desc@eltwise_forward@dnnl@@@std@@@std@@QEAA@XZ 00000001800209f0 f i MWElementwiseAffineLayerImpl.obj
 0001:0001fa20       ??$?0Udesc@memory@dnnl@@AEAUengine@2@PEAM@?$_Ref_count_obj2@Umemory@dnnl@@@std@@QEAA@$$QEAUdesc@memory@dnnl@@AEAUengine@4@$$QEAPEAM@Z 0000000180020a20 f i MWElementwiseAffineLayerImpl.obj
 0001:0001fac0       ??$?0Ueltwise_forward@dnnl@@$0A@@?$default_delete@Uprimitive@dnnl@@@std@@QEAA@AEBU?$default_delete@Ueltwise_forward@dnnl@@@1@@Z 0000000180020ac0 f i MWElementwiseAffineLayerImpl.obj
 0001:0001fad0       ??$?4U?$default_delete@Udesc@eltwise_forward@dnnl@@@std@@$0A@@?$unique_ptr@Udesc@eltwise_forward@dnnl@@U?$default_delete@Udesc@eltwise_forward@dnnl@@@std@@@std@@QEAAAEAV01@$$QEAV01@@Z 0000000180020ad0 f i MWElementwiseAffineLayerImpl.obj
 0001:0001fb40       ??$?4U?$default_delete@Uprimitive_desc@eltwise_forward@dnnl@@@std@@$0A@@?$unique_ptr@Uprimitive_desc@eltwise_forward@dnnl@@U?$default_delete@Uprimitive_desc@eltwise_forward@dnnl@@@std@@@std@@QEAAAEAV01@$$QEAV01@@Z 0000000180020b40 f i MWElementwiseAffineLayerImpl.obj
 0001:0001fbb0       ??$?4Ueltwise_forward@dnnl@@U?$default_delete@Ueltwise_forward@dnnl@@@std@@$0A@@?$unique_ptr@Uprimitive@dnnl@@U?$default_delete@Uprimitive@dnnl@@@std@@@std@@QEAAAEAV01@$$QEAV?$unique_ptr@Ueltwise_forward@dnnl@@U?$default_delete@Ueltwise_forward@dnnl@@@std@@@1@@Z 0000000180020bb0 f i MWElementwiseAffineLayerImpl.obj
 0001:0001fc10       ??$?RM$0A@@?$default_delete@$$BY0A@M@std@@QEBAXPEAM@Z 0000000180020c10 f i MWElementwiseAffineLayerImpl.obj
 0001:0001fc40       ??$_Construct_in_place@Umemory@dnnl@@Udesc@12@AEAUengine@2@PEAM@std@@YAXAEAUmemory@dnnl@@$$QEAUdesc@12@AEAUengine@2@$$QEAPEAM@Z 0000000180020c40 f i MWElementwiseAffineLayerImpl.obj
 0001:0001fcd0       ??$_Move_construct_from@M@?$_Ptr_base@M@std@@IEAAX$$QEAV01@@Z 0000000180020cd0 f i MWElementwiseAffineLayerImpl.obj
 0001:0001fd20       ??$_Set_ptr_rep_and_enable_shared@M@?$shared_ptr@M@std@@AEAAXQEAMQEAV_Ref_count_base@1@@Z 0000000180020d20 f i MWElementwiseAffineLayerImpl.obj
 0001:0001fd50       ??$_Setpd@PEAMU?$default_delete@$$BY0A@M@std@@@?$shared_ptr@M@std@@AEAAXQEAMU?$default_delete@$$BY0A@M@1@@Z 0000000180020d50 f i MWElementwiseAffineLayerImpl.obj
 0001:0001fdf0       ??$addressof@$$CBU?$default_delete@$$BY0A@M@std@@@std@@YAPEBU?$default_delete@$$BY0A@M@0@AEBU10@@Z 0000000180020df0 f i MWElementwiseAffineLayerImpl.obj
 0001:0001fe00       ??$addressof@V?$unique_ptr@Udesc@eltwise_forward@dnnl@@U?$default_delete@Udesc@eltwise_forward@dnnl@@@std@@@std@@@std@@YAPEAV?$unique_ptr@Udesc@eltwise_forward@dnnl@@U?$default_delete@Udesc@eltwise_forward@dnnl@@@std@@@0@AEAV10@@Z 0000000180020e00 f i MWElementwiseAffineLayerImpl.obj
 0001:0001fe10       ??$addressof@V?$unique_ptr@Uprimitive_desc@eltwise_forward@dnnl@@U?$default_delete@Uprimitive_desc@eltwise_forward@dnnl@@@std@@@std@@@std@@YAPEAV?$unique_ptr@Uprimitive_desc@eltwise_forward@dnnl@@U?$default_delete@Uprimitive_desc@eltwise_forward@dnnl@@@std@@@0@AEAV10@@Z 0000000180020e10 f i MWElementwiseAffineLayerImpl.obj
 0001:0001fe20       ??$exchange@PEAUdesc@eltwise_forward@dnnl@@$$T@std@@YAPEAUdesc@eltwise_forward@dnnl@@AEAPEAU123@$$QEA$$T@Z 0000000180020e20 f i MWElementwiseAffineLayerImpl.obj
 0001:0001fe60       ??$exchange@PEAUdesc@eltwise_forward@dnnl@@AEAPEAU123@@std@@YAPEAUdesc@eltwise_forward@dnnl@@AEAPEAU123@0@Z 0000000180020e60 f i MWElementwiseAffineLayerImpl.obj
 0001:0001fea0       ??$exchange@PEAUeltwise_forward@dnnl@@$$T@std@@YAPEAUeltwise_forward@dnnl@@AEAPEAU12@$$QEA$$T@Z 0000000180020ea0 f i MWElementwiseAffineLayerImpl.obj
 0001:0001fee0       ??$exchange@PEAUprimitive_desc@eltwise_forward@dnnl@@$$T@std@@YAPEAUprimitive_desc@eltwise_forward@dnnl@@AEAPEAU123@$$QEA$$T@Z 0000000180020ee0 f i MWElementwiseAffineLayerImpl.obj
 0001:0001ff20       ??$exchange@PEAUprimitive_desc@eltwise_forward@dnnl@@AEAPEAU123@@std@@YAPEAUprimitive_desc@eltwise_forward@dnnl@@AEAPEAU123@0@Z 0000000180020f20 f i MWElementwiseAffineLayerImpl.obj
 0001:0001ff60       ??$forward@AEAPEAM@std@@YAAEAPEAMAEAPEAM@Z 0000000180020f60 f i MWElementwiseAffineLayerImpl.obj
 0001:0001ff70       ??$forward@AEAPEAUdesc@eltwise_forward@dnnl@@@std@@YAAEAPEAUdesc@eltwise_forward@dnnl@@AEAPEAU123@@Z 0000000180020f70 f i MWElementwiseAffineLayerImpl.obj
 0001:0001ff80       ??$forward@AEAPEAUeltwise_forward@dnnl@@@std@@YAAEAPEAUeltwise_forward@dnnl@@AEAPEAU12@@Z 0000000180020f80 f i MWElementwiseAffineLayerImpl.obj
 0001:0001ff90       ??$forward@AEAPEAUprimitive_desc@eltwise_forward@dnnl@@@std@@YAAEAPEAUprimitive_desc@eltwise_forward@dnnl@@AEAPEAU123@@Z 0000000180020f90 f i MWElementwiseAffineLayerImpl.obj
 0001:0001ffa0       ??$forward@PEAM@std@@YA$$QEAPEAMAEAPEAM@Z 0000000180020fa0 f i MWElementwiseAffineLayerImpl.obj
 0001:0001ffb0       ??$forward@U?$default_delete@$$BY0A@M@std@@@std@@YA$$QEAU?$default_delete@$$BY0A@M@0@AEAU10@@Z 0000000180020fb0 f i MWElementwiseAffineLayerImpl.obj
 0001:0001ffc0       ??$forward@U?$default_delete@Udesc@eltwise_forward@dnnl@@@std@@@std@@YA$$QEAU?$default_delete@Udesc@eltwise_forward@dnnl@@@0@AEAU10@@Z 0000000180020fc0 f i MWElementwiseAffineLayerImpl.obj
 0001:0001ffd0       ??$forward@U?$default_delete@Ueltwise_forward@dnnl@@@std@@@std@@YA$$QEAU?$default_delete@Ueltwise_forward@dnnl@@@0@AEAU10@@Z 0000000180020fd0 f i MWElementwiseAffineLayerImpl.obj
 0001:0001ffe0       ??$forward@U?$default_delete@Uprimitive_desc@eltwise_forward@dnnl@@@std@@@std@@YA$$QEAU?$default_delete@Uprimitive_desc@eltwise_forward@dnnl@@@0@AEAU10@@Z 0000000180020fe0 f i MWElementwiseAffineLayerImpl.obj
 0001:0001fff0       ??$make_shared@Umemory@dnnl@@Udesc@12@AEAUengine@2@PEAM@std@@YA?AV?$shared_ptr@Umemory@dnnl@@@0@$$QEAUdesc@memory@dnnl@@AEAUengine@4@$$QEAPEAM@Z 0000000180020ff0 f i MWElementwiseAffineLayerImpl.obj
 0001:00020100       ??$move@AEAPEAM@std@@YA$$QEAPEAMAEAPEAM@Z 0000000180021100 f i MWElementwiseAffineLayerImpl.obj
 0001:00020110       ??$move@AEAU?$default_delete@$$BY0A@M@std@@@std@@YA$$QEAU?$default_delete@$$BY0A@M@0@AEAU10@@Z 0000000180021110 f i MWElementwiseAffineLayerImpl.obj
 0001:00020120       ??$move@AEAV?$shared_ptr@M@std@@@std@@YA$$QEAV?$shared_ptr@M@0@AEAV10@@Z 0000000180021120 f i MWElementwiseAffineLayerImpl.obj
 0001:00020130       ??$swap@PEAM$0A@@std@@YAXAEAPEAM0@Z 0000000180021130 f i MWElementwiseAffineLayerImpl.obj
 0001:00020180       ??0?$_Ptr_base@M@std@@IEAA@XZ 0000000180021180 f i MWElementwiseAffineLayerImpl.obj
 0001:000201b0       ??0?$_Ref_count_resource@PEAMU?$default_delete@$$BY0A@M@std@@@std@@QEAA@PEAMU?$default_delete@$$BY0A@M@1@@Z 00000001800211b0 f i MWElementwiseAffineLayerImpl.obj
 0001:00020220       ??0?$_Temporary_owner_del@PEAMU?$default_delete@$$BY0A@M@std@@@std@@QEAA@QEAMAEAU?$default_delete@$$BY0A@M@1@@Z 0000000180021220 f i MWElementwiseAffineLayerImpl.obj
 0001:00020260       ??0?$shared_ptr@M@std@@QEAA@$$QEAV01@@Z 0000000180021260 f i MWElementwiseAffineLayerImpl.obj
 0001:000202a0       ??0?$shared_ptr@M@std@@QEAA@$$T@Z 00000001800212a0 f i MWElementwiseAffineLayerImpl.obj
 0001:000202d0       ??0desc@eltwise_forward@dnnl@@QEAA@W4prop_kind@2@W4algorithm@2@AEBU0memory@2@MM@Z 00000001800212d0 f i MWElementwiseAffineLayerImpl.obj
 0001:00020360       ??0eltwise_forward@dnnl@@QEAA@AEBUprimitive_desc@01@@Z 0000000180021360 f i MWElementwiseAffineLayerImpl.obj
 0001:00020390       ??0primitive_desc@eltwise_forward@dnnl@@QEAA@AEBUdesc@12@AEBUengine@2@_N@Z 0000000180021390 f i MWElementwiseAffineLayerImpl.obj
 0001:000203e0       ??1?$_Ref_count_resource@PEAMU?$default_delete@$$BY0A@M@std@@@std@@UEAA@XZ 00000001800213e0 f i MWElementwiseAffineLayerImpl.obj
 0001:00020400       ??1?$_Temporary_owner_del@PEAMU?$default_delete@$$BY0A@M@std@@@std@@QEAA@XZ 0000000180021400 f i MWElementwiseAffineLayerImpl.obj
 0001:00020440       ??1?$shared_ptr@M@std@@QEAA@XZ 0000000180021440 f i MWElementwiseAffineLayerImpl.obj
 0001:00020460       ??1?$unique_ptr@Udesc@eltwise_forward@dnnl@@U?$default_delete@Udesc@eltwise_forward@dnnl@@@std@@@std@@QEAA@XZ 0000000180021460 f i MWElementwiseAffineLayerImpl.obj
 0001:000204a0       ??1?$unique_ptr@Ueltwise_forward@dnnl@@U?$default_delete@Ueltwise_forward@dnnl@@@std@@@std@@QEAA@XZ 00000001800214a0 f i MWElementwiseAffineLayerImpl.obj
 0001:000204e0       ??1?$unique_ptr@Uprimitive_desc@eltwise_forward@dnnl@@U?$default_delete@Uprimitive_desc@eltwise_forward@dnnl@@@std@@@std@@QEAA@XZ 00000001800214e0 f i MWElementwiseAffineLayerImpl.obj
 0001:00020520       ??1eltwise_forward@dnnl@@QEAA@XZ 0000000180021520 f i MWElementwiseAffineLayerImpl.obj
 0001:00020540       ??1primitive_desc@eltwise_forward@dnnl@@QEAA@XZ 0000000180021540 f i MWElementwiseAffineLayerImpl.obj
 0001:00020560       ??4?$shared_ptr@M@std@@QEAAAEAV01@$$QEAV01@@Z 0000000180021560 f i MWElementwiseAffineLayerImpl.obj
 0001:000205b0       ??D?$unique_ptr@Udesc@eltwise_forward@dnnl@@U?$default_delete@Udesc@eltwise_forward@dnnl@@@std@@@std@@QEBAAEAUdesc@eltwise_forward@dnnl@@XZ 00000001800215b0 f i MWElementwiseAffineLayerImpl.obj
 0001:000205c0       ??D?$unique_ptr@Uprimitive_desc@eltwise_forward@dnnl@@U?$default_delete@Uprimitive_desc@eltwise_forward@dnnl@@@std@@@std@@QEBAAEAUprimitive_desc@eltwise_forward@dnnl@@XZ 00000001800215c0 f i MWElementwiseAffineLayerImpl.obj
 0001:000205d0       ??R?$default_delete@Udesc@eltwise_forward@dnnl@@@std@@QEBAXPEAUdesc@eltwise_forward@dnnl@@@Z 00000001800215d0 f i MWElementwiseAffineLayerImpl.obj
 0001:00020600       ??R?$default_delete@Ueltwise_forward@dnnl@@@std@@QEBAXPEAUeltwise_forward@dnnl@@@Z 0000000180021600 f i MWElementwiseAffineLayerImpl.obj
 0001:00020650       ??R?$default_delete@Uprimitive_desc@eltwise_forward@dnnl@@@std@@QEBAXPEAUprimitive_desc@eltwise_forward@dnnl@@@Z 0000000180021650 f i MWElementwiseAffineLayerImpl.obj
 0001:000206a0       ??_G?$_Ref_count_resource@PEAMU?$default_delete@$$BY0A@M@std@@@std@@UEAAPEAXI@Z 00000001800216a0 f i MWElementwiseAffineLayerImpl.obj
 0001:000206a0       ??_E?$_Ref_count_resource@PEAMU?$default_delete@$$BY0A@M@std@@@std@@UEAAPEAXI@Z 00000001800216a0 f i MWElementwiseAffineLayerImpl.obj
 0001:000206e0       ??_GMWElementwiseAffineLayerImpl@@UEAAPEAXI@Z 00000001800216e0 f i MWElementwiseAffineLayerImpl.obj
 0001:000206e0       ??_EMWElementwiseAffineLayerImpl@@UEAAPEAXI@Z 00000001800216e0 f i MWElementwiseAffineLayerImpl.obj
 0001:00020720       ??_Geltwise_forward@dnnl@@QEAAPEAXI@Z 0000000180021720 f i MWElementwiseAffineLayerImpl.obj
 0001:00020760       ??_Gprimitive_desc@eltwise_forward@dnnl@@QEAAPEAXI@Z 0000000180021760 f i MWElementwiseAffineLayerImpl.obj
 0001:000207a0       ?_Decref@?$_Ptr_base@M@std@@IEAAXXZ 00000001800217a0 f i MWElementwiseAffineLayerImpl.obj
 0001:000207d0       ?_Delete_this@?$_Ref_count_resource@PEAMU?$default_delete@$$BY0A@M@std@@@std@@EEAAXXZ 00000001800217d0 f i MWElementwiseAffineLayerImpl.obj
 0001:00020820       ?_Destroy@?$_Ref_count_resource@PEAMU?$default_delete@$$BY0A@M@std@@@std@@EEAAXXZ 0000000180021820 f i MWElementwiseAffineLayerImpl.obj
 0001:00020850       ?_Get_deleter@?$_Ref_count_resource@PEAMU?$default_delete@$$BY0A@M@std@@@std@@UEBAPEAXAEBVtype_info@@@Z 0000000180021850 f i MWElementwiseAffineLayerImpl.obj
 0001:000208a0       ?_Get_first@?$_Compressed_pair@U?$default_delete@$$BY0A@M@std@@PEAM$00@std@@QEAAAEAU?$default_delete@$$BY0A@M@2@XZ 00000001800218a0 f i MWElementwiseAffineLayerImpl.obj
 0001:000208b0       ?_Get_first@?$_Compressed_pair@U?$default_delete@$$BY0A@M@std@@PEAM$00@std@@QEBAAEBU?$default_delete@$$BY0A@M@2@XZ 00000001800218b0 f i MWElementwiseAffineLayerImpl.obj
 0001:000208c0       ?_Get_first@?$_Compressed_pair@U?$default_delete@Udesc@eltwise_forward@dnnl@@@std@@PEAUdesc@eltwise_forward@dnnl@@$00@std@@QEAAAEAU?$default_delete@Udesc@eltwise_forward@dnnl@@@2@XZ 00000001800218c0 f i MWElementwiseAffineLayerImpl.obj
 0001:000208d0       ?_Get_first@?$_Compressed_pair@U?$default_delete@Ueltwise_forward@dnnl@@@std@@PEAUeltwise_forward@dnnl@@$00@std@@QEAAAEAU?$default_delete@Ueltwise_forward@dnnl@@@2@XZ 00000001800218d0 f i MWElementwiseAffineLayerImpl.obj
 0001:000208e0       ?_Get_first@?$_Compressed_pair@U?$default_delete@Uprimitive_desc@eltwise_forward@dnnl@@@std@@PEAUprimitive_desc@eltwise_forward@dnnl@@$00@std@@QEAAAEAU?$default_delete@Uprimitive_desc@eltwise_forward@dnnl@@@2@XZ 00000001800218e0 f i MWElementwiseAffineLayerImpl.obj
 0001:000208f0       ?_Swap@?$_Ptr_base@M@std@@IEAAXAEAV12@@Z 00000001800218f0 f i MWElementwiseAffineLayerImpl.obj
 0001:00020930       ?get@?$_Ptr_base@M@std@@IEBAPEAMXZ 0000000180021930 f i MWElementwiseAffineLayerImpl.obj
 0001:00020940       ?getNumElements@MWTensorBase@@QEBAHXZ 0000000180021940 f i MWElementwiseAffineLayerImpl.obj
 0001:000209c0       ?get_data_handle@memory@dnnl@@QEBAPEAXXZ 00000001800219c0 f i MWElementwiseAffineLayerImpl.obj
 0001:00020a00       ?release@?$unique_ptr@Udesc@eltwise_forward@dnnl@@U?$default_delete@Udesc@eltwise_forward@dnnl@@@std@@@std@@QEAAPEAUdesc@eltwise_forward@dnnl@@XZ 0000000180021a00 f i MWElementwiseAffineLayerImpl.obj
 0001:00020a30       ?release@?$unique_ptr@Ueltwise_forward@dnnl@@U?$default_delete@Ueltwise_forward@dnnl@@@std@@@std@@QEAAPEAUeltwise_forward@dnnl@@XZ 0000000180021a30 f i MWElementwiseAffineLayerImpl.obj
 0001:00020a60       ?release@?$unique_ptr@Uprimitive_desc@eltwise_forward@dnnl@@U?$default_delete@Uprimitive_desc@eltwise_forward@dnnl@@@std@@@std@@QEAAPEAUprimitive_desc@eltwise_forward@dnnl@@XZ 0000000180021a60 f i MWElementwiseAffineLayerImpl.obj
 0001:00020a90       ?reset@?$unique_ptr@Udesc@eltwise_forward@dnnl@@U?$default_delete@Udesc@eltwise_forward@dnnl@@@std@@@std@@QEAAXPEAUdesc@eltwise_forward@dnnl@@@Z 0000000180021a90 f i MWElementwiseAffineLayerImpl.obj
 0001:00020ae0       ?reset@?$unique_ptr@Uprimitive_desc@eltwise_forward@dnnl@@U?$default_delete@Uprimitive_desc@eltwise_forward@dnnl@@@std@@@std@@QEAAXPEAUprimitive_desc@eltwise_forward@dnnl@@@Z 0000000180021ae0 f i MWElementwiseAffineLayerImpl.obj
 0001:00020b30       ?swap@?$shared_ptr@M@std@@QEAAXAEAV12@@Z 0000000180021b30 f i MWElementwiseAffineLayerImpl.obj
 0001:00020b60       ??0MWFCLayerImpl@@QEAA@PEAVMWCNNLayer@@PEAVMWTargetNetworkImpl@@HHPEBD2@Z 0000000180021b60 f   MWFCLayerImpl.obj
 0001:00020ec0       ??1MWFCLayerImpl@@UEAA@XZ  0000000180021ec0 f   MWFCLayerImpl.obj
 0001:00020fc0       ?predict@MWFCLayerImpl@@UEAAXXZ 0000000180021fc0 f   MWFCLayerImpl.obj
 0001:00021130       ?propagateSize@MWFCLayerImpl@@UEAAXXZ 0000000180022130 f   MWFCLayerImpl.obj
 0001:00022b00       ?cleanup@MWFCLayerImpl@@UEAAXXZ 0000000180023b00 f   MWFCLayerImpl.obj
 0001:00022b80       ?loadWeights@MWFCLayerImpl@@AEAAXPEBDH@Z 0000000180023b80 f   MWFCLayerImpl.obj
 0001:00022bf0       ?loadBias@MWFCLayerImpl@@AEAAXPEBDH@Z 0000000180023bf0 f   MWFCLayerImpl.obj
 0001:00022c60       ?prepareWeights@MWFCLayerImpl@@AEAAXXZ 0000000180023c60 f   MWFCLayerImpl.obj
 0001:00022e60       ??$?0$$V@?$_Compressed_pair@U?$default_delete@Udesc@inner_product_forward@dnnl@@@std@@PEAUdesc@inner_product_forward@dnnl@@$00@std@@QEAA@U_Zero_then_variadic_args_t@1@@Z 0000000180023e60 f i MWFCLayerImpl.obj
 0001:00022e80       ??$?0$$V@?$_Compressed_pair@U?$default_delete@Uprimitive_desc@inner_product_forward@dnnl@@@std@@PEAUprimitive_desc@inner_product_forward@dnnl@@$00@std@@QEAA@U_Zero_then_variadic_args_t@1@@Z 0000000180023e80 f i MWFCLayerImpl.obj
 0001:00022ea0       ??$?0AEAPEAUdesc@inner_product_forward@dnnl@@@?$_Compressed_pair@U?$default_delete@Udesc@inner_product_forward@dnnl@@@std@@PEAUdesc@inner_product_forward@dnnl@@$00@std@@QEAA@U_Zero_then_variadic_args_t@1@AEAPEAUdesc@inner_product_forward@dnnl@@@Z 0000000180023ea0 f i MWFCLayerImpl.obj
 0001:00022ee0       ??$?0AEAPEAUinner_product_forward@dnnl@@@?$_Compressed_pair@U?$default_delete@Uinner_product_forward@dnnl@@@std@@PEAUinner_product_forward@dnnl@@$00@std@@QEAA@U_Zero_then_variadic_args_t@1@AEAPEAUinner_product_forward@dnnl@@@Z 0000000180023ee0 f i MWFCLayerImpl.obj
 0001:00022f20       ??$?0AEAPEAUprimitive_desc@inner_product_forward@dnnl@@@?$_Compressed_pair@U?$default_delete@Uprimitive_desc@inner_product_forward@dnnl@@@std@@PEAUprimitive_desc@inner_product_forward@dnnl@@$00@std@@QEAA@U_Zero_then_variadic_args_t@1@AEAPEAUprimitive_desc@inner_product_forward@dnnl@@@Z 0000000180023f20 f i MWFCLayerImpl.obj
 0001:00022f60       ??$?0AEAUdesc@memory@dnnl@@AEAUengine@2@@?$_Ref_count_obj2@Umemory@dnnl@@@std@@QEAA@AEAUdesc@memory@dnnl@@AEAUengine@4@@Z 0000000180023f60 f i MWFCLayerImpl.obj
 0001:00022fe0       ??$?0AEAUdesc@memory@dnnl@@AEAUengine@2@AEAPEAM@?$_Ref_count_obj2@Umemory@dnnl@@@std@@QEAA@AEAUdesc@memory@dnnl@@AEAUengine@4@AEAPEAM@Z 0000000180023fe0 f i MWFCLayerImpl.obj
 0001:00023080       ??$?0AEAV?$vector@_JV?$allocator@_J@std@@@std@@W4data_type@memory@dnnl@@W4format_tag@34@@?$_Ref_count_obj2@Udesc@memory@dnnl@@@std@@QEAA@AEAV?$vector@_JV?$allocator@_J@std@@@1@$$QEAW4data_type@memory@dnnl@@$$QEAW4format_tag@45@@Z 0000000180024080 f i MWFCLayerImpl.obj
 0001:00023120       ??$?0U?$default_delete@Udesc@inner_product_forward@dnnl@@@std@@$0A@@?$unique_ptr@Udesc@inner_product_forward@dnnl@@U?$default_delete@Udesc@inner_product_forward@dnnl@@@std@@@std@@QEAA@PEAUdesc@inner_product_forward@dnnl@@@Z 0000000180024120 f i MWFCLayerImpl.obj
 0001:00023150       ??$?0U?$default_delete@Udesc@inner_product_forward@dnnl@@@std@@$0A@@?$unique_ptr@Udesc@inner_product_forward@dnnl@@U?$default_delete@Udesc@inner_product_forward@dnnl@@@std@@@std@@QEAA@XZ 0000000180024150 f i MWFCLayerImpl.obj
 0001:00023180       ??$?0U?$default_delete@Uinner_product_forward@dnnl@@@std@@$0A@@?$unique_ptr@Uinner_product_forward@dnnl@@U?$default_delete@Uinner_product_forward@dnnl@@@std@@@std@@QEAA@PEAUinner_product_forward@dnnl@@@Z 0000000180024180 f i MWFCLayerImpl.obj
 0001:000231b0       ??$?0U?$default_delete@Uprimitive_desc@inner_product_forward@dnnl@@@std@@$0A@@?$unique_ptr@Uprimitive_desc@inner_product_forward@dnnl@@U?$default_delete@Uprimitive_desc@inner_product_forward@dnnl@@@std@@@std@@QEAA@PEAUprimitive_desc@inner_product_forward@dnnl@@@Z 00000001800241b0 f i MWFCLayerImpl.obj
 0001:000231e0       ??$?0U?$default_delete@Uprimitive_desc@inner_product_forward@dnnl@@@std@@$0A@@?$unique_ptr@Uprimitive_desc@inner_product_forward@dnnl@@U?$default_delete@Uprimitive_desc@inner_product_forward@dnnl@@@std@@@std@@QEAA@XZ 00000001800241e0 f i MWFCLayerImpl.obj
 0001:00023210       ??$?0Uinner_product_forward@dnnl@@$0A@@?$default_delete@Uprimitive@dnnl@@@std@@QEAA@AEBU?$default_delete@Uinner_product_forward@dnnl@@@1@@Z 0000000180024210 f i MWFCLayerImpl.obj
 0001:00023220       ??$?0V?$allocator@_J@std@@$$V@?$_Compressed_pair@V?$allocator@_J@std@@V?$_Vector_val@U?$_Simple_types@_J@std@@@2@$00@std@@QEAA@U_One_then_variadic_args_t@1@$$QEAV?$allocator@_J@1@@Z 0000000180024220 f i MWFCLayerImpl.obj
 0001:00023260       ??$?4U?$default_delete@Udesc@inner_product_forward@dnnl@@@std@@$0A@@?$unique_ptr@Udesc@inner_product_forward@dnnl@@U?$default_delete@Udesc@inner_product_forward@dnnl@@@std@@@std@@QEAAAEAV01@$$QEAV01@@Z 0000000180024260 f i MWFCLayerImpl.obj
 0001:000232d0       ??$?4U?$default_delete@Uprimitive_desc@inner_product_forward@dnnl@@@std@@$0A@@?$unique_ptr@Uprimitive_desc@inner_product_forward@dnnl@@U?$default_delete@Uprimitive_desc@inner_product_forward@dnnl@@@std@@@std@@QEAAAEAV01@$$QEAV01@@Z 00000001800242d0 f i MWFCLayerImpl.obj
 0001:00023340       ??$?4Uinner_product_forward@dnnl@@U?$default_delete@Uinner_product_forward@dnnl@@@std@@$0A@@?$unique_ptr@Uprimitive@dnnl@@U?$default_delete@Uprimitive@dnnl@@@std@@@std@@QEAAAEAV01@$$QEAV?$unique_ptr@Uinner_product_forward@dnnl@@U?$default_delete@Uinner_product_forward@dnnl@@@std@@@1@@Z 0000000180024340 f i MWFCLayerImpl.obj
 0001:000233a0       ??$?DUdesc@memory@dnnl@@$0A@@?$shared_ptr@Udesc@memory@dnnl@@@std@@QEBAAEAUdesc@memory@dnnl@@XZ 00000001800243a0 f i MWFCLayerImpl.obj
 0001:000233c0       ??$_Assign_range@PEB_J@?$vector@_JV?$allocator@_J@std@@@std@@AEAAXPEB_J0Uforward_iterator_tag@1@@Z 00000001800243c0 f i MWFCLayerImpl.obj
 0001:000235e0       ??$_Construct_in_place@Udesc@memory@dnnl@@AEAV?$vector@_JV?$allocator@_J@std@@@std@@W4data_type@23@W4format_tag@23@@std@@YAXAEAUdesc@memory@dnnl@@AEAV?$vector@_JV?$allocator@_J@std@@@0@$$QEAW4data_type@23@$$QEAW4format_tag@23@@Z 00000001800245e0 f i MWFCLayerImpl.obj
 0001:00023670       ??$_Construct_in_place@Umemory@dnnl@@AEAUdesc@12@AEAUengine@2@@std@@YAXAEAUmemory@dnnl@@AEAUdesc@12@AEAUengine@2@@Z 0000000180024670 f i MWFCLayerImpl.obj
 0001:000236e0       ??$_Construct_in_place@Umemory@dnnl@@AEAUdesc@12@AEAUengine@2@AEAPEAM@std@@YAXAEAUmemory@dnnl@@AEAUdesc@12@AEAUengine@2@AEAPEAM@Z 00000001800246e0 f i MWFCLayerImpl.obj
 0001:00023770       ??$_Copy_memmove@PEA_JPEA_J@std@@YAPEA_JPEA_J00@Z 0000000180024770 f i MWFCLayerImpl.obj
 0001:00023810       ??$_Copy_unchecked@PEB_JPEA_J@std@@YAPEA_JPEB_J0PEA_J@Z 0000000180024810 f i MWFCLayerImpl.obj
 0001:00023880       ??$_Destroy_in_place@Udesc@memory@dnnl@@@std@@YAXAEAUdesc@memory@dnnl@@@Z 0000000180024880 f i MWFCLayerImpl.obj
 0001:00023890       ??$_Emplace_back@AEA_J@?$_Uninitialized_backout_al@V?$allocator@_J@std@@@std@@QEAAXAEA_J@Z 0000000180024890 f i MWFCLayerImpl.obj
 0001:000238f0       ??$_Get_unwrapped@AEBQEA_J@std@@YA?A_TAEBQEA_J@Z 00000001800248f0 f i MWFCLayerImpl.obj
 0001:00023900       ??$_Move_construct_from@Udesc@memory@dnnl@@@?$_Ptr_base@Udesc@memory@dnnl@@@std@@IEAAX$$QEAV01@@Z 0000000180024900 f i MWFCLayerImpl.obj
 0001:00023950       ??$_Refancy@PEA_J$0A@@std@@YAPEA_JPEA_J@Z 0000000180024950 f i MWFCLayerImpl.obj
 0001:00023960       ??$_Set_ptr_rep_and_enable_shared@Udesc@memory@dnnl@@@?$shared_ptr@Udesc@memory@dnnl@@@std@@AEAAXQEAUdesc@memory@dnnl@@QEAV_Ref_count_base@1@@Z 0000000180024960 f i MWFCLayerImpl.obj
 0001:00023990       ??$_Ucopy@PEA_J@?$vector@_JV?$allocator@_J@std@@@std@@AEAAPEA_JPEA_J00@Z 0000000180024990 f i MWFCLayerImpl.obj
 0001:000239d0       ??$_Uninitialized_copy@PEA_JV?$allocator@_J@std@@@std@@YAPEA_JQEA_J0PEA_JAEAV?$allocator@_J@0@@Z 00000001800249d0 f i MWFCLayerImpl.obj
 0001:00023ab0       ??$_Voidify_iter@PEAUdesc@memory@dnnl@@@std@@YAPEAXPEAUdesc@memory@dnnl@@@Z 0000000180024ab0 f i MWFCLayerImpl.obj
 0001:00023ac0       ??$addressof@Udesc@memory@dnnl@@@std@@YAPEAUdesc@memory@dnnl@@AEAU123@@Z 0000000180024ac0 f i MWFCLayerImpl.obj
 0001:00023ad0       ??$addressof@V?$unique_ptr@Udesc@inner_product_forward@dnnl@@U?$default_delete@Udesc@inner_product_forward@dnnl@@@std@@@std@@@std@@YAPEAV?$unique_ptr@Udesc@inner_product_forward@dnnl@@U?$default_delete@Udesc@inner_product_forward@dnnl@@@std@@@0@AEAV10@@Z 0000000180024ad0 f i MWFCLayerImpl.obj
 0001:00023ae0       ??$addressof@V?$unique_ptr@Uprimitive_desc@inner_product_forward@dnnl@@U?$default_delete@Uprimitive_desc@inner_product_forward@dnnl@@@std@@@std@@@std@@YAPEAV?$unique_ptr@Uprimitive_desc@inner_product_forward@dnnl@@U?$default_delete@Uprimitive_desc@inner_product_forward@dnnl@@@std@@@0@AEAV10@@Z 0000000180024ae0 f i MWFCLayerImpl.obj
 0001:00023af0       ??$advance@PEB_J_J@std@@YAXAEAPEB_J_J@Z 0000000180024af0 f i MWFCLayerImpl.obj
 0001:00023b20       ??$construct@_JAEA_J@?$_Default_allocator_traits@V?$allocator@_J@std@@@std@@SAXAEAV?$allocator@_J@1@QEA_JAEA_J@Z 0000000180024b20 f i MWFCLayerImpl.obj
 0001:00023b70       ??$exchange@PEAUdesc@inner_product_forward@dnnl@@$$T@std@@YAPEAUdesc@inner_product_forward@dnnl@@AEAPEAU123@$$QEA$$T@Z 0000000180024b70 f i MWFCLayerImpl.obj
 0001:00023bb0       ??$exchange@PEAUdesc@inner_product_forward@dnnl@@AEAPEAU123@@std@@YAPEAUdesc@inner_product_forward@dnnl@@AEAPEAU123@0@Z 0000000180024bb0 f i MWFCLayerImpl.obj
 0001:00023bf0       ??$exchange@PEAUinner_product_forward@dnnl@@$$T@std@@YAPEAUinner_product_forward@dnnl@@AEAPEAU12@$$QEA$$T@Z 0000000180024bf0 f i MWFCLayerImpl.obj
 0001:00023c30       ??$exchange@PEAUprimitive_desc@inner_product_forward@dnnl@@$$T@std@@YAPEAUprimitive_desc@inner_product_forward@dnnl@@AEAPEAU123@$$QEA$$T@Z 0000000180024c30 f i MWFCLayerImpl.obj
 0001:00023c70       ??$exchange@PEAUprimitive_desc@inner_product_forward@dnnl@@AEAPEAU123@@std@@YAPEAUprimitive_desc@inner_product_forward@dnnl@@AEAPEAU123@0@Z 0000000180024c70 f i MWFCLayerImpl.obj
 0001:00023cb0       ??$forward@AEAPEAUdesc@inner_product_forward@dnnl@@@std@@YAAEAPEAUdesc@inner_product_forward@dnnl@@AEAPEAU123@@Z 0000000180024cb0 f i MWFCLayerImpl.obj
 0001:00023cc0       ??$forward@AEAPEAUinner_product_forward@dnnl@@@std@@YAAEAPEAUinner_product_forward@dnnl@@AEAPEAU12@@Z 0000000180024cc0 f i MWFCLayerImpl.obj
 0001:00023cd0       ??$forward@AEAPEAUprimitive_desc@inner_product_forward@dnnl@@@std@@YAAEAPEAUprimitive_desc@inner_product_forward@dnnl@@AEAPEAU123@@Z 0000000180024cd0 f i MWFCLayerImpl.obj
 0001:00023ce0       ??$forward@AEAUdesc@memory@dnnl@@@std@@YAAEAUdesc@memory@dnnl@@AEAU123@@Z 0000000180024ce0 f i MWFCLayerImpl.obj
 0001:00023cf0       ??$forward@AEAV?$vector@_JV?$allocator@_J@std@@@std@@@std@@YAAEAV?$vector@_JV?$allocator@_J@std@@@0@AEAV10@@Z 0000000180024cf0 f i MWFCLayerImpl.obj
 0001:00023d00       ??$forward@AEA_J@std@@YAAEA_JAEA_J@Z 0000000180024d00 f i MWFCLayerImpl.obj
 0001:00023d10       ??$forward@U?$default_delete@Udesc@inner_product_forward@dnnl@@@std@@@std@@YA$$QEAU?$default_delete@Udesc@inner_product_forward@dnnl@@@0@AEAU10@@Z 0000000180024d10 f i MWFCLayerImpl.obj
 0001:00023d20       ??$forward@U?$default_delete@Uinner_product_forward@dnnl@@@std@@@std@@YA$$QEAU?$default_delete@Uinner_product_forward@dnnl@@@0@AEAU10@@Z 0000000180024d20 f i MWFCLayerImpl.obj
 0001:00023d30       ??$forward@U?$default_delete@Uprimitive_desc@inner_product_forward@dnnl@@@std@@@std@@YA$$QEAU?$default_delete@Uprimitive_desc@inner_product_forward@dnnl@@@0@AEAU10@@Z 0000000180024d30 f i MWFCLayerImpl.obj
 0001:00023d40       ??$forward@V?$allocator@_J@std@@@std@@YA$$QEAV?$allocator@_J@0@AEAV10@@Z 0000000180024d40 f i MWFCLayerImpl.obj
 0001:00023d50       ??$forward@W4data_type@memory@dnnl@@@std@@YA$$QEAW4data_type@memory@dnnl@@AEAW4123@@Z 0000000180024d50 f i MWFCLayerImpl.obj
 0001:00023d60       ??$forward@W4format_tag@memory@dnnl@@@std@@YA$$QEAW4format_tag@memory@dnnl@@AEAW4123@@Z 0000000180024d60 f i MWFCLayerImpl.obj
 0001:00023d70       ??$make_shared@Udesc@memory@dnnl@@AEAV?$vector@_JV?$allocator@_J@std@@@std@@W4data_type@23@W4format_tag@23@@std@@YA?AV?$shared_ptr@Udesc@memory@dnnl@@@0@AEAV?$vector@_JV?$allocator@_J@std@@@0@$$QEAW4data_type@memory@dnnl@@$$QEAW4format_tag@45@@Z 0000000180024d70 f i MWFCLayerImpl.obj
 0001:00023e80       ??$make_shared@Umemory@dnnl@@AEAUdesc@12@AEAUengine@2@@std@@YA?AV?$shared_ptr@Umemory@dnnl@@@0@AEAUdesc@memory@dnnl@@AEAUengine@4@@Z 0000000180024e80 f i MWFCLayerImpl.obj
 0001:00023f70       ??$make_shared@Umemory@dnnl@@AEAUdesc@12@AEAUengine@2@AEAPEAM@std@@YA?AV?$shared_ptr@Umemory@dnnl@@@0@AEAUdesc@memory@dnnl@@AEAUengine@4@AEAPEAM@Z 0000000180024f70 f i MWFCLayerImpl.obj
 0001:00024080       ??$move@AEAPEAUdesc@memory@dnnl@@@std@@YA$$QEAPEAUdesc@memory@dnnl@@AEAPEAU123@@Z 0000000180025080 f i MWFCLayerImpl.obj
 0001:00024090       ??$move@AEAV?$shared_ptr@Udesc@memory@dnnl@@@std@@@std@@YA$$QEAV?$shared_ptr@Udesc@memory@dnnl@@@0@AEAV10@@Z 0000000180025090 f i MWFCLayerImpl.obj
 0001:000240a0       ??$next@PEB_J@std@@YAPEB_JPEB_J_J@Z 00000001800250a0 f i MWFCLayerImpl.obj
 0001:000240d0       ??$swap@PEAUdesc@memory@dnnl@@$0A@@std@@YAXAEAPEAUdesc@memory@dnnl@@0@Z 00000001800250d0 f i MWFCLayerImpl.obj
 0001:00024120       ??0?$_Ptr_base@Udesc@memory@dnnl@@@std@@IEAA@XZ 0000000180025120 f i MWFCLayerImpl.obj
 0001:00024150       ??0?$shared_ptr@Udesc@memory@dnnl@@@std@@QEAA@$$QEAV01@@Z 0000000180025150 f i MWFCLayerImpl.obj
 0001:00024190       ??0?$shared_ptr@Udesc@memory@dnnl@@@std@@QEAA@XZ 0000000180025190 f i MWFCLayerImpl.obj
 0001:000241b0       ??0?$vector@_JV?$allocator@_J@std@@@std@@QEAA@AEBV01@@Z 00000001800251b0 f i MWFCLayerImpl.obj
 0001:000242c0       ??0desc@inner_product_forward@dnnl@@QEAA@W4prop_kind@2@AEBU0memory@2@111@Z 00000001800252c0 f i MWFCLayerImpl.obj
 0001:00024360       ??0inner_product_forward@dnnl@@QEAA@AEBUprimitive_desc@01@@Z 0000000180025360 f i MWFCLayerImpl.obj
 0001:00024390       ??0primitive_desc@inner_product_forward@dnnl@@QEAA@AEBUdesc@12@AEBUengine@2@_N@Z 0000000180025390 f i MWFCLayerImpl.obj
 0001:000243e0       ??1?$_Ref_count_obj2@Udesc@memory@dnnl@@@std@@UEAA@XZ 00000001800253e0 f i MWFCLayerImpl.obj
 0001:00024410       ??1?$shared_ptr@Udesc@memory@dnnl@@@std@@QEAA@XZ 0000000180025410 f i MWFCLayerImpl.obj
 0001:00024430       ??1?$unique_ptr@Udesc@inner_product_forward@dnnl@@U?$default_delete@Udesc@inner_product_forward@dnnl@@@std@@@std@@QEAA@XZ 0000000180025430 f i MWFCLayerImpl.obj
 0001:00024470       ??1?$unique_ptr@Uinner_product_forward@dnnl@@U?$default_delete@Uinner_product_forward@dnnl@@@std@@@std@@QEAA@XZ 0000000180025470 f i MWFCLayerImpl.obj
 0001:000244b0       ??1?$unique_ptr@Uprimitive_desc@inner_product_forward@dnnl@@U?$default_delete@Uprimitive_desc@inner_product_forward@dnnl@@@std@@@std@@QEAA@XZ 00000001800254b0 f i MWFCLayerImpl.obj
 0001:000244f0       ??1inner_product_forward@dnnl@@QEAA@XZ 00000001800254f0 f i MWFCLayerImpl.obj
 0001:00024510       ??1primitive_desc@inner_product_forward@dnnl@@QEAA@XZ 0000000180025510 f i MWFCLayerImpl.obj
 0001:00024530       ??4?$shared_ptr@Udesc@memory@dnnl@@@std@@QEAAAEAV01@$$QEAV01@@Z 0000000180025530 f i MWFCLayerImpl.obj
 0001:00024580       ??4?$vector@_JV?$allocator@_J@std@@@std@@QEAAAEAV01@V?$initializer_list@_J@1@@Z 0000000180025580 f i MWFCLayerImpl.obj
 0001:000245d0       ??C?$unique_ptr@Uprimitive_desc@inner_product_forward@dnnl@@U?$default_delete@Uprimitive_desc@inner_product_forward@dnnl@@@std@@@std@@QEBAPEAUprimitive_desc@inner_product_forward@dnnl@@XZ 00000001800255d0 f i MWFCLayerImpl.obj
 0001:000245e0       ??D?$unique_ptr@Udesc@inner_product_forward@dnnl@@U?$default_delete@Udesc@inner_product_forward@dnnl@@@std@@@std@@QEBAAEAUdesc@inner_product_forward@dnnl@@XZ 00000001800255e0 f i MWFCLayerImpl.obj
 0001:000245f0       ??D?$unique_ptr@Uprimitive_desc@inner_product_forward@dnnl@@U?$default_delete@Uprimitive_desc@inner_product_forward@dnnl@@@std@@@std@@QEBAAEAUprimitive_desc@inner_product_forward@dnnl@@XZ 00000001800255f0 f i MWFCLayerImpl.obj
 0001:00024600       ??R?$default_delete@Udesc@inner_product_forward@dnnl@@@std@@QEBAXPEAUdesc@inner_product_forward@dnnl@@@Z 0000000180025600 f i MWFCLayerImpl.obj
 0001:00024630       ??R?$default_delete@Uinner_product_forward@dnnl@@@std@@QEBAXPEAUinner_product_forward@dnnl@@@Z 0000000180025630 f i MWFCLayerImpl.obj
 0001:00024680       ??R?$default_delete@Uprimitive_desc@inner_product_forward@dnnl@@@std@@QEBAXPEAUprimitive_desc@inner_product_forward@dnnl@@@Z 0000000180025680 f i MWFCLayerImpl.obj
 0001:000246d0       ??_E?$_Ref_count_obj2@Udesc@memory@dnnl@@@std@@UEAAPEAXI@Z 00000001800256d0 f i MWFCLayerImpl.obj
 0001:000246d0       ??_G?$_Ref_count_obj2@Udesc@memory@dnnl@@@std@@UEAAPEAXI@Z 00000001800256d0 f i MWFCLayerImpl.obj
 0001:00024710       ??_GMWFCLayerImpl@@UEAAPEAXI@Z 0000000180025710 f i MWFCLayerImpl.obj
 0001:00024710       ??_EMWFCLayerImpl@@UEAAPEAXI@Z 0000000180025710 f i MWFCLayerImpl.obj
 0001:00024750       ??_Ginner_product_forward@dnnl@@QEAAPEAXI@Z 0000000180025750 f i MWFCLayerImpl.obj
 0001:00024790       ??_Gprimitive_desc@inner_product_forward@dnnl@@QEAAPEAXI@Z 0000000180025790 f i MWFCLayerImpl.obj
 0001:000247d0       ?_Calculate_growth@?$vector@_JV?$allocator@_J@std@@@std@@AEBA_K_K@Z 00000001800257d0 f i MWFCLayerImpl.obj
 0001:00024860       ?_Clear_and_reserve_geometric@?$vector@_JV?$allocator@_J@std@@@std@@AEAAX_K@Z 0000000180025860 f i MWFCLayerImpl.obj
 0001:00024970       ?_Decref@?$_Ptr_base@Udesc@memory@dnnl@@@std@@IEAAXXZ 0000000180025970 f i MWFCLayerImpl.obj
 0001:000249a0       ?_Delete_this@?$_Ref_count_obj2@Udesc@memory@dnnl@@@std@@EEAAXXZ 00000001800259a0 f i MWFCLayerImpl.obj
 0001:000249f0       ?_Destroy@?$_Ref_count_obj2@Udesc@memory@dnnl@@@std@@EEAAXXZ 00000001800259f0 f i MWFCLayerImpl.obj
 0001:00024a10       ?_Get_first@?$_Compressed_pair@U?$default_delete@Udesc@inner_product_forward@dnnl@@@std@@PEAUdesc@inner_product_forward@dnnl@@$00@std@@QEAAAEAU?$default_delete@Udesc@inner_product_forward@dnnl@@@2@XZ 0000000180025a10 f i MWFCLayerImpl.obj
 0001:00024a20       ?_Get_first@?$_Compressed_pair@U?$default_delete@Uinner_product_forward@dnnl@@@std@@PEAUinner_product_forward@dnnl@@$00@std@@QEAAAEAU?$default_delete@Uinner_product_forward@dnnl@@@2@XZ 0000000180025a20 f i MWFCLayerImpl.obj
 0001:00024a30       ?_Get_first@?$_Compressed_pair@U?$default_delete@Uprimitive_desc@inner_product_forward@dnnl@@@std@@PEAUprimitive_desc@inner_product_forward@dnnl@@$00@std@@QEAAAEAU?$default_delete@Uprimitive_desc@inner_product_forward@dnnl@@@2@XZ 0000000180025a30 f i MWFCLayerImpl.obj
 0001:00024a40       ?_Swap@?$_Ptr_base@Udesc@memory@dnnl@@@std@@IEAAXAEAV12@@Z 0000000180025a40 f i MWFCLayerImpl.obj
 0001:00024a80       ?capacity@?$vector@_JV?$allocator@_J@std@@@std@@QEBA_KXZ 0000000180025a80 f i MWFCLayerImpl.obj
 0001:00024ab0       ?get@?$_Ptr_base@Udesc@memory@dnnl@@@std@@IEBAPEAUdesc@memory@dnnl@@XZ 0000000180025ab0 f i MWFCLayerImpl.obj
 0001:00024ac0       ?release@?$unique_ptr@Udesc@inner_product_forward@dnnl@@U?$default_delete@Udesc@inner_product_forward@dnnl@@@std@@@std@@QEAAPEAUdesc@inner_product_forward@dnnl@@XZ 0000000180025ac0 f i MWFCLayerImpl.obj
 0001:00024af0       ?release@?$unique_ptr@Uinner_product_forward@dnnl@@U?$default_delete@Uinner_product_forward@dnnl@@@std@@@std@@QEAAPEAUinner_product_forward@dnnl@@XZ 0000000180025af0 f i MWFCLayerImpl.obj
 0001:00024b20       ?release@?$unique_ptr@Uprimitive_desc@inner_product_forward@dnnl@@U?$default_delete@Uprimitive_desc@inner_product_forward@dnnl@@@std@@@std@@QEAAPEAUprimitive_desc@inner_product_forward@dnnl@@XZ 0000000180025b20 f i MWFCLayerImpl.obj
 0001:00024b50       ?reset@?$unique_ptr@Udesc@inner_product_forward@dnnl@@U?$default_delete@Udesc@inner_product_forward@dnnl@@@std@@@std@@QEAAXPEAUdesc@inner_product_forward@dnnl@@@Z 0000000180025b50 f i MWFCLayerImpl.obj
 0001:00024ba0       ?reset@?$unique_ptr@Uprimitive_desc@inner_product_forward@dnnl@@U?$default_delete@Uprimitive_desc@inner_product_forward@dnnl@@@std@@@std@@QEAAXPEAUprimitive_desc@inner_product_forward@dnnl@@@Z 0000000180025ba0 f i MWFCLayerImpl.obj
 0001:00024bf0       ?select_on_container_copy_construction@?$_Default_allocator_traits@V?$allocator@_J@std@@@std@@SA?AV?$allocator@_J@2@AEBV32@@Z 0000000180025bf0 f i MWFCLayerImpl.obj
 0001:00024c00       ?src_desc@primitive_desc@inner_product_forward@dnnl@@QEBA?AUdesc@memory@3@XZ 0000000180025c00 f i MWFCLayerImpl.obj
 0001:00024c30       ?swap@?$shared_ptr@Udesc@memory@dnnl@@@std@@QEAAXAEAV12@@Z 0000000180025c30 f i MWFCLayerImpl.obj
 0001:00024c60       ?weights_desc@primitive_desc@inner_product_forward@dnnl@@QEBA?AUdesc@memory@3@XZ 0000000180025c60 f i MWFCLayerImpl.obj
 0001:00024c90       ??0MWFusedConvReLULayerImpl@@QEAA@PEAVMWCNNLayer@@PEAVMWTargetNetworkImpl@@HHHHHHHHHHHHHHPEBD2@Z 0000000180025c90 f   MWFusedConvReLULayerImpl.obj
 0001:00025d10       ??1MWFusedConvReLULayerImpl@@UEAA@XZ 0000000180026d10 f   MWFusedConvReLULayerImpl.obj
 0001:00025e50       ?predict@MWFusedConvReLULayerImpl@@UEAAXXZ 0000000180026e50 f   MWFusedConvReLULayerImpl.obj
 0001:00026160       ?propagateSize@MWFusedConvReLULayerImpl@@UEAAXXZ 0000000180027160 f   MWFusedConvReLULayerImpl.obj
 0001:00028670       ?cleanup@MWFusedConvReLULayerImpl@@UEAAXXZ 0000000180029670 f   MWFusedConvReLULayerImpl.obj
 0001:000286f0       ?loadWeights@MWFusedConvReLULayerImpl@@AEAAXPEBDH@Z 00000001800296f0 f   MWFusedConvReLULayerImpl.obj
 0001:00028760       ?loadBias@MWFusedConvReLULayerImpl@@AEAAXPEBDH@Z 0000000180029760 f   MWFusedConvReLULayerImpl.obj
 0001:000287d0       ??$?0P6A?AW4dnnl_status_t@@PEAUdnnl_post_ops@@@ZAEAPEAU1@@?$_Compressed_pair@P6A?AW4dnnl_status_t@@PEAUdnnl_post_ops@@@ZPEAU2@$0A@@std@@QEAA@U_One_then_variadic_args_t@1@$$QEAP6A?AW4dnnl_status_t@@PEAUdnnl_post_ops@@@ZAEAPEAU4@@Z 00000001800297d0 f i MWFusedConvReLULayerImpl.obj
 0001:00028820       ??$?0Udnnl_post_ops@@P6A?AW4dnnl_status_t@@PEAU0@@Z$0A@@?$shared_ptr@Udnnl_post_ops@@@std@@QEAA@PEAUdnnl_post_ops@@P6A?AW4dnnl_status_t@@0@Z@Z 0000000180029820 f i MWFusedConvReLULayerImpl.obj
 0001:00028870       ??$_Copy_construct_from@Udnnl_post_ops@@@?$_Ptr_base@Udnnl_post_ops@@@std@@IEAAXAEBV?$shared_ptr@Udnnl_post_ops@@@1@@Z 0000000180029870 f i MWFusedConvReLULayerImpl.obj
 0001:000288b0       ??$_Find@H@?$_Tree@V?$_Tmap_traits@HHU?$less@H@std@@V?$allocator@U?$pair@$$CBHH@std@@@2@$0A@@std@@@std@@AEBAPEAU?$_Tree_node@U?$pair@$$CBHH@std@@PEAX@1@AEBH@Z 00000001800298b0 f i MWFusedConvReLULayerImpl.obj
 0001:00028910       ??$_Find_lower_bound@H@?$_Tree@V?$_Tmap_traits@HHU?$less@H@std@@V?$allocator@U?$pair@$$CBHH@std@@@2@$0A@@std@@@std@@IEBA?AU?$_Tree_find_result@PEAU?$_Tree_node@U?$pair@$$CBHH@std@@PEAX@std@@@1@AEBH@Z 0000000180029910 f i MWFusedConvReLULayerImpl.obj
 0001:00028a20       ??$_Kfn@$$CBHH@?$_Tmap_traits@HHU?$less@H@std@@V?$allocator@U?$pair@$$CBHH@std@@@2@$0A@@std@@SAAEBHAEBU?$pair@$$CBHH@1@@Z 0000000180029a20 f i MWFusedConvReLULayerImpl.obj
 0001:00028a30       ??$_Lower_bound_duplicate@H@?$_Tree@V?$_Tmap_traits@HHU?$less@H@std@@V?$allocator@U?$pair@$$CBHH@std@@@2@$0A@@std@@@std@@IEBA_NQEAU?$_Tree_node@U?$pair@$$CBHH@std@@PEAX@1@AEBH@Z 0000000180029a30 f i MWFusedConvReLULayerImpl.obj
 0001:00028ab0       ??$_Set_ptr_rep_and_enable_shared@Udnnl_post_ops@@@?$shared_ptr@Udnnl_post_ops@@@std@@AEAAXQEAUdnnl_post_ops@@QEAV_Ref_count_base@1@@Z 0000000180029ab0 f i MWFusedConvReLULayerImpl.obj
 0001:00028ae0       ??$_Setpd@PEAUdnnl_post_ops@@P6A?AW4dnnl_status_t@@PEAU1@@Z@?$shared_ptr@Udnnl_post_ops@@@std@@AEAAXQEAUdnnl_post_ops@@P6A?AW4dnnl_status_t@@PEAU2@@Z@Z 0000000180029ae0 f i MWFusedConvReLULayerImpl.obj
 0001:00028b80       ??$addressof@$$CBV?$_Tree_val@U?$_Tree_simple_types@U?$pair@$$CBHH@std@@@std@@@std@@@std@@YAPEBV?$_Tree_val@U?$_Tree_simple_types@U?$pair@$$CBHH@std@@@std@@@0@AEBV10@@Z 0000000180029b80 f i MWFusedConvReLULayerImpl.obj
 0001:00028b90       ??$addressof@Q6A?AW4dnnl_status_t@@PEAUdnnl_post_ops@@@Z@std@@YAPEBQ6A?AW4dnnl_status_t@@PEAUdnnl_post_ops@@@ZAEBQ6A?AW41@0@Z@Z 0000000180029b90 f i MWFusedConvReLULayerImpl.obj
 0001:00028ba0       ??$forward@AEAPEAUdnnl_post_ops@@@std@@YAAEAPEAUdnnl_post_ops@@AEAPEAU1@@Z 0000000180029ba0 f i MWFusedConvReLULayerImpl.obj
 0001:00028bb0       ??$forward@P6A?AW4dnnl_status_t@@PEAUdnnl_post_ops@@@Z@std@@YA$$QEAP6A?AW4dnnl_status_t@@PEAUdnnl_post_ops@@@ZAEAP6A?AW41@0@Z@Z 0000000180029bb0 f i MWFusedConvReLULayerImpl.obj
 0001:00028bc0       ??$move@AEAP6A?AW4dnnl_status_t@@PEAUdnnl_post_ops@@@Z@std@@YA$$QEAP6A?AW4dnnl_status_t@@PEAUdnnl_post_ops@@@ZAEAP6A?AW41@0@Z@Z 0000000180029bc0 f i MWFusedConvReLULayerImpl.obj
 0001:00028bd0       ??$move@AEAPEAUdnnl_post_ops@@@std@@YA$$QEAPEAUdnnl_post_ops@@AEAPEAU1@@Z 0000000180029bd0 f i MWFusedConvReLULayerImpl.obj
 0001:00028be0       ??$reset@Udnnl_post_ops@@P6A?AW4dnnl_status_t@@PEAU1@@Z@?$shared_ptr@Udnnl_post_ops@@@std@@QEAAXPEAUdnnl_post_ops@@P6A?AW4dnnl_status_t@@0@Z@Z 0000000180029be0 f i MWFusedConvReLULayerImpl.obj
 0001:00028c30       ??$swap@PEAUdnnl_post_ops@@$0A@@std@@YAXAEAPEAUdnnl_post_ops@@0@Z 0000000180029c30 f i MWFusedConvReLULayerImpl.obj
 0001:00028c80       ??0?$_Ptr_base@Udnnl_post_ops@@@std@@IEAA@XZ 0000000180029c80 f i MWFusedConvReLULayerImpl.obj
 0001:00028cb0       ??0?$_Ref_count_resource@PEAUdnnl_post_ops@@P6A?AW4dnnl_status_t@@PEAU1@@Z@std@@QEAA@PEAUdnnl_post_ops@@P6A?AW4dnnl_status_t@@0@Z@Z 0000000180029cb0 f i MWFusedConvReLULayerImpl.obj
 0001:00028d20       ??0?$_Temporary_owner_del@PEAUdnnl_post_ops@@P6A?AW4dnnl_status_t@@PEAU1@@Z@std@@QEAA@QEAUdnnl_post_ops@@AEAP6A?AW4dnnl_status_t@@PEAU2@@Z@Z 0000000180029d20 f i MWFusedConvReLULayerImpl.obj
 0001:00028d60       ??0?$_Tree_const_iterator@V?$_Tree_val@U?$_Tree_simple_types@U?$pair@$$CBHH@std@@@std@@@std@@@std@@QEAA@PEAU?$_Tree_node@U?$pair@$$CBHH@std@@PEAX@1@PEBV?$_Tree_val@U?$_Tree_simple_types@U?$pair@$$CBHH@std@@@std@@@1@@Z 0000000180029d60 f i MWFusedConvReLULayerImpl.obj
 0001:00028da0       ??0?$_Tree_iterator@V?$_Tree_val@U?$_Tree_simple_types@U?$pair@$$CBHH@std@@@std@@@std@@@std@@QEAA@PEAU?$_Tree_node@U?$pair@$$CBHH@std@@PEAX@1@PEBV?$_Tree_val@U?$_Tree_simple_types@U?$pair@$$CBHH@std@@@std@@@1@@Z 0000000180029da0 f i MWFusedConvReLULayerImpl.obj
 0001:00028de0       ??0?$_Tree_unchecked_const_iterator@V?$_Tree_val@U?$_Tree_simple_types@U?$pair@$$CBHH@std@@@std@@@std@@U_Iterator_base0@2@@std@@QEAA@PEAU?$_Tree_node@U?$pair@$$CBHH@std@@PEAX@1@PEBV?$_Tree_val@U?$_Tree_simple_types@U?$pair@$$CBHH@std@@@std@@@1@@Z 0000000180029de0 f i MWFusedConvReLULayerImpl.obj
 0001:00028e20       ??0?$handle@PEAUdnnl_post_ops@@U?$handle_traits@PEAUdnnl_post_ops@@@dnnl@@@dnnl@@QEAA@AEBU01@@Z 0000000180029e20 f i MWFusedConvReLULayerImpl.obj
 0001:00028e50       ??0?$handle@PEAUdnnl_post_ops@@U?$handle_traits@PEAUdnnl_post_ops@@@dnnl@@@dnnl@@QEAA@XZ 0000000180029e50 f i MWFusedConvReLULayerImpl.obj
 0001:00028e80       ??0?$shared_ptr@Udnnl_post_ops@@@std@@QEAA@$$T@Z 0000000180029e80 f i MWFusedConvReLULayerImpl.obj
 0001:00028eb0       ??0?$shared_ptr@Udnnl_post_ops@@@std@@QEAA@AEBV01@@Z 0000000180029eb0 f i MWFusedConvReLULayerImpl.obj
 0001:00028ef0       ??0post_ops@dnnl@@QEAA@AEBU01@@Z 0000000180029ef0 f i MWFusedConvReLULayerImpl.obj
 0001:00028f20       ??0post_ops@dnnl@@QEAA@XZ  0000000180029f20 f i MWFusedConvReLULayerImpl.obj
 0001:00028f70       ??0primitive_desc@convolution_forward@dnnl@@QEAA@AEBUdesc@12@AEBUprimitive_attr@2@AEBUengine@2@_N@Z 0000000180029f70 f i MWFusedConvReLULayerImpl.obj
 0001:00028fc0       ??1?$_Ref_count_resource@PEAUdnnl_post_ops@@P6A?AW4dnnl_status_t@@PEAU1@@Z@std@@UEAA@XZ 0000000180029fc0 f i MWFusedConvReLULayerImpl.obj
 0001:00028fe0       ??1?$_Temporary_owner_del@PEAUdnnl_post_ops@@P6A?AW4dnnl_status_t@@PEAU1@@Z@std@@QEAA@XZ 0000000180029fe0 f i MWFusedConvReLULayerImpl.obj
 0001:00029010       ??1?$handle@PEAUdnnl_post_ops@@U?$handle_traits@PEAUdnnl_post_ops@@@dnnl@@@dnnl@@QEAA@XZ 000000018002a010 f i MWFusedConvReLULayerImpl.obj
 0001:00029030       ??1?$shared_ptr@Udnnl_post_ops@@@std@@QEAA@XZ 000000018002a030 f i MWFusedConvReLULayerImpl.obj
 0001:00029050       ??1post_ops@dnnl@@QEAA@XZ  000000018002a050 f i MWFusedConvReLULayerImpl.obj
 0001:00029070       ??8?$_Tree_const_iterator@V?$_Tree_val@U?$_Tree_simple_types@U?$pair@$$CBHH@std@@@std@@@std@@@std@@QEBA_NAEBV01@@Z 000000018002a070 f i MWFusedConvReLULayerImpl.obj
 0001:000290b0       ??C?$_Tree_iterator@V?$_Tree_val@U?$_Tree_simple_types@U?$pair@$$CBHH@std@@@std@@@std@@@std@@QEBAPEAU?$pair@$$CBHH@1@XZ 000000018002a0b0 f i MWFusedConvReLULayerImpl.obj
 0001:000290d0       ??D?$_Tree_const_iterator@V?$_Tree_val@U?$_Tree_simple_types@U?$pair@$$CBHH@std@@@std@@@std@@@std@@QEBAAEBU?$pair@$$CBHH@1@XZ 000000018002a0d0 f i MWFusedConvReLULayerImpl.obj
 0001:000290f0       ??D?$_Tree_iterator@V?$_Tree_val@U?$_Tree_simple_types@U?$pair@$$CBHH@std@@@std@@@std@@@std@@QEBAAEAU?$pair@$$CBHH@1@XZ 000000018002a0f0 f i MWFusedConvReLULayerImpl.obj
 0001:00029110       ??_G?$_Ref_count_resource@PEAUdnnl_post_ops@@P6A?AW4dnnl_status_t@@PEAU1@@Z@std@@UEAAPEAXI@Z 000000018002a110 f i MWFusedConvReLULayerImpl.obj
 0001:00029110       ??_E?$_Ref_count_resource@PEAUdnnl_post_ops@@P6A?AW4dnnl_status_t@@PEAU1@@Z@std@@UEAAPEAXI@Z 000000018002a110 f i MWFusedConvReLULayerImpl.obj
 0001:00029150       ??_EMWFusedConvReLULayerImpl@@UEAAPEAXI@Z 000000018002a150 f i MWFusedConvReLULayerImpl.obj
 0001:00029150       ??_GMWFusedConvReLULayerImpl@@UEAAPEAXI@Z 000000018002a150 f i MWFusedConvReLULayerImpl.obj
 0001:00029190       ?_Decref@?$_Ptr_base@Udnnl_post_ops@@@std@@IEAAXXZ 000000018002a190 f i MWFusedConvReLULayerImpl.obj
 0001:000291c0       ?_Delete_this@?$_Ref_count_resource@PEAUdnnl_post_ops@@P6A?AW4dnnl_status_t@@PEAU1@@Z@std@@EEAAXXZ 000000018002a1c0 f i MWFusedConvReLULayerImpl.obj
 0001:00029210       ?_Destroy@?$_Ref_count_resource@PEAUdnnl_post_ops@@P6A?AW4dnnl_status_t@@PEAU1@@Z@std@@EEAAXXZ 000000018002a210 f i MWFusedConvReLULayerImpl.obj
 0001:00029240       ?_Get_deleter@?$_Ref_count_resource@PEAUdnnl_post_ops@@P6A?AW4dnnl_status_t@@PEAU1@@Z@std@@UEBAPEAXAEBVtype_info@@@Z 000000018002a240 f i MWFusedConvReLULayerImpl.obj
 0001:00029290       ?_Get_first@?$_Compressed_pair@P6A?AW4dnnl_status_t@@PEAUdnnl_post_ops@@@ZPEAU2@$0A@@std@@QEAAAEAP6A?AW4dnnl_status_t@@PEAUdnnl_post_ops@@@ZXZ 000000018002a290 f i MWFusedConvReLULayerImpl.obj
 0001:000292a0       ?_Get_first@?$_Compressed_pair@P6A?AW4dnnl_status_t@@PEAUdnnl_post_ops@@@ZPEAU2@$0A@@std@@QEBAAEBQ6A?AW4dnnl_status_t@@PEAUdnnl_post_ops@@@ZXZ 000000018002a2a0 f i MWFusedConvReLULayerImpl.obj
 0001:000292b0       ?_Get_first@?$_Compressed_pair@U?$less@H@std@@V?$_Compressed_pair@V?$allocator@U?$_Tree_node@U?$pair@$$CBHH@std@@PEAX@std@@@std@@V?$_Tree_val@U?$_Tree_simple_types@U?$pair@$$CBHH@std@@@std@@@2@$00@2@$00@std@@QEBAAEBU?$less@H@2@XZ 000000018002a2b0 f i MWFusedConvReLULayerImpl.obj
 0001:000292c0       ?_Get_scary@?$_Tree@V?$_Tmap_traits@HHU?$less@H@std@@V?$allocator@U?$pair@$$CBHH@std@@@2@$0A@@std@@@std@@IEBAPEBV?$_Tree_val@U?$_Tree_simple_types@U?$pair@$$CBHH@std@@@std@@@2@XZ 000000018002a2c0 f i MWFusedConvReLULayerImpl.obj
 0001:000292e0       ?_Getcomp@?$_Tree@V?$_Tmap_traits@HHU?$less@H@std@@V?$allocator@U?$pair@$$CBHH@std@@@2@$0A@@std@@@std@@IEBAAEBU?$less@H@2@XZ 000000018002a2e0 f i MWFusedConvReLULayerImpl.obj
 0001:00029300       ?_Incref@?$_Ptr_base@Udnnl_post_ops@@@std@@IEBAXXZ 000000018002a300 f i MWFusedConvReLULayerImpl.obj
 0001:00029330       ?_Swap@?$_Ptr_base@Udnnl_post_ops@@@std@@IEAAXAEAV12@@Z 000000018002a330 f i MWFusedConvReLULayerImpl.obj
 0001:00029370       ?append_eltwise@post_ops@dnnl@@QEAAXMW4algorithm@2@MM@Z 000000018002a370 f i MWFusedConvReLULayerImpl.obj
 0001:000293e0       ?append_sum@post_ops@dnnl@@QEAAXM@Z 000000018002a3e0 f i MWFusedConvReLULayerImpl.obj
 0001:00029420       ?destructor@?$handle_traits@PEAUdnnl_post_ops@@@dnnl@@SA?AW4dnnl_status_t@@PEAUdnnl_post_ops@@@Z 000000018002a420 f i MWFusedConvReLULayerImpl.obj
 0001:00029440       ?dummy_destructor@?$handle@PEAUdnnl_post_ops@@U?$handle_traits@PEAUdnnl_post_ops@@@dnnl@@@dnnl@@CA?AW4dnnl_status_t@@PEAUdnnl_post_ops@@@Z 000000018002a440 f i MWFusedConvReLULayerImpl.obj
 0001:00029450       ?end@?$_Tree@V?$_Tmap_traits@HHU?$less@H@std@@V?$allocator@U?$pair@$$CBHH@std@@@2@$0A@@std@@@std@@QEAA?AV?$_Tree_iterator@V?$_Tree_val@U?$_Tree_simple_types@U?$pair@$$CBHH@std@@@std@@@std@@@2@XZ 000000018002a450 f i MWFusedConvReLULayerImpl.obj
 0001:00029490       ?find@?$_Tree@V?$_Tmap_traits@HHU?$less@H@std@@V?$allocator@U?$pair@$$CBHH@std@@@2@$0A@@std@@@std@@QEAA?AV?$_Tree_iterator@V?$_Tree_val@U?$_Tree_simple_types@U?$pair@$$CBHH@std@@@std@@@std@@@2@AEBH@Z 000000018002a490 f i MWFusedConvReLULayerImpl.obj
 0001:000294e0       ?get@?$_Ptr_base@Udnnl_post_ops@@@std@@IEBAPEAUdnnl_post_ops@@XZ 000000018002a4e0 f i MWFusedConvReLULayerImpl.obj
 0001:000294f0       ?get@?$handle@PEAUdnnl_post_ops@@U?$handle_traits@PEAUdnnl_post_ops@@@dnnl@@@dnnl@@QEBAPEAUdnnl_post_ops@@_N@Z 000000018002a4f0 f i MWFusedConvReLULayerImpl.obj
 0001:00029560       ?getInPlaceIndex@MWCNNLayer@@QEAAHH@Z 000000018002a560 f i MWFusedConvReLULayerImpl.obj
 0001:00029600       ?get_size@desc@memory@dnnl@@QEBA_KXZ 000000018002a600 f i MWFusedConvReLULayerImpl.obj
 0001:00029620       ?pointer_to@?$pointer_traits@PEAU?$pair@$$CBHH@std@@@std@@SAPEAU?$pair@$$CBHH@2@AEAU32@@Z 000000018002a620 f i MWFusedConvReLULayerImpl.obj
 0001:00029640       ?reset@?$handle@PEAUdnnl_post_ops@@U?$handle_traits@PEAUdnnl_post_ops@@@dnnl@@@dnnl@@QEAAXPEAUdnnl_post_ops@@_N@Z 000000018002a640 f i MWFusedConvReLULayerImpl.obj
 0001:000296a0       ?set_post_ops@primitive_attr@dnnl@@QEAAXUpost_ops@2@@Z 000000018002a6a0 f i MWFusedConvReLULayerImpl.obj
 0001:00029700       ?swap@?$shared_ptr@Udnnl_post_ops@@@std@@QEAAXAEAV12@@Z 000000018002a700 f i MWFusedConvReLULayerImpl.obj
 0001:00029730       ??0MWInputLayerImpl@@QEAA@PEAVMWCNNLayer@@PEAVMWTargetNetworkImpl@@@Z 000000018002a730 f   MWInputLayerImpl.obj
 0001:00029780       ?predict@MWInputLayerImpl@@UEAAXXZ 000000018002a780 f   MWInputLayerImpl.obj
 0001:00029790       ?propagateSize@MWInputLayerImpl@@UEAAXXZ 000000018002a790 f   MWInputLayerImpl.obj
 0001:00029920       ??1MWInputLayerImpl@@UEAA@XZ 000000018002a920 f i MWInputLayerImpl.obj
 0001:00029950       ??_EMWInputLayerImpl@@UEAAPEAXI@Z 000000018002a950 f i MWInputLayerImpl.obj
 0001:00029950       ??_GMWInputLayerImpl@@UEAAPEAXI@Z 000000018002a950 f i MWInputLayerImpl.obj
 0001:00029990       ?cleanup@MWInputLayerImpl@@UEAAXXZ 000000018002a990 f i MWInputLayerImpl.obj
 0001:000299a0       ??0MWMaxPoolingLayerImpl@@QEAA@PEAVMWCNNLayer@@PEAVMWTargetNetworkImpl@@HHHHHHHH_NHPEBDH@Z 000000018002a9a0 f   MWMaxPoolingLayerImpl.obj
 0001:00029b10       ??1MWMaxPoolingLayerImpl@@UEAA@XZ 000000018002ab10 f   MWMaxPoolingLayerImpl.obj
 0001:00029bd0       ?predict@MWMaxPoolingLayerImpl@@UEAAXXZ 000000018002abd0 f   MWMaxPoolingLayerImpl.obj
 0001:00029d40       ?getIndexData@MWMaxPoolingLayerImpl@@QEAAPEAMXZ 000000018002ad40 f   MWMaxPoolingLayerImpl.obj
 0001:00029d60       ?propagateSize@MWMaxPoolingLayerImpl@@UEAAXXZ 000000018002ad60 f   MWMaxPoolingLayerImpl.obj
 0001:0002aaf0       ?getPoolPrimitiveDesc@MWMaxPoolingLayerImpl@@QEAA?AV?$shared_ptr@Uprimitive_desc@pooling_forward@dnnl@@@std@@XZ 000000018002baf0 f   MWMaxPoolingLayerImpl.obj
 0001:0002ab40       ?getPoolKernel@MWMaxPoolingLayerImpl@@QEAA?AV?$vector@_JV?$allocator@_J@std@@@std@@XZ 000000018002bb40 f   MWMaxPoolingLayerImpl.obj
 0001:0002ab90       ?getPoolStrides@MWMaxPoolingLayerImpl@@QEAA?AV?$vector@_JV?$allocator@_J@std@@@std@@XZ 000000018002bb90 f   MWMaxPoolingLayerImpl.obj
 0001:0002abe0       ?getPoolPadTL@MWMaxPoolingLayerImpl@@QEAA?AV?$vector@_JV?$allocator@_J@std@@@std@@XZ 000000018002bbe0 f   MWMaxPoolingLayerImpl.obj
 0001:0002ac30       ?getPoolPadBR@MWMaxPoolingLayerImpl@@QEAA?AV?$vector@_JV?$allocator@_J@std@@@std@@XZ 000000018002bc30 f   MWMaxPoolingLayerImpl.obj
 0001:0002ac80       ?createMaxpoolingIndicesPrimitive@@YAXUdesc@memory@dnnl@@V?$shared_ptr@Udesc@pooling_forward@dnnl@@@std@@AEAV?$shared_ptr@Uprimitive_desc@pooling_forward@dnnl@@@5@V?$shared_ptr@Umemory@dnnl@@@5@AEAV75@4AEAV?$shared_ptr@Uprimitive@dnnl@@@5@V?$vector@_JV?$allocator@_J@std@@@5@666@Z 000000018002bc80 f   MWMaxPoolingLayerImpl.obj
 0001:0002afd0       ?createMaxpoolingPrimitive@@YAXUdesc@memory@dnnl@@V?$shared_ptr@Udesc@pooling_forward@dnnl@@@std@@AEAV?$shared_ptr@Uprimitive_desc@pooling_forward@dnnl@@@5@V?$shared_ptr@Umemory@dnnl@@@5@AEAV75@AEAV?$shared_ptr@Uprimitive@dnnl@@@5@V?$vector@_JV?$allocator@_J@std@@@5@666@Z 000000018002bfd0 f   MWMaxPoolingLayerImpl.obj
 0001:0002b280       ??$?0$$QEAH$$Z$$V@?$pair@$$CBHV?$shared_ptr@Umemory@dnnl@@@std@@@std@@QEAA@Upiecewise_construct_t@1@V?$tuple@$$QEAH@1@V?$tuple@$$V@1@@Z 000000018002c280 f i MWMaxPoolingLayerImpl.obj
 0001:0002b2f0       ??$?0AEAUdesc@pooling_forward@dnnl@@Uengine@2@@?$_Ref_count_obj2@Uprimitive_desc@pooling_forward@dnnl@@@std@@QEAA@AEAUdesc@pooling_forward@dnnl@@$$QEAUengine@4@@Z 000000018002c2f0 f i MWMaxPoolingLayerImpl.obj
 0001:0002b370       ??$?0AEAUprimitive_desc@pooling_forward@dnnl@@@?$_Ref_count_obj2@Upooling_forward@dnnl@@@std@@QEAA@AEAUprimitive_desc@pooling_forward@dnnl@@@Z 000000018002c370 f i MWMaxPoolingLayerImpl.obj
 0001:0002b3d0       ??$?0AEBQEAU?$_Tree_node@U?$pair@$$CBHV?$shared_ptr@Umemory@dnnl@@@std@@@std@@PEAX@std@@_N$0A@@?$pair@PEAU?$_Tree_node@U?$pair@$$CBHV?$shared_ptr@Umemory@dnnl@@@std@@@std@@PEAX@std@@_N@std@@QEAA@AEBQEAU?$_Tree_node@U?$pair@$$CBHV?$shared_ptr@Umemory@dnnl@@@std@@@std@@PEAX@1@$$QEA_N@Z 000000018002c3d0 f i MWMaxPoolingLayerImpl.obj
 0001:0002b420       ??$?0AEBUpiecewise_construct_t@std@@V?$tuple@$$QEAH@1@V?$tuple@$$V@1@@?$_Tree_temp_node@V?$allocator@U?$_Tree_node@U?$pair@$$CBHV?$shared_ptr@Umemory@dnnl@@@std@@@std@@PEAX@std@@@std@@@std@@QEAA@AEAV?$allocator@U?$_Tree_node@U?$pair@$$CBHV?$shared_ptr@Umemory@dnnl@@@std@@@std@@PEAX@std@@@1@PEAU?$_Tree_node@U?$pair@$$CBHV?$shared_ptr@Umemory@dnnl@@@std@@@std@@PEAX@1@AEBUpiecewise_construct_t@1@$$QEAV?$tuple@$$QEAH@1@$$QEAV?$tuple@$$V@1@@Z 000000018002c420 f i MWMaxPoolingLayerImpl.obj
 0001:0002b530       ??$?0H$$V$0A@@?$tuple@$$QEAH@std@@QEAA@$$QEAH@Z 000000018002c530 f i MWMaxPoolingLayerImpl.obj
 0001:0002b570       ??$?0H@?$_Tuple_val@$$QEAH@std@@QEAA@$$QEAH@Z 000000018002c570 f i MWMaxPoolingLayerImpl.obj
 0001:0002b5a0       ??$?0PEAU?$_Tree_node@U?$pair@$$CBHV?$shared_ptr@Umemory@dnnl@@@std@@@std@@PEAX@std@@_N$0A@@?$pair@PEAU?$_Tree_node@U?$pair@$$CBHV?$shared_ptr@Umemory@dnnl@@@std@@@std@@PEAX@std@@_N@std@@QEAA@$$QEAPEAU?$_Tree_node@U?$pair@$$CBHV?$shared_ptr@Umemory@dnnl@@@std@@@std@@PEAX@1@$$QEA_N@Z 000000018002c5a0 f i MWMaxPoolingLayerImpl.obj
 0001:0002b5f0       ??$?0U_Exact_args_t@std@@H$$V$0A@@?$tuple@$$QEAH@std@@QEAA@U_Exact_args_t@1@$$QEAH@Z 000000018002c5f0 f i MWMaxPoolingLayerImpl.obj
 0001:0002b640       ??$?0Udesc@memory@dnnl@@Uengine@2@@?$_Ref_count_obj2@Umemory@dnnl@@@std@@QEAA@$$QEAUdesc@memory@dnnl@@$$QEAUengine@4@@Z 000000018002c640 f i MWMaxPoolingLayerImpl.obj
 0001:0002b6c0       ??$?0Upooling_forward@dnnl@@$0A@@?$shared_ptr@Uprimitive@dnnl@@@std@@QEAA@$$QEAV?$shared_ptr@Upooling_forward@dnnl@@@1@@Z 000000018002c6c0 f i MWMaxPoolingLayerImpl.obj
 0001:0002b700       ??$?0V?$tuple@$$QEAH@std@@V?$tuple@$$V@1@$0A@$$Z$S@?$pair@$$CBHV?$shared_ptr@Umemory@dnnl@@@std@@@std@@QEAA@AEAV?$tuple@$$QEAH@1@AEAV?$tuple@$$V@1@U?$integer_sequence@_K$0A@@1@U?$integer_sequence@_K$S@1@@Z 000000018002c700 f i MWMaxPoolingLayerImpl.obj
 0001:0002b770       ??$?0W4prop_kind@dnnl@@W4algorithm@1@Udesc@memory@1@AEAU341@AEAV?$vector@_JV?$allocator@_J@std@@@std@@AEAV56@AEAV56@AEAV56@@?$_Ref_count_obj2@Udesc@pooling_forward@dnnl@@@std@@QEAA@$$QEAW4prop_kind@dnnl@@$$QEAW4algorithm@3@$$QEAUdesc@memory@3@AEAU563@AEAV?$vector@_JV?$allocator@_J@std@@@1@444@Z 000000018002c770 f i MWMaxPoolingLayerImpl.obj
 0001:0002b8c0       ??$?4Upooling_forward@dnnl@@@?$shared_ptr@Uprimitive@dnnl@@@std@@QEAAAEAV01@$$QEAV?$shared_ptr@Upooling_forward@dnnl@@@1@@Z 000000018002c8c0 f i MWMaxPoolingLayerImpl.obj
 0001:0002b910       ??$?CUprimitive_desc@pooling_forward@dnnl@@$0A@@?$shared_ptr@Uprimitive_desc@pooling_forward@dnnl@@@std@@QEBAPEAUprimitive_desc@pooling_forward@dnnl@@XZ 000000018002c910 f i MWMaxPoolingLayerImpl.obj
 0001:0002b930       ??$?DUdesc@pooling_forward@dnnl@@$0A@@?$shared_ptr@Udesc@pooling_forward@dnnl@@@std@@QEBAAEAUdesc@pooling_forward@dnnl@@XZ 000000018002c930 f i MWMaxPoolingLayerImpl.obj
 0001:0002b950       ??$?DUprimitive@dnnl@@$0A@@?$shared_ptr@Uprimitive@dnnl@@@std@@QEBAAEAUprimitive@dnnl@@XZ 000000018002c950 f i MWMaxPoolingLayerImpl.obj
 0001:0002b970       ??$?DUprimitive_desc@pooling_forward@dnnl@@$0A@@?$shared_ptr@Uprimitive_desc@pooling_forward@dnnl@@@std@@QEBAAEAUprimitive_desc@pooling_forward@dnnl@@XZ 000000018002c970 f i MWMaxPoolingLayerImpl.obj
 0001:0002b990       ??$_Construct_in_place@PEAU?$_Tree_node@U?$pair@$$CBHV?$shared_ptr@Umemory@dnnl@@@std@@@std@@PEAX@std@@AEAPEAU12@@std@@YAXAEAPEAU?$_Tree_node@U?$pair@$$CBHV?$shared_ptr@Umemory@dnnl@@@std@@@std@@PEAX@0@0@Z 000000018002c990 f i MWMaxPoolingLayerImpl.obj
 0001:0002b9e0       ??$_Construct_in_place@Udesc@pooling_forward@dnnl@@W4prop_kind@3@W4algorithm@3@U1memory@3@AEAU163@AEAV?$vector@_JV?$allocator@_J@std@@@std@@AEAV78@AEAV78@AEAV78@@std@@YAXAEAUdesc@pooling_forward@dnnl@@$$QEAW4prop_kind@3@$$QEAW4algorithm@3@$$QEAU1memory@3@AEAU163@AEAV?$vector@_JV?$allocator@_J@std@@@0@555@Z 000000018002c9e0 f i MWMaxPoolingLayerImpl.obj
 0001:0002bb10       ??$_Construct_in_place@Umemory@dnnl@@Udesc@12@Uengine@2@@std@@YAXAEAUmemory@dnnl@@$$QEAUdesc@12@$$QEAUengine@2@@Z 000000018002cb10 f i MWMaxPoolingLayerImpl.obj
 0001:0002bb80       ??$_Construct_in_place@Upooling_forward@dnnl@@AEAUprimitive_desc@12@@std@@YAXAEAUpooling_forward@dnnl@@AEAUprimitive_desc@12@@Z 000000018002cb80 f i MWMaxPoolingLayerImpl.obj
 0001:0002bbd0       ??$_Construct_in_place@Uprimitive_desc@pooling_forward@dnnl@@AEAUdesc@23@Uengine@3@@std@@YAXAEAUprimitive_desc@pooling_forward@dnnl@@AEAUdesc@23@$$QEAUengine@3@@Z 000000018002cbd0 f i MWMaxPoolingLayerImpl.obj
 0001:0002bc40       ??$_Copy_construct_from@Udesc@pooling_forward@dnnl@@@?$_Ptr_base@Udesc@pooling_forward@dnnl@@@std@@IEAAXAEBV?$shared_ptr@Udesc@pooling_forward@dnnl@@@1@@Z 000000018002cc40 f i MWMaxPoolingLayerImpl.obj
 0001:0002bc80       ??$_Copy_construct_from@Uprimitive_desc@pooling_forward@dnnl@@@?$_Ptr_base@Uprimitive_desc@pooling_forward@dnnl@@@std@@IEAAXAEBV?$shared_ptr@Uprimitive_desc@pooling_forward@dnnl@@@1@@Z 000000018002cc80 f i MWMaxPoolingLayerImpl.obj
 0001:0002bcc0       ??$_Destroy_in_place@Udesc@pooling_forward@dnnl@@@std@@YAXAEAUdesc@pooling_forward@dnnl@@@Z 000000018002ccc0 f i MWMaxPoolingLayerImpl.obj
 0001:0002bcd0       ??$_Destroy_in_place@Upooling_forward@dnnl@@@std@@YAXAEAUpooling_forward@dnnl@@@Z 000000018002ccd0 f i MWMaxPoolingLayerImpl.obj
 0001:0002bcf0       ??$_Destroy_in_place@Uprimitive_desc@pooling_forward@dnnl@@@std@@YAXAEAUprimitive_desc@pooling_forward@dnnl@@@Z 000000018002ccf0 f i MWMaxPoolingLayerImpl.obj
 0001:0002bd10       ??$_Find_lower_bound@H@?$_Tree@V?$_Tmap_traits@HV?$shared_ptr@Umemory@dnnl@@@std@@U?$less@H@2@V?$allocator@U?$pair@$$CBHV?$shared_ptr@Umemory@dnnl@@@std@@@std@@@2@$0A@@std@@@std@@IEBA?AU?$_Tree_find_result@PEAU?$_Tree_node@U?$pair@$$CBHV?$shared_ptr@Umemory@dnnl@@@std@@@std@@PEAX@std@@@1@AEBH@Z 000000018002cd10 f i MWMaxPoolingLayerImpl.obj
 0001:0002be20       ??$_Get_size_of_n@$0DI@@std@@YA_K_K@Z 000000018002ce20 f i MWMaxPoolingLayerImpl.obj
 0001:0002be60       ??$_Kfn@$$CBHV?$shared_ptr@Umemory@dnnl@@@std@@@?$_Tmap_traits@HV?$shared_ptr@Umemory@dnnl@@@std@@U?$less@H@2@V?$allocator@U?$pair@$$CBHV?$shared_ptr@Umemory@dnnl@@@std@@@std@@@2@$0A@@std@@SAAEBHAEBU?$pair@$$CBHV?$shared_ptr@Umemory@dnnl@@@std@@@1@@Z 000000018002ce60 f i MWMaxPoolingLayerImpl.obj
 0001:0002be70       ??$_Lower_bound_duplicate@H@?$_Tree@V?$_Tmap_traits@HV?$shared_ptr@Umemory@dnnl@@@std@@U?$less@H@2@V?$allocator@U?$pair@$$CBHV?$shared_ptr@Umemory@dnnl@@@std@@@std@@@2@$0A@@std@@@std@@IEBA_NQEAU?$_Tree_node@U?$pair@$$CBHV?$shared_ptr@Umemory@dnnl@@@std@@@std@@PEAX@1@AEBH@Z 000000018002ce70 f i MWMaxPoolingLayerImpl.obj
 0001:0002bef0       ??$_Move_construct_from@Udesc@pooling_forward@dnnl@@@?$_Ptr_base@Udesc@pooling_forward@dnnl@@@std@@IEAAX$$QEAV01@@Z 000000018002cef0 f i MWMaxPoolingLayerImpl.obj
 0001:0002bf40       ??$_Move_construct_from@Upooling_forward@dnnl@@@?$_Ptr_base@Upooling_forward@dnnl@@@std@@IEAAX$$QEAV01@@Z 000000018002cf40 f i MWMaxPoolingLayerImpl.obj
 0001:0002bf90       ??$_Move_construct_from@Upooling_forward@dnnl@@@?$_Ptr_base@Uprimitive@dnnl@@@std@@IEAAX$$QEAV?$_Ptr_base@Upooling_forward@dnnl@@@1@@Z 000000018002cf90 f i MWMaxPoolingLayerImpl.obj
 0001:0002bfe0       ??$_Move_construct_from@Uprimitive_desc@pooling_forward@dnnl@@@?$_Ptr_base@Uprimitive_desc@pooling_forward@dnnl@@@std@@IEAAX$$QEAV01@@Z 000000018002cfe0 f i MWMaxPoolingLayerImpl.obj
 0001:0002c030       ??$_Set_ptr_rep_and_enable_shared@Udesc@pooling_forward@dnnl@@@?$shared_ptr@Udesc@pooling_forward@dnnl@@@std@@AEAAXQEAUdesc@pooling_forward@dnnl@@QEAV_Ref_count_base@1@@Z 000000018002d030 f i MWMaxPoolingLayerImpl.obj
 0001:0002c060       ??$_Set_ptr_rep_and_enable_shared@Upooling_forward@dnnl@@@?$shared_ptr@Upooling_forward@dnnl@@@std@@AEAAXQEAUpooling_forward@dnnl@@QEAV_Ref_count_base@1@@Z 000000018002d060 f i MWMaxPoolingLayerImpl.obj
 0001:0002c090       ??$_Set_ptr_rep_and_enable_shared@Uprimitive_desc@pooling_forward@dnnl@@@?$shared_ptr@Uprimitive_desc@pooling_forward@dnnl@@@std@@AEAAXQEAUprimitive_desc@pooling_forward@dnnl@@QEAV_Ref_count_base@1@@Z 000000018002d090 f i MWMaxPoolingLayerImpl.obj
 0001:0002c0c0       ??$_Try_emplace@H$$V@?$map@HV?$shared_ptr@Umemory@dnnl@@@std@@U?$less@H@2@V?$allocator@U?$pair@$$CBHV?$shared_ptr@Umemory@dnnl@@@std@@@std@@@2@@std@@AEAA?AU?$pair@PEAU?$_Tree_node@U?$pair@$$CBHV?$shared_ptr@Umemory@dnnl@@@std@@@std@@PEAX@std@@_N@1@$$QEAH@Z 000000018002d0c0 f i MWMaxPoolingLayerImpl.obj
 0001:0002c260       ??$_Tuple_get@$0A@$$QEAH@std@@YA$$QEA_P$$QEAV?$tuple@$$QEAH@0@@Z 000000018002d260 f i MWMaxPoolingLayerImpl.obj
 0001:0002c270       ??$_Voidify_iter@PEAPEAU?$_Tree_node@U?$pair@$$CBHV?$shared_ptr@Umemory@dnnl@@@std@@@std@@PEAX@std@@@std@@YAPEAXPEAPEAU?$_Tree_node@U?$pair@$$CBHV?$shared_ptr@Umemory@dnnl@@@std@@@std@@PEAX@0@@Z 000000018002d270 f i MWMaxPoolingLayerImpl.obj
 0001:0002c280       ??$_Voidify_iter@PEAU?$pair@$$CBHV?$shared_ptr@Umemory@dnnl@@@std@@@std@@@std@@YAPEAXPEAU?$pair@$$CBHV?$shared_ptr@Umemory@dnnl@@@std@@@0@@Z 000000018002d280 f i MWMaxPoolingLayerImpl.obj
 0001:0002c290       ??$_Voidify_iter@PEAUdesc@pooling_forward@dnnl@@@std@@YAPEAXPEAUdesc@pooling_forward@dnnl@@@Z 000000018002d290 f i MWMaxPoolingLayerImpl.obj
 0001:0002c2a0       ??$_Voidify_iter@PEAUpooling_forward@dnnl@@@std@@YAPEAXPEAUpooling_forward@dnnl@@@Z 000000018002d2a0 f i MWMaxPoolingLayerImpl.obj
 0001:0002c2b0       ??$_Voidify_iter@PEAUprimitive_desc@pooling_forward@dnnl@@@std@@YAPEAXPEAUprimitive_desc@pooling_forward@dnnl@@@Z 000000018002d2b0 f i MWMaxPoolingLayerImpl.obj
 0001:0002c2c0       ??$addressof@$$CBV?$_Tree_val@U?$_Tree_simple_types@U?$pair@$$CBHV?$shared_ptr@Umemory@dnnl@@@std@@@std@@@std@@@std@@@std@@YAPEBV?$_Tree_val@U?$_Tree_simple_types@U?$pair@$$CBHV?$shared_ptr@Umemory@dnnl@@@std@@@std@@@std@@@0@AEBV10@@Z 000000018002d2c0 f i MWMaxPoolingLayerImpl.obj
 0001:0002c2d0       ??$addressof@PEAU?$_Tree_node@U?$pair@$$CBHV?$shared_ptr@Umemory@dnnl@@@std@@@std@@PEAX@std@@@std@@YAPEAPEAU?$_Tree_node@U?$pair@$$CBHV?$shared_ptr@Umemory@dnnl@@@std@@@std@@PEAX@0@AEAPEAU10@@Z 000000018002d2d0 f i MWMaxPoolingLayerImpl.obj
 0001:0002c2e0       ??$addressof@Udesc@pooling_forward@dnnl@@@std@@YAPEAUdesc@pooling_forward@dnnl@@AEAU123@@Z 000000018002d2e0 f i MWMaxPoolingLayerImpl.obj
 0001:0002c2f0       ??$addressof@Upooling_forward@dnnl@@@std@@YAPEAUpooling_forward@dnnl@@AEAU12@@Z 000000018002d2f0 f i MWMaxPoolingLayerImpl.obj
 0001:0002c300       ??$addressof@Uprimitive_desc@pooling_forward@dnnl@@@std@@YAPEAUprimitive_desc@pooling_forward@dnnl@@AEAU123@@Z 000000018002d300 f i MWMaxPoolingLayerImpl.obj
 0001:0002c310       ??$construct@U?$pair@$$CBHV?$shared_ptr@Umemory@dnnl@@@std@@@std@@AEBUpiecewise_construct_t@2@V?$tuple@$$QEAH@2@V?$tuple@$$V@2@@?$_Default_allocator_traits@V?$allocator@U?$_Tree_node@U?$pair@$$CBHV?$shared_ptr@Umemory@dnnl@@@std@@@std@@PEAX@std@@@std@@@std@@SAXAEAV?$allocator@U?$_Tree_node@U?$pair@$$CBHV?$shared_ptr@Umemory@dnnl@@@std@@@std@@PEAX@std@@@1@QEAU?$pair@$$CBHV?$shared_ptr@Umemory@dnnl@@@std@@@1@AEBUpiecewise_construct_t@1@$$QEAV?$tuple@$$QEAH@1@$$QEAV?$tuple@$$V@1@@Z 000000018002d310 f i MWMaxPoolingLayerImpl.obj
 0001:0002c3d0       ??$exchange@PEAU?$_Tree_node@U?$pair@$$CBHV?$shared_ptr@Umemory@dnnl@@@std@@@std@@PEAX@std@@$$T@std@@YAPEAU?$_Tree_node@U?$pair@$$CBHV?$shared_ptr@Umemory@dnnl@@@std@@@std@@PEAX@0@AEAPEAU10@$$QEA$$T@Z 000000018002d3d0 f i MWMaxPoolingLayerImpl.obj
 0001:0002c410       ??$forward@AEAPEAU?$_Tree_node@U?$pair@$$CBHV?$shared_ptr@Umemory@dnnl@@@std@@@std@@PEAX@std@@@std@@YAAEAPEAU?$_Tree_node@U?$pair@$$CBHV?$shared_ptr@Umemory@dnnl@@@std@@@std@@PEAX@0@AEAPEAU10@@Z 000000018002d410 f i MWMaxPoolingLayerImpl.obj
 0001:0002c420       ??$forward@AEAUdesc@pooling_forward@dnnl@@@std@@YAAEAUdesc@pooling_forward@dnnl@@AEAU123@@Z 000000018002d420 f i MWMaxPoolingLayerImpl.obj
 0001:0002c430       ??$forward@AEAUprimitive_desc@pooling_forward@dnnl@@@std@@YAAEAUprimitive_desc@pooling_forward@dnnl@@AEAU123@@Z 000000018002d430 f i MWMaxPoolingLayerImpl.obj
 0001:0002c440       ??$forward@AEBQEAU?$_Tree_node@U?$pair@$$CBHV?$shared_ptr@Umemory@dnnl@@@std@@@std@@PEAX@std@@@std@@YAAEBQEAU?$_Tree_node@U?$pair@$$CBHV?$shared_ptr@Umemory@dnnl@@@std@@@std@@PEAX@0@AEBQEAU10@@Z 000000018002d440 f i MWMaxPoolingLayerImpl.obj
 0001:0002c450       ??$forward@PEAU?$_Tree_node@U?$pair@$$CBHV?$shared_ptr@Umemory@dnnl@@@std@@@std@@PEAX@std@@@std@@YA$$QEAPEAU?$_Tree_node@U?$pair@$$CBHV?$shared_ptr@Umemory@dnnl@@@std@@@std@@PEAX@0@AEAPEAU10@@Z 000000018002d450 f i MWMaxPoolingLayerImpl.obj
 0001:0002c460       ??$forward@Uengine@dnnl@@@std@@YA$$QEAUengine@dnnl@@AEAU12@@Z 000000018002d460 f i MWMaxPoolingLayerImpl.obj
 0001:0002c470       ??$forward@V?$tuple@$$QEAH@std@@@std@@YA$$QEAV?$tuple@$$QEAH@0@AEAV10@@Z 000000018002d470 f i MWMaxPoolingLayerImpl.obj
 0001:0002c480       ??$forward@W4algorithm@dnnl@@@std@@YA$$QEAW4algorithm@dnnl@@AEAW412@@Z 000000018002d480 f i MWMaxPoolingLayerImpl.obj
 0001:0002c490       ??$forward@W4prop_kind@dnnl@@@std@@YA$$QEAW4prop_kind@dnnl@@AEAW412@@Z 000000018002d490 f i MWMaxPoolingLayerImpl.obj
 0001:0002c4a0       ??$forward_as_tuple@H@std@@YA?AV?$tuple@$$QEAH@0@$$QEAH@Z 000000018002d4a0 f i MWMaxPoolingLayerImpl.obj
 0001:0002c4d0       ??$make_shared@Udesc@pooling_forward@dnnl@@W4prop_kind@3@W4algorithm@3@U1memory@3@AEAU163@AEAV?$vector@_JV?$allocator@_J@std@@@std@@AEAV78@AEAV78@AEAV78@@std@@YA?AV?$shared_ptr@Udesc@pooling_forward@dnnl@@@0@$$QEAW4prop_kind@dnnl@@$$QEAW4algorithm@3@$$QEAUdesc@memory@3@AEAU563@AEAV?$vector@_JV?$allocator@_J@std@@@0@444@Z 000000018002d4d0 f i MWMaxPoolingLayerImpl.obj
 0001:0002c6a0       ??$make_shared@Umemory@dnnl@@Udesc@12@Uengine@2@@std@@YA?AV?$shared_ptr@Umemory@dnnl@@@0@$$QEAUdesc@memory@dnnl@@$$QEAUengine@4@@Z 000000018002d6a0 f i MWMaxPoolingLayerImpl.obj
 0001:0002c790       ??$make_shared@Upooling_forward@dnnl@@AEAUprimitive_desc@12@@std@@YA?AV?$shared_ptr@Upooling_forward@dnnl@@@0@AEAUprimitive_desc@pooling_forward@dnnl@@@Z 000000018002d790 f i MWMaxPoolingLayerImpl.obj
 0001:0002c860       ??$make_shared@Uprimitive_desc@pooling_forward@dnnl@@AEAUdesc@23@Uengine@3@@std@@YA?AV?$shared_ptr@Uprimitive_desc@pooling_forward@dnnl@@@0@AEAUdesc@pooling_forward@dnnl@@$$QEAUengine@4@@Z 000000018002d860 f i MWMaxPoolingLayerImpl.obj
 0001:0002c950       ??$move@AEAH@std@@YA$$QEAHAEAH@Z 000000018002d950 f i MWMaxPoolingLayerImpl.obj
 0001:0002c960       ??$move@AEAPEAUdesc@pooling_forward@dnnl@@@std@@YA$$QEAPEAUdesc@pooling_forward@dnnl@@AEAPEAU123@@Z 000000018002d960 f i MWMaxPoolingLayerImpl.obj
 0001:0002c970       ??$move@AEAPEAUprimitive@dnnl@@@std@@YA$$QEAPEAUprimitive@dnnl@@AEAPEAU12@@Z 000000018002d970 f i MWMaxPoolingLayerImpl.obj
 0001:0002c980       ??$move@AEAPEAUprimitive_desc@pooling_forward@dnnl@@@std@@YA$$QEAPEAUprimitive_desc@pooling_forward@dnnl@@AEAPEAU123@@Z 000000018002d980 f i MWMaxPoolingLayerImpl.obj
 0001:0002c990       ??$move@AEAV?$shared_ptr@Udesc@pooling_forward@dnnl@@@std@@@std@@YA$$QEAV?$shared_ptr@Udesc@pooling_forward@dnnl@@@0@AEAV10@@Z 000000018002d990 f i MWMaxPoolingLayerImpl.obj
 0001:0002c9a0       ??$move@AEAV?$shared_ptr@Upooling_forward@dnnl@@@std@@@std@@YA$$QEAV?$shared_ptr@Upooling_forward@dnnl@@@0@AEAV10@@Z 000000018002d9a0 f i MWMaxPoolingLayerImpl.obj
 0001:0002c9b0       ??$move@AEAV?$shared_ptr@Uprimitive_desc@pooling_forward@dnnl@@@std@@@std@@YA$$QEAV?$shared_ptr@Uprimitive_desc@pooling_forward@dnnl@@@0@AEAV10@@Z 000000018002d9b0 f i MWMaxPoolingLayerImpl.obj
 0001:0002c9c0       ??$move@AEAV?$tuple@$$QEAH@std@@@std@@YA$$QEAV?$tuple@$$QEAH@0@AEAV10@@Z 000000018002d9c0 f i MWMaxPoolingLayerImpl.obj
 0001:0002c9d0       ??$swap@PEAUdesc@pooling_forward@dnnl@@$0A@@std@@YAXAEAPEAUdesc@pooling_forward@dnnl@@0@Z 000000018002d9d0 f i MWMaxPoolingLayerImpl.obj
 0001:0002ca20       ??$swap@PEAUprimitive@dnnl@@$0A@@std@@YAXAEAPEAUprimitive@dnnl@@0@Z 000000018002da20 f i MWMaxPoolingLayerImpl.obj
 0001:0002ca70       ??$swap@PEAUprimitive_desc@pooling_forward@dnnl@@$0A@@std@@YAXAEAPEAUprimitive_desc@pooling_forward@dnnl@@0@Z 000000018002da70 f i MWMaxPoolingLayerImpl.obj
 0001:0002cac0       ??0?$_Alloc_construct_ptr@V?$allocator@U?$_Tree_node@U?$pair@$$CBHV?$shared_ptr@Umemory@dnnl@@@std@@@std@@PEAX@std@@@std@@@std@@QEAA@AEAV?$allocator@U?$_Tree_node@U?$pair@$$CBHV?$shared_ptr@Umemory@dnnl@@@std@@@std@@PEAX@std@@@1@@Z 000000018002dac0 f i MWMaxPoolingLayerImpl.obj
 0001:0002caf0       ??0?$_Ptr_base@Udesc@pooling_forward@dnnl@@@std@@IEAA@XZ 000000018002daf0 f i MWMaxPoolingLayerImpl.obj
 0001:0002cb20       ??0?$_Ptr_base@Upooling_forward@dnnl@@@std@@IEAA@XZ 000000018002db20 f i MWMaxPoolingLayerImpl.obj
 0001:0002cb50       ??0?$_Ptr_base@Uprimitive@dnnl@@@std@@IEAA@XZ 000000018002db50 f i MWMaxPoolingLayerImpl.obj
 0001:0002cb80       ??0?$_Ptr_base@Uprimitive_desc@pooling_forward@dnnl@@@std@@IEAA@XZ 000000018002db80 f i MWMaxPoolingLayerImpl.obj
 0001:0002cbb0       ??0?$_Tree_temp_node_alloc@V?$allocator@U?$_Tree_node@U?$pair@$$CBHV?$shared_ptr@Umemory@dnnl@@@std@@@std@@PEAX@std@@@std@@@std@@QEAA@AEAV?$allocator@U?$_Tree_node@U?$pair@$$CBHV?$shared_ptr@Umemory@dnnl@@@std@@@std@@PEAX@std@@@1@@Z 000000018002dbb0 f i MWMaxPoolingLayerImpl.obj
 0001:0002cbf0       ??0?$shared_ptr@Udesc@pooling_forward@dnnl@@@std@@QEAA@$$QEAV01@@Z 000000018002dbf0 f i MWMaxPoolingLayerImpl.obj
 0001:0002cc30       ??0?$shared_ptr@Udesc@pooling_forward@dnnl@@@std@@QEAA@AEBV01@@Z 000000018002dc30 f i MWMaxPoolingLayerImpl.obj
 0001:0002cc70       ??0?$shared_ptr@Udesc@pooling_forward@dnnl@@@std@@QEAA@XZ 000000018002dc70 f i MWMaxPoolingLayerImpl.obj
 0001:0002cc90       ??0?$shared_ptr@Upooling_forward@dnnl@@@std@@QEAA@$$QEAV01@@Z 000000018002dc90 f i MWMaxPoolingLayerImpl.obj
 0001:0002ccd0       ??0?$shared_ptr@Upooling_forward@dnnl@@@std@@QEAA@XZ 000000018002dcd0 f i MWMaxPoolingLayerImpl.obj
 0001:0002ccf0       ??0?$shared_ptr@Uprimitive@dnnl@@@std@@QEAA@XZ 000000018002dcf0 f i MWMaxPoolingLayerImpl.obj
 0001:0002cd10       ??0?$shared_ptr@Uprimitive_desc@pooling_forward@dnnl@@@std@@QEAA@$$QEAV01@@Z 000000018002dd10 f i MWMaxPoolingLayerImpl.obj
 0001:0002cd50       ??0?$shared_ptr@Uprimitive_desc@pooling_forward@dnnl@@@std@@QEAA@AEBV01@@Z 000000018002dd50 f i MWMaxPoolingLayerImpl.obj
 0001:0002cd90       ??0?$shared_ptr@Uprimitive_desc@pooling_forward@dnnl@@@std@@QEAA@XZ 000000018002dd90 f i MWMaxPoolingLayerImpl.obj
 0001:0002cdb0       ??0?$tuple@$$QEAH@std@@QEAA@$$QEAV01@@Z 000000018002ddb0 f i MWMaxPoolingLayerImpl.obj
 0001:0002cdf0       ??1?$_Alloc_construct_ptr@V?$allocator@U?$_Tree_node@U?$pair@$$CBHV?$shared_ptr@Umemory@dnnl@@@std@@@std@@PEAX@std@@@std@@@std@@QEAA@XZ 000000018002ddf0 f i MWMaxPoolingLayerImpl.obj
 0001:0002ce30       ??1?$_Ref_count_obj2@Udesc@pooling_forward@dnnl@@@std@@UEAA@XZ 000000018002de30 f i MWMaxPoolingLayerImpl.obj
 0001:0002ce60       ??1?$_Ref_count_obj2@Upooling_forward@dnnl@@@std@@UEAA@XZ 000000018002de60 f i MWMaxPoolingLayerImpl.obj
 0001:0002ce90       ??1?$_Ref_count_obj2@Uprimitive_desc@pooling_forward@dnnl@@@std@@UEAA@XZ 000000018002de90 f i MWMaxPoolingLayerImpl.obj
 0001:0002cec0       ??1?$_Tree_temp_node@V?$allocator@U?$_Tree_node@U?$pair@$$CBHV?$shared_ptr@Umemory@dnnl@@@std@@@std@@PEAX@std@@@std@@@std@@QEAA@XZ 000000018002dec0 f i MWMaxPoolingLayerImpl.obj
 0001:0002cf50       ??1?$_Tree_temp_node_alloc@V?$allocator@U?$_Tree_node@U?$pair@$$CBHV?$shared_ptr@Umemory@dnnl@@@std@@@std@@PEAX@std@@@std@@@std@@QEAA@XZ 000000018002df50 f i MWMaxPoolingLayerImpl.obj
 0001:0002cf70       ??1?$shared_ptr@Udesc@pooling_forward@dnnl@@@std@@QEAA@XZ 000000018002df70 f i MWMaxPoolingLayerImpl.obj
 0001:0002cf90       ??1?$shared_ptr@Upooling_forward@dnnl@@@std@@QEAA@XZ 000000018002df90 f i MWMaxPoolingLayerImpl.obj
 0001:0002cfb0       ??1?$shared_ptr@Uprimitive@dnnl@@@std@@QEAA@XZ 000000018002dfb0 f i MWMaxPoolingLayerImpl.obj
 0001:0002cfd0       ??1?$shared_ptr@Uprimitive_desc@pooling_forward@dnnl@@@std@@QEAA@XZ 000000018002dfd0 f i MWMaxPoolingLayerImpl.obj
 0001:0002cff0       ??4?$shared_ptr@Udesc@pooling_forward@dnnl@@@std@@QEAAAEAV01@$$QEAV01@@Z 000000018002dff0 f i MWMaxPoolingLayerImpl.obj
 0001:0002d040       ??4?$shared_ptr@Uprimitive_desc@pooling_forward@dnnl@@@std@@QEAAAEAV01@$$QEAV01@@Z 000000018002e040 f i MWMaxPoolingLayerImpl.obj
 0001:0002d090       ??A?$map@HV?$shared_ptr@Umemory@dnnl@@@std@@U?$less@H@2@V?$allocator@U?$pair@$$CBHV?$shared_ptr@Umemory@dnnl@@@std@@@std@@@2@@std@@QEAAAEAV?$shared_ptr@Umemory@dnnl@@@1@$$QEAH@Z 000000018002e090 f i MWMaxPoolingLayerImpl.obj
 0001:0002d0d0       ??_G?$_Ref_count_obj2@Udesc@pooling_forward@dnnl@@@std@@UEAAPEAXI@Z 000000018002e0d0 f i MWMaxPoolingLayerImpl.obj
 0001:0002d0d0       ??_E?$_Ref_count_obj2@Udesc@pooling_forward@dnnl@@@std@@UEAAPEAXI@Z 000000018002e0d0 f i MWMaxPoolingLayerImpl.obj
 0001:0002d110       ??_E?$_Ref_count_obj2@Upooling_forward@dnnl@@@std@@UEAAPEAXI@Z 000000018002e110 f i MWMaxPoolingLayerImpl.obj
 0001:0002d110       ??_G?$_Ref_count_obj2@Upooling_forward@dnnl@@@std@@UEAAPEAXI@Z 000000018002e110 f i MWMaxPoolingLayerImpl.obj
 0001:0002d150       ??_G?$_Ref_count_obj2@Uprimitive_desc@pooling_forward@dnnl@@@std@@UEAAPEAXI@Z 000000018002e150 f i MWMaxPoolingLayerImpl.obj
 0001:0002d150       ??_E?$_Ref_count_obj2@Uprimitive_desc@pooling_forward@dnnl@@@std@@UEAAPEAXI@Z 000000018002e150 f i MWMaxPoolingLayerImpl.obj
 0001:0002d190       ??_EMWMaxPoolingLayerImpl@@UEAAPEAXI@Z 000000018002e190 f i MWMaxPoolingLayerImpl.obj
 0001:0002d190       ??_GMWMaxPoolingLayerImpl@@UEAAPEAXI@Z 000000018002e190 f i MWMaxPoolingLayerImpl.obj
 0001:0002d1d0       ?_Allocate@?$_Alloc_construct_ptr@V?$allocator@U?$_Tree_node@U?$pair@$$CBHV?$shared_ptr@Umemory@dnnl@@@std@@@std@@PEAX@std@@@std@@@std@@QEAAXXZ 000000018002e1d0 f i MWMaxPoolingLayerImpl.obj
 0001:0002d210       ?_Check_grow_by_1@?$_Tree@V?$_Tmap_traits@HV?$shared_ptr@Umemory@dnnl@@@std@@U?$less@H@2@V?$allocator@U?$pair@$$CBHV?$shared_ptr@Umemory@dnnl@@@std@@@std@@@2@$0A@@std@@@std@@IEAAXXZ 000000018002e210 f i MWMaxPoolingLayerImpl.obj
 0001:0002d250       ?_Decref@?$_Ptr_base@Udesc@pooling_forward@dnnl@@@std@@IEAAXXZ 000000018002e250 f i MWMaxPoolingLayerImpl.obj
 0001:0002d280       ?_Decref@?$_Ptr_base@Upooling_forward@dnnl@@@std@@IEAAXXZ 000000018002e280 f i MWMaxPoolingLayerImpl.obj
 0001:0002d2b0       ?_Decref@?$_Ptr_base@Uprimitive@dnnl@@@std@@IEAAXXZ 000000018002e2b0 f i MWMaxPoolingLayerImpl.obj
 0001:0002d2e0       ?_Decref@?$_Ptr_base@Uprimitive_desc@pooling_forward@dnnl@@@std@@IEAAXXZ 000000018002e2e0 f i MWMaxPoolingLayerImpl.obj
 0001:0002d310       ?_Delete_this@?$_Ref_count_obj2@Udesc@pooling_forward@dnnl@@@std@@EEAAXXZ 000000018002e310 f i MWMaxPoolingLayerImpl.obj
 0001:0002d360       ?_Delete_this@?$_Ref_count_obj2@Upooling_forward@dnnl@@@std@@EEAAXXZ 000000018002e360 f i MWMaxPoolingLayerImpl.obj
 0001:0002d3b0       ?_Delete_this@?$_Ref_count_obj2@Uprimitive_desc@pooling_forward@dnnl@@@std@@EEAAXXZ 000000018002e3b0 f i MWMaxPoolingLayerImpl.obj
 0001:0002d400       ?_Destroy@?$_Ref_count_obj2@Udesc@pooling_forward@dnnl@@@std@@EEAAXXZ 000000018002e400 f i MWMaxPoolingLayerImpl.obj
 0001:0002d420       ?_Destroy@?$_Ref_count_obj2@Upooling_forward@dnnl@@@std@@EEAAXXZ 000000018002e420 f i MWMaxPoolingLayerImpl.obj
 0001:0002d440       ?_Destroy@?$_Ref_count_obj2@Uprimitive_desc@pooling_forward@dnnl@@@std@@EEAAXXZ 000000018002e440 f i MWMaxPoolingLayerImpl.obj
 0001:0002d460       ?_Get_first@?$_Compressed_pair@U?$less@H@std@@V?$_Compressed_pair@V?$allocator@U?$_Tree_node@U?$pair@$$CBHV?$shared_ptr@Umemory@dnnl@@@std@@@std@@PEAX@std@@@std@@V?$_Tree_val@U?$_Tree_simple_types@U?$pair@$$CBHV?$shared_ptr@Umemory@dnnl@@@std@@@std@@@std@@@2@$00@2@$00@std@@QEBAAEBU?$less@H@2@XZ 000000018002e460 f i MWMaxPoolingLayerImpl.obj
 0001:0002d470       ?_Get_first@?$_Compressed_pair@V?$allocator@U?$_Tree_node@U?$pair@$$CBHV?$shared_ptr@Umemory@dnnl@@@std@@@std@@PEAX@std@@@std@@V?$_Tree_val@U?$_Tree_simple_types@U?$pair@$$CBHV?$shared_ptr@Umemory@dnnl@@@std@@@std@@@std@@@2@$00@std@@QEBAAEBV?$allocator@U?$_Tree_node@U?$pair@$$CBHV?$shared_ptr@Umemory@dnnl@@@std@@@std@@PEAX@std@@@2@XZ 000000018002e470 f i MWMaxPoolingLayerImpl.obj
 0001:0002d480       ?_Get_scary@?$_Tree@V?$_Tmap_traits@HV?$shared_ptr@Umemory@dnnl@@@std@@U?$less@H@2@V?$allocator@U?$pair@$$CBHV?$shared_ptr@Umemory@dnnl@@@std@@@std@@@2@$0A@@std@@@std@@IEBAPEBV?$_Tree_val@U?$_Tree_simple_types@U?$pair@$$CBHV?$shared_ptr@Umemory@dnnl@@@std@@@std@@@std@@@2@XZ 000000018002e480 f i MWMaxPoolingLayerImpl.obj
 0001:0002d4a0       ?_Getal@?$_Tree@V?$_Tmap_traits@HV?$shared_ptr@Umemory@dnnl@@@std@@U?$less@H@2@V?$allocator@U?$pair@$$CBHV?$shared_ptr@Umemory@dnnl@@@std@@@std@@@2@$0A@@std@@@std@@IEBAAEBV?$allocator@U?$_Tree_node@U?$pair@$$CBHV?$shared_ptr@Umemory@dnnl@@@std@@@std@@PEAX@std@@@2@XZ 000000018002e4a0 f i MWMaxPoolingLayerImpl.obj
 0001:0002d4c0       ?_Getcomp@?$_Tree@V?$_Tmap_traits@HV?$shared_ptr@Umemory@dnnl@@@std@@U?$less@H@2@V?$allocator@U?$pair@$$CBHV?$shared_ptr@Umemory@dnnl@@@std@@@std@@@2@$0A@@std@@@std@@IEBAAEBU?$less@H@2@XZ 000000018002e4c0 f i MWMaxPoolingLayerImpl.obj
 0001:0002d4e0       ?_Incref@?$_Ptr_base@Udesc@pooling_forward@dnnl@@@std@@IEBAXXZ 000000018002e4e0 f i MWMaxPoolingLayerImpl.obj
 0001:0002d510       ?_Incref@?$_Ptr_base@Uprimitive_desc@pooling_forward@dnnl@@@std@@IEBAXXZ 000000018002e510 f i MWMaxPoolingLayerImpl.obj
 0001:0002d540       ?_Insert_node@?$_Tree_val@U?$_Tree_simple_types@U?$pair@$$CBHV?$shared_ptr@Umemory@dnnl@@@std@@@std@@@std@@@std@@QEAAPEAU?$_Tree_node@U?$pair@$$CBHV?$shared_ptr@Umemory@dnnl@@@std@@@std@@PEAX@2@U?$_Tree_id@PEAU?$_Tree_node@U?$pair@$$CBHV?$shared_ptr@Umemory@dnnl@@@std@@@std@@PEAX@std@@@2@QEAU32@@Z 000000018002e540 f i MWMaxPoolingLayerImpl.obj
 0001:0002d830       ?_Lrotate@?$_Tree_val@U?$_Tree_simple_types@U?$pair@$$CBHV?$shared_ptr@Umemory@dnnl@@@std@@@std@@@std@@@std@@QEAAXPEAU?$_Tree_node@U?$pair@$$CBHV?$shared_ptr@Umemory@dnnl@@@std@@@std@@PEAX@2@@Z 000000018002e830 f i MWMaxPoolingLayerImpl.obj
 0001:0002d910       ?_Release@?$_Alloc_construct_ptr@V?$allocator@U?$_Tree_node@U?$pair@$$CBHV?$shared_ptr@Umemory@dnnl@@@std@@@std@@PEAX@std@@@std@@@std@@QEAAPEAU?$_Tree_node@U?$pair@$$CBHV?$shared_ptr@Umemory@dnnl@@@std@@@std@@PEAX@2@XZ 000000018002e910 f i MWMaxPoolingLayerImpl.obj
 0001:0002d940       ?_Rrotate@?$_Tree_val@U?$_Tree_simple_types@U?$pair@$$CBHV?$shared_ptr@Umemory@dnnl@@@std@@@std@@@std@@@std@@QEAAXPEAU?$_Tree_node@U?$pair@$$CBHV?$shared_ptr@Umemory@dnnl@@@std@@@std@@PEAX@2@@Z 000000018002e940 f i MWMaxPoolingLayerImpl.obj
 0001:0002da20       ?_Swap@?$_Ptr_base@Udesc@pooling_forward@dnnl@@@std@@IEAAXAEAV12@@Z 000000018002ea20 f i MWMaxPoolingLayerImpl.obj
 0001:0002da60       ?_Swap@?$_Ptr_base@Uprimitive@dnnl@@@std@@IEAAXAEAV12@@Z 000000018002ea60 f i MWMaxPoolingLayerImpl.obj
 0001:0002daa0       ?_Swap@?$_Ptr_base@Uprimitive_desc@pooling_forward@dnnl@@@std@@IEAAXAEAV12@@Z 000000018002eaa0 f i MWMaxPoolingLayerImpl.obj
 0001:0002dae0       ?allocate@?$allocator@U?$_Tree_node@U?$pair@$$CBHV?$shared_ptr@Umemory@dnnl@@@std@@@std@@PEAX@std@@@std@@QEAAPEAU?$_Tree_node@U?$pair@$$CBHV?$shared_ptr@Umemory@dnnl@@@std@@@std@@PEAX@2@_K@Z 000000018002eae0 f i MWMaxPoolingLayerImpl.obj
 0001:0002db10       ?deallocate@?$allocator@U?$_Tree_node@U?$pair@$$CBHV?$shared_ptr@Umemory@dnnl@@@std@@@std@@PEAX@std@@@std@@QEAAXQEAU?$_Tree_node@U?$pair@$$CBHV?$shared_ptr@Umemory@dnnl@@@std@@@std@@PEAX@2@_K@Z 000000018002eb10 f i MWMaxPoolingLayerImpl.obj
 0001:0002db40       ?get@?$_Ptr_base@Udesc@pooling_forward@dnnl@@@std@@IEBAPEAUdesc@pooling_forward@dnnl@@XZ 000000018002eb40 f i MWMaxPoolingLayerImpl.obj
 0001:0002db50       ?get@?$_Ptr_base@Uprimitive@dnnl@@@std@@IEBAPEAUprimitive@dnnl@@XZ 000000018002eb50 f i MWMaxPoolingLayerImpl.obj
 0001:0002db60       ?get@?$_Ptr_base@Uprimitive_desc@pooling_forward@dnnl@@@std@@IEBAPEAUprimitive_desc@pooling_forward@dnnl@@XZ 000000018002eb60 f i MWMaxPoolingLayerImpl.obj
 0001:0002db70       ?max_size@?$_Default_allocator_traits@V?$allocator@U?$_Tree_node@U?$pair@$$CBHV?$shared_ptr@Umemory@dnnl@@@std@@@std@@PEAX@std@@@std@@@std@@SA_KAEBV?$allocator@U?$_Tree_node@U?$pair@$$CBHV?$shared_ptr@Umemory@dnnl@@@std@@@std@@PEAX@std@@@2@@Z 000000018002eb70 f i MWMaxPoolingLayerImpl.obj
 0001:0002db80       ?max_size@?$_Tree@V?$_Tmap_traits@HV?$shared_ptr@Umemory@dnnl@@@std@@U?$less@H@2@V?$allocator@U?$pair@$$CBHV?$shared_ptr@Umemory@dnnl@@@std@@@std@@@2@$0A@@std@@@std@@QEBA_KXZ 000000018002eb80 f i MWMaxPoolingLayerImpl.obj
 0001:0002dbd0       ?swap@?$shared_ptr@Udesc@pooling_forward@dnnl@@@std@@QEAAXAEAV12@@Z 000000018002ebd0 f i MWMaxPoolingLayerImpl.obj
 0001:0002dc00       ?swap@?$shared_ptr@Uprimitive@dnnl@@@std@@QEAAXAEAV12@@Z 000000018002ec00 f i MWMaxPoolingLayerImpl.obj
 0001:0002dc30       ?swap@?$shared_ptr@Uprimitive_desc@pooling_forward@dnnl@@@std@@QEAAXAEAV12@@Z 000000018002ec30 f i MWMaxPoolingLayerImpl.obj
 0001:0002dc60       ?workspace_desc@primitive_desc@pooling_forward@dnnl@@QEBA?AUdesc@memory@3@XZ 000000018002ec60 f i MWMaxPoolingLayerImpl.obj
 0001:0002dc90       ?workspace_desc@primitive_desc_base@dnnl@@QEBA?AUdesc@memory@2@XZ 000000018002ec90 f i MWMaxPoolingLayerImpl.obj
 0001:0002dcc0       ??0MWOutputLayerImpl@@QEAA@PEAVMWCNNLayer@@PEAVMWTargetNetworkImpl@@@Z 000000018002ecc0 f   MWOutputLayerImpl.obj
 0001:0002dd10       ??1MWOutputLayerImpl@@UEAA@XZ 000000018002ed10 f   MWOutputLayerImpl.obj
 0001:0002dd40       ?propagateSize@MWOutputLayerImpl@@UEAAXXZ 000000018002ed40 f   MWOutputLayerImpl.obj
 0001:0002df30       ?predict@MWOutputLayerImpl@@UEAAXXZ 000000018002ef30 f   MWOutputLayerImpl.obj
 0001:0002e0e0       ??_GMWOutputLayerImpl@@UEAAPEAXI@Z 000000018002f0e0 f i MWOutputLayerImpl.obj
 0001:0002e0e0       ??_EMWOutputLayerImpl@@UEAAPEAXI@Z 000000018002f0e0 f i MWOutputLayerImpl.obj
 0001:0002e120       ??0MWCNNLayerImpl@@QEAA@PEAVMWCNNLayer@@PEAVMWTargetNetworkImpl@@@Z 000000018002f120 f   MWCNNLayerImpl.obj
 0001:0002e1f0       ?getLayerMemory@MWCNNLayerImpl@@QEAA?AV?$shared_ptr@Umemory@dnnl@@@std@@H@Z 000000018002f1f0 f   MWCNNLayerImpl.obj
 0001:0002e2a0       ?setLayerMemory@MWCNNLayerImpl@@QEAAXV?$shared_ptr@Umemory@dnnl@@@std@@H@Z 000000018002f2a0 f   MWCNNLayerImpl.obj
 0001:0002e2f0       ?getReorderedIpMemory@MWCNNLayerImpl@@QEAA?AV?$shared_ptr@Umemory@dnnl@@@std@@H@Z 000000018002f2f0 f   MWCNNLayerImpl.obj
 0001:0002e3a0       ?getReorderPrim@MWCNNLayerImpl@@QEAA?AV?$shared_ptr@Ureorder@dnnl@@@std@@H@Z 000000018002f3a0 f   MWCNNLayerImpl.obj
 0001:0002e450       ?setReorderLayerMemory@MWCNNLayerImpl@@QEAAXV?$shared_ptr@Umemory@dnnl@@@std@@H@Z 000000018002f450 f   MWCNNLayerImpl.obj
 0001:0002e4a0       ?setReorderPrim@MWCNNLayerImpl@@QEAAXV?$shared_ptr@Ureorder@dnnl@@@std@@H@Z 000000018002f4a0 f   MWCNNLayerImpl.obj
 0001:0002e4f0       ?clearLayerMapsAndVectors@MWCNNLayerImpl@@QEAAXXZ 000000018002f4f0 f   MWCNNLayerImpl.obj
 0001:0002e570       ??$?0$$V@?$_Compressed_pair@V?$allocator@U?$_Tree_node@U?$pair@$$CBHV?$shared_ptr@Umemory@dnnl@@@std@@@std@@PEAX@std@@@std@@V?$_Tree_val@U?$_Tree_simple_types@U?$pair@$$CBHV?$shared_ptr@Umemory@dnnl@@@std@@@std@@@std@@@2@$00@std@@QEAA@U_Zero_then_variadic_args_t@1@@Z 000000018002f570 f i MWCNNLayerImpl.obj
 0001:0002e5a0       ??$?0$$V@?$_Compressed_pair@V?$allocator@U?$_Tree_node@U?$pair@$$CBHV?$shared_ptr@Ureorder@dnnl@@@std@@@std@@PEAX@std@@@std@@V?$_Tree_val@U?$_Tree_simple_types@U?$pair@$$CBHV?$shared_ptr@Ureorder@dnnl@@@std@@@std@@@std@@@2@$00@std@@QEAA@U_Zero_then_variadic_args_t@1@@Z 000000018002f5a0 f i MWCNNLayerImpl.obj
 0001:0002e5d0       ??$?0$$V@?$_Compressed_pair@V?$allocator@Uprimitive@dnnl@@@std@@V?$_Vector_val@U?$_Simple_types@Uprimitive@dnnl@@@std@@@2@$00@std@@QEAA@U_Zero_then_variadic_args_t@1@@Z 000000018002f5d0 f i MWCNNLayerImpl.obj
 0001:0002e600       ??$?0$$V@?$_Compressed_pair@V?$allocator@V?$unordered_map@HUmemory@dnnl@@U?$hash@H@std@@U?$equal_to@H@4@V?$allocator@U?$pair@$$CBHUmemory@dnnl@@@std@@@4@@std@@@std@@V?$_Vector_val@U?$_Simple_types@V?$unordered_map@HUmemory@dnnl@@U?$hash@H@std@@U?$equal_to@H@4@V?$allocator@U?$pair@$$CBHUmemory@dnnl@@@std@@@4@@std@@@std@@@2@$00@std@@QEAA@U_Zero_then_variadic_args_t@1@@Z 000000018002f600 f i MWCNNLayerImpl.obj
 0001:0002e630       ??$?0AEBH$$Z$$V@?$pair@$$CBHV?$shared_ptr@Umemory@dnnl@@@std@@@std@@QEAA@Upiecewise_construct_t@1@V?$tuple@AEBH@1@V?$tuple@$$V@1@@Z 000000018002f630 f i MWCNNLayerImpl.obj
 0001:0002e6a0       ??$?0AEBH$$Z$$V@?$pair@$$CBHV?$shared_ptr@Ureorder@dnnl@@@std@@@std@@QEAA@Upiecewise_construct_t@1@V?$tuple@AEBH@1@V?$tuple@$$V@1@@Z 000000018002f6a0 f i MWCNNLayerImpl.obj
 0001:0002e710       ??$?0AEBQEAU?$_Tree_node@U?$pair@$$CBHV?$shared_ptr@Ureorder@dnnl@@@std@@@std@@PEAX@std@@_N$0A@@?$pair@PEAU?$_Tree_node@U?$pair@$$CBHV?$shared_ptr@Ureorder@dnnl@@@std@@@std@@PEAX@std@@_N@std@@QEAA@AEBQEAU?$_Tree_node@U?$pair@$$CBHV?$shared_ptr@Ureorder@dnnl@@@std@@@std@@PEAX@1@$$QEA_N@Z 000000018002f710 f i MWCNNLayerImpl.obj
 0001:0002e760       ??$?0AEBU?$less@H@std@@U_Zero_then_variadic_args_t@1@@?$_Compressed_pair@U?$less@H@std@@V?$_Compressed_pair@V?$allocator@U?$_Tree_node@U?$pair@$$CBHV?$shared_ptr@Umemory@dnnl@@@std@@@std@@PEAX@std@@@std@@V?$_Tree_val@U?$_Tree_simple_types@U?$pair@$$CBHV?$shared_ptr@Umemory@dnnl@@@std@@@std@@@std@@@2@$00@2@$00@std@@QEAA@U_One_then_variadic_args_t@1@AEBU?$less@H@1@$$QEAU_Zero_then_variadic_args_t@1@@Z 000000018002f760 f i MWCNNLayerImpl.obj
 0001:0002e7b0       ??$?0AEBU?$less@H@std@@U_Zero_then_variadic_args_t@1@@?$_Compressed_pair@U?$less@H@std@@V?$_Compressed_pair@V?$allocator@U?$_Tree_node@U?$pair@$$CBHV?$shared_ptr@Ureorder@dnnl@@@std@@@std@@PEAX@std@@@std@@V?$_Tree_val@U?$_Tree_simple_types@U?$pair@$$CBHV?$shared_ptr@Ureorder@dnnl@@@std@@@std@@@std@@@2@$00@2@$00@std@@QEAA@U_One_then_variadic_args_t@1@AEBU?$less@H@1@$$QEAU_Zero_then_variadic_args_t@1@@Z 000000018002f7b0 f i MWCNNLayerImpl.obj
 0001:0002e800       ??$?0AEBUpiecewise_construct_t@std@@V?$tuple@AEBH@1@V?$tuple@$$V@1@@?$_Tree_temp_node@V?$allocator@U?$_Tree_node@U?$pair@$$CBHV?$shared_ptr@Umemory@dnnl@@@std@@@std@@PEAX@std@@@std@@@std@@QEAA@AEAV?$allocator@U?$_Tree_node@U?$pair@$$CBHV?$shared_ptr@Umemory@dnnl@@@std@@@std@@PEAX@std@@@1@PEAU?$_Tree_node@U?$pair@$$CBHV?$shared_ptr@Umemory@dnnl@@@std@@@std@@PEAX@1@AEBUpiecewise_construct_t@1@$$QEAV?$tuple@AEBH@1@$$QEAV?$tuple@$$V@1@@Z 000000018002f800 f i MWCNNLayerImpl.obj
 0001:0002e910       ??$?0AEBUpiecewise_construct_t@std@@V?$tuple@AEBH@1@V?$tuple@$$V@1@@?$_Tree_temp_node@V?$allocator@U?$_Tree_node@U?$pair@$$CBHV?$shared_ptr@Ureorder@dnnl@@@std@@@std@@PEAX@std@@@std@@@std@@QEAA@AEAV?$allocator@U?$_Tree_node@U?$pair@$$CBHV?$shared_ptr@Ureorder@dnnl@@@std@@@std@@PEAX@std@@@1@PEAU?$_Tree_node@U?$pair@$$CBHV?$shared_ptr@Ureorder@dnnl@@@std@@@std@@PEAX@1@AEBUpiecewise_construct_t@1@$$QEAV?$tuple@AEBH@1@$$QEAV?$tuple@$$V@1@@Z 000000018002f910 f i MWCNNLayerImpl.obj
 0001:0002ea20       ??$?0PEAU?$_Tree_node@U?$pair@$$CBHV?$shared_ptr@Ureorder@dnnl@@@std@@@std@@PEAX@std@@_N$0A@@?$pair@PEAU?$_Tree_node@U?$pair@$$CBHV?$shared_ptr@Ureorder@dnnl@@@std@@@std@@PEAX@std@@_N@std@@QEAA@$$QEAPEAU?$_Tree_node@U?$pair@$$CBHV?$shared_ptr@Ureorder@dnnl@@@std@@@std@@PEAX@1@$$QEA_N@Z 000000018002fa20 f i MWCNNLayerImpl.obj
 0001:0002ea70       ??$?0V?$tuple@AEBH@std@@V?$tuple@$$V@1@$0A@$$Z$S@?$pair@$$CBHV?$shared_ptr@Umemory@dnnl@@@std@@@std@@QEAA@AEAV?$tuple@AEBH@1@AEAV?$tuple@$$V@1@U?$integer_sequence@_K$0A@@1@U?$integer_sequence@_K$S@1@@Z 000000018002fa70 f i MWCNNLayerImpl.obj
 0001:0002eae0       ??$?0V?$tuple@AEBH@std@@V?$tuple@$$V@1@$0A@$$Z$S@?$pair@$$CBHV?$shared_ptr@Ureorder@dnnl@@@std@@@std@@QEAA@AEAV?$tuple@AEBH@1@AEAV?$tuple@$$V@1@U?$integer_sequence@_K$0A@@1@U?$integer_sequence@_K$S@1@@Z 000000018002fae0 f i MWCNNLayerImpl.obj
 0001:0002eb50       ??$_Buyheadnode@V?$allocator@U?$_Tree_node@U?$pair@$$CBHV?$shared_ptr@Umemory@dnnl@@@std@@@std@@PEAX@std@@@std@@@?$_Tree_node@U?$pair@$$CBHV?$shared_ptr@Umemory@dnnl@@@std@@@std@@PEAX@std@@SAPEAU01@AEAV?$allocator@U?$_Tree_node@U?$pair@$$CBHV?$shared_ptr@Umemory@dnnl@@@std@@@std@@PEAX@std@@@1@@Z 000000018002fb50 f i MWCNNLayerImpl.obj
 0001:0002ebd0       ??$_Buyheadnode@V?$allocator@U?$_Tree_node@U?$pair@$$CBHV?$shared_ptr@Ureorder@dnnl@@@std@@@std@@PEAX@std@@@std@@@?$_Tree_node@U?$pair@$$CBHV?$shared_ptr@Ureorder@dnnl@@@std@@@std@@PEAX@std@@SAPEAU01@AEAV?$allocator@U?$_Tree_node@U?$pair@$$CBHV?$shared_ptr@Ureorder@dnnl@@@std@@@std@@PEAX@std@@@1@@Z 000000018002fbd0 f i MWCNNLayerImpl.obj
 0001:0002ec50       ??$_Construct_in_place@PEAU?$_Tree_node@U?$pair@$$CBHV?$shared_ptr@Umemory@dnnl@@@std@@@std@@PEAX@std@@AEBQEAU12@@std@@YAXAEAPEAU?$_Tree_node@U?$pair@$$CBHV?$shared_ptr@Umemory@dnnl@@@std@@@std@@PEAX@0@AEBQEAU10@@Z 000000018002fc50 f i MWCNNLayerImpl.obj
 0001:0002eca0       ??$_Construct_in_place@PEAU?$_Tree_node@U?$pair@$$CBHV?$shared_ptr@Ureorder@dnnl@@@std@@@std@@PEAX@std@@AEAPEAU12@@std@@YAXAEAPEAU?$_Tree_node@U?$pair@$$CBHV?$shared_ptr@Ureorder@dnnl@@@std@@@std@@PEAX@0@0@Z 000000018002fca0 f i MWCNNLayerImpl.obj
 0001:0002ecf0       ??$_Construct_in_place@PEAU?$_Tree_node@U?$pair@$$CBHV?$shared_ptr@Ureorder@dnnl@@@std@@@std@@PEAX@std@@AEBQEAU12@@std@@YAXAEAPEAU?$_Tree_node@U?$pair@$$CBHV?$shared_ptr@Ureorder@dnnl@@@std@@@std@@PEAX@0@AEBQEAU10@@Z 000000018002fcf0 f i MWCNNLayerImpl.obj
 0001:0002ed40       ??$_Copy_construct_from@Ureorder@dnnl@@@?$_Ptr_base@Ureorder@dnnl@@@std@@IEAAXAEBV?$shared_ptr@Ureorder@dnnl@@@1@@Z 000000018002fd40 f i MWCNNLayerImpl.obj
 0001:0002ed80       ??$_Find@H@?$_Tree@V?$_Tmap_traits@HV?$shared_ptr@Umemory@dnnl@@@std@@U?$less@H@2@V?$allocator@U?$pair@$$CBHV?$shared_ptr@Umemory@dnnl@@@std@@@std@@@2@$0A@@std@@@std@@AEBAPEAU?$_Tree_node@U?$pair@$$CBHV?$shared_ptr@Umemory@dnnl@@@std@@@std@@PEAX@1@AEBH@Z 000000018002fd80 f i MWCNNLayerImpl.obj
 0001:0002ede0       ??$_Find@H@?$_Tree@V?$_Tmap_traits@HV?$shared_ptr@Ureorder@dnnl@@@std@@U?$less@H@2@V?$allocator@U?$pair@$$CBHV?$shared_ptr@Ureorder@dnnl@@@std@@@std@@@2@$0A@@std@@@std@@AEBAPEAU?$_Tree_node@U?$pair@$$CBHV?$shared_ptr@Ureorder@dnnl@@@std@@@std@@PEAX@1@AEBH@Z 000000018002fde0 f i MWCNNLayerImpl.obj
 0001:0002ee40       ??$_Find_lower_bound@H@?$_Tree@V?$_Tmap_traits@HV?$shared_ptr@Ureorder@dnnl@@@std@@U?$less@H@2@V?$allocator@U?$pair@$$CBHV?$shared_ptr@Ureorder@dnnl@@@std@@@std@@@2@$0A@@std@@@std@@IEBA?AU?$_Tree_find_result@PEAU?$_Tree_node@U?$pair@$$CBHV?$shared_ptr@Ureorder@dnnl@@@std@@@std@@PEAX@std@@@1@AEBH@Z 000000018002fe40 f i MWCNNLayerImpl.obj
 0001:0002ef50       ??$_Kfn@$$CBHV?$shared_ptr@Ureorder@dnnl@@@std@@@?$_Tmap_traits@HV?$shared_ptr@Ureorder@dnnl@@@std@@U?$less@H@2@V?$allocator@U?$pair@$$CBHV?$shared_ptr@Ureorder@dnnl@@@std@@@std@@@2@$0A@@std@@SAAEBHAEBU?$pair@$$CBHV?$shared_ptr@Ureorder@dnnl@@@std@@@1@@Z 000000018002ff50 f i MWCNNLayerImpl.obj
 0001:0002ef60       ??$_Lower_bound_duplicate@H@?$_Tree@V?$_Tmap_traits@HV?$shared_ptr@Ureorder@dnnl@@@std@@U?$less@H@2@V?$allocator@U?$pair@$$CBHV?$shared_ptr@Ureorder@dnnl@@@std@@@std@@@2@$0A@@std@@@std@@IEBA_NQEAU?$_Tree_node@U?$pair@$$CBHV?$shared_ptr@Ureorder@dnnl@@@std@@@std@@PEAX@1@AEBH@Z 000000018002ff60 f i MWCNNLayerImpl.obj
 0001:0002efe0       ??$_Try_emplace@AEBH$$V@?$map@HV?$shared_ptr@Umemory@dnnl@@@std@@U?$less@H@2@V?$allocator@U?$pair@$$CBHV?$shared_ptr@Umemory@dnnl@@@std@@@std@@@2@@std@@AEAA?AU?$pair@PEAU?$_Tree_node@U?$pair@$$CBHV?$shared_ptr@Umemory@dnnl@@@std@@@std@@PEAX@std@@_N@1@AEBH@Z 000000018002ffe0 f i MWCNNLayerImpl.obj
 0001:0002f180       ??$_Try_emplace@AEBH$$V@?$map@HV?$shared_ptr@Ureorder@dnnl@@@std@@U?$less@H@2@V?$allocator@U?$pair@$$CBHV?$shared_ptr@Ureorder@dnnl@@@std@@@std@@@2@@std@@AEAA?AU?$pair@PEAU?$_Tree_node@U?$pair@$$CBHV?$shared_ptr@Ureorder@dnnl@@@std@@@std@@PEAX@std@@_N@1@AEBH@Z 0000000180030180 f i MWCNNLayerImpl.obj
 0001:0002f320       ??$_Voidify_iter@PEAPEAU?$_Tree_node@U?$pair@$$CBHV?$shared_ptr@Ureorder@dnnl@@@std@@@std@@PEAX@std@@@std@@YAPEAXPEAPEAU?$_Tree_node@U?$pair@$$CBHV?$shared_ptr@Ureorder@dnnl@@@std@@@std@@PEAX@0@@Z 0000000180030320 f i MWCNNLayerImpl.obj
 0001:0002f330       ??$_Voidify_iter@PEAU?$pair@$$CBHV?$shared_ptr@Ureorder@dnnl@@@std@@@std@@@std@@YAPEAXPEAU?$pair@$$CBHV?$shared_ptr@Ureorder@dnnl@@@std@@@0@@Z 0000000180030330 f i MWCNNLayerImpl.obj
 0001:0002f340       ??$addressof@$$CBV?$_Tree_val@U?$_Tree_simple_types@U?$pair@$$CBHV?$shared_ptr@Ureorder@dnnl@@@std@@@std@@@std@@@std@@@std@@YAPEBV?$_Tree_val@U?$_Tree_simple_types@U?$pair@$$CBHV?$shared_ptr@Ureorder@dnnl@@@std@@@std@@@std@@@0@AEBV10@@Z 0000000180030340 f i MWCNNLayerImpl.obj
 0001:0002f350       ??$addressof@PEAU?$_Tree_node@U?$pair@$$CBHV?$shared_ptr@Ureorder@dnnl@@@std@@@std@@PEAX@std@@@std@@YAPEAPEAU?$_Tree_node@U?$pair@$$CBHV?$shared_ptr@Ureorder@dnnl@@@std@@@std@@PEAX@0@AEAPEAU10@@Z 0000000180030350 f i MWCNNLayerImpl.obj
 0001:0002f360       ??$allocateOutputData@C@MWCNNLayerImpl@@QEAAXH@Z 0000000180030360 f i MWCNNLayerImpl.obj
 0001:0002f620       ??$allocateOutputData@M@MWCNNLayerImpl@@QEAAXH@Z 0000000180030620 f i MWCNNLayerImpl.obj
 0001:0002f8e0       ??$construct@U?$pair@$$CBHV?$shared_ptr@Umemory@dnnl@@@std@@@std@@AEBUpiecewise_construct_t@2@V?$tuple@AEBH@2@V?$tuple@$$V@2@@?$_Default_allocator_traits@V?$allocator@U?$_Tree_node@U?$pair@$$CBHV?$shared_ptr@Umemory@dnnl@@@std@@@std@@PEAX@std@@@std@@@std@@SAXAEAV?$allocator@U?$_Tree_node@U?$pair@$$CBHV?$shared_ptr@Umemory@dnnl@@@std@@@std@@PEAX@std@@@1@QEAU?$pair@$$CBHV?$shared_ptr@Umemory@dnnl@@@std@@@1@AEBUpiecewise_construct_t@1@$$QEAV?$tuple@AEBH@1@$$QEAV?$tuple@$$V@1@@Z 00000001800308e0 f i MWCNNLayerImpl.obj
 0001:0002f9a0       ??$construct@U?$pair@$$CBHV?$shared_ptr@Ureorder@dnnl@@@std@@@std@@AEBUpiecewise_construct_t@2@V?$tuple@AEBH@2@V?$tuple@$$V@2@@?$_Default_allocator_traits@V?$allocator@U?$_Tree_node@U?$pair@$$CBHV?$shared_ptr@Ureorder@dnnl@@@std@@@std@@PEAX@std@@@std@@@std@@SAXAEAV?$allocator@U?$_Tree_node@U?$pair@$$CBHV?$shared_ptr@Ureorder@dnnl@@@std@@@std@@PEAX@std@@@1@QEAU?$pair@$$CBHV?$shared_ptr@Ureorder@dnnl@@@std@@@1@AEBUpiecewise_construct_t@1@$$QEAV?$tuple@AEBH@1@$$QEAV?$tuple@$$V@1@@Z 00000001800309a0 f i MWCNNLayerImpl.obj
 0001:0002fa60       ??$deallocateOutputData@C@MWCNNLayerImpl@@QEAAXH@Z 0000000180030a60 f i MWCNNLayerImpl.obj
 0001:0002fb20       ??$deallocateOutputData@M@MWCNNLayerImpl@@QEAAXH@Z 0000000180030b20 f i MWCNNLayerImpl.obj
 0001:0002fbe0       ??$exchange@PEAU?$_Tree_node@U?$pair@$$CBHV?$shared_ptr@Ureorder@dnnl@@@std@@@std@@PEAX@std@@$$T@std@@YAPEAU?$_Tree_node@U?$pair@$$CBHV?$shared_ptr@Ureorder@dnnl@@@std@@@std@@PEAX@0@AEAPEAU10@$$QEA$$T@Z 0000000180030be0 f i MWCNNLayerImpl.obj
 0001:0002fc20       ??$forward@AEAPEAU?$_Tree_node@U?$pair@$$CBHV?$shared_ptr@Ureorder@dnnl@@@std@@@std@@PEAX@std@@@std@@YAAEAPEAU?$_Tree_node@U?$pair@$$CBHV?$shared_ptr@Ureorder@dnnl@@@std@@@std@@PEAX@0@AEAPEAU10@@Z 0000000180030c20 f i MWCNNLayerImpl.obj
 0001:0002fc30       ??$forward@AEBQEAU?$_Tree_node@U?$pair@$$CBHV?$shared_ptr@Ureorder@dnnl@@@std@@@std@@PEAX@std@@@std@@YAAEBQEAU?$_Tree_node@U?$pair@$$CBHV?$shared_ptr@Ureorder@dnnl@@@std@@@std@@PEAX@0@AEBQEAU10@@Z 0000000180030c30 f i MWCNNLayerImpl.obj
 0001:0002fc40       ??$forward@PEAU?$_Tree_node@U?$pair@$$CBHV?$shared_ptr@Ureorder@dnnl@@@std@@@std@@PEAX@std@@@std@@YA$$QEAPEAU?$_Tree_node@U?$pair@$$CBHV?$shared_ptr@Ureorder@dnnl@@@std@@@std@@PEAX@0@AEAPEAU10@@Z 0000000180030c40 f i MWCNNLayerImpl.obj
 0001:0002fc50       ??$move@AEAPEAUreorder@dnnl@@@std@@YA$$QEAPEAUreorder@dnnl@@AEAPEAU12@@Z 0000000180030c50 f i MWCNNLayerImpl.obj
 0001:0002fc60       ??$swap@PEAUreorder@dnnl@@$0A@@std@@YAXAEAPEAUreorder@dnnl@@0@Z 0000000180030c60 f i MWCNNLayerImpl.obj
 0001:0002fcb0       ??0?$_Alloc_construct_ptr@V?$allocator@U?$_Tree_node@U?$pair@$$CBHV?$shared_ptr@Ureorder@dnnl@@@std@@@std@@PEAX@std@@@std@@@std@@QEAA@AEAV?$allocator@U?$_Tree_node@U?$pair@$$CBHV?$shared_ptr@Ureorder@dnnl@@@std@@@std@@PEAX@std@@@1@@Z 0000000180030cb0 f i MWCNNLayerImpl.obj
 0001:0002fce0       ??0?$_Ptr_base@Ureorder@dnnl@@@std@@IEAA@XZ 0000000180030ce0 f i MWCNNLayerImpl.obj
 0001:0002fd10       ??0?$_Tree@V?$_Tmap_traits@HV?$shared_ptr@Umemory@dnnl@@@std@@U?$less@H@2@V?$allocator@U?$pair@$$CBHV?$shared_ptr@Umemory@dnnl@@@std@@@std@@@2@$0A@@std@@@std@@QEAA@AEBU?$less@H@1@@Z 0000000180030d10 f i MWCNNLayerImpl.obj
 0001:0002fd50       ??0?$_Tree@V?$_Tmap_traits@HV?$shared_ptr@Ureorder@dnnl@@@std@@U?$less@H@2@V?$allocator@U?$pair@$$CBHV?$shared_ptr@Ureorder@dnnl@@@std@@@std@@@2@$0A@@std@@@std@@QEAA@AEBU?$less@H@1@@Z 0000000180030d50 f i MWCNNLayerImpl.obj
 0001:0002fd90       ??0?$_Tree_const_iterator@V?$_Tree_val@U?$_Tree_simple_types@U?$pair@$$CBHV?$shared_ptr@Umemory@dnnl@@@std@@@std@@@std@@@std@@@std@@QEAA@PEAU?$_Tree_node@U?$pair@$$CBHV?$shared_ptr@Umemory@dnnl@@@std@@@std@@PEAX@1@PEBV?$_Tree_val@U?$_Tree_simple_types@U?$pair@$$CBHV?$shared_ptr@Umemory@dnnl@@@std@@@std@@@std@@@1@@Z 0000000180030d90 f i MWCNNLayerImpl.obj
 0001:0002fdd0       ??0?$_Tree_const_iterator@V?$_Tree_val@U?$_Tree_simple_types@U?$pair@$$CBHV?$shared_ptr@Ureorder@dnnl@@@std@@@std@@@std@@@std@@@std@@QEAA@PEAU?$_Tree_node@U?$pair@$$CBHV?$shared_ptr@Ureorder@dnnl@@@std@@@std@@PEAX@1@PEBV?$_Tree_val@U?$_Tree_simple_types@U?$pair@$$CBHV?$shared_ptr@Ureorder@dnnl@@@std@@@std@@@std@@@1@@Z 0000000180030dd0 f i MWCNNLayerImpl.obj
 0001:0002fe10       ??0?$_Tree_iterator@V?$_Tree_val@U?$_Tree_simple_types@U?$pair@$$CBHV?$shared_ptr@Umemory@dnnl@@@std@@@std@@@std@@@std@@@std@@QEAA@PEAU?$_Tree_node@U?$pair@$$CBHV?$shared_ptr@Umemory@dnnl@@@std@@@std@@PEAX@1@PEBV?$_Tree_val@U?$_Tree_simple_types@U?$pair@$$CBHV?$shared_ptr@Umemory@dnnl@@@std@@@std@@@std@@@1@@Z 0000000180030e10 f i MWCNNLayerImpl.obj
 0001:0002fe50       ??0?$_Tree_iterator@V?$_Tree_val@U?$_Tree_simple_types@U?$pair@$$CBHV?$shared_ptr@Ureorder@dnnl@@@std@@@std@@@std@@@std@@@std@@QEAA@PEAU?$_Tree_node@U?$pair@$$CBHV?$shared_ptr@Ureorder@dnnl@@@std@@@std@@PEAX@1@PEBV?$_Tree_val@U?$_Tree_simple_types@U?$pair@$$CBHV?$shared_ptr@Ureorder@dnnl@@@std@@@std@@@std@@@1@@Z 0000000180030e50 f i MWCNNLayerImpl.obj
 0001:0002fe90       ??0?$_Tree_temp_node_alloc@V?$allocator@U?$_Tree_node@U?$pair@$$CBHV?$shared_ptr@Ureorder@dnnl@@@std@@@std@@PEAX@std@@@std@@@std@@QEAA@AEAV?$allocator@U?$_Tree_node@U?$pair@$$CBHV?$shared_ptr@Ureorder@dnnl@@@std@@@std@@PEAX@std@@@1@@Z 0000000180030e90 f i MWCNNLayerImpl.obj
 0001:0002fed0       ??0?$_Tree_unchecked_const_iterator@V?$_Tree_val@U?$_Tree_simple_types@U?$pair@$$CBHV?$shared_ptr@Umemory@dnnl@@@std@@@std@@@std@@@std@@U_Iterator_base0@2@@std@@QEAA@PEAU?$_Tree_node@U?$pair@$$CBHV?$shared_ptr@Umemory@dnnl@@@std@@@std@@PEAX@1@PEBV?$_Tree_val@U?$_Tree_simple_types@U?$pair@$$CBHV?$shared_ptr@Umemory@dnnl@@@std@@@std@@@std@@@1@@Z 0000000180030ed0 f i MWCNNLayerImpl.obj
 0001:0002ff10       ??0?$_Tree_unchecked_const_iterator@V?$_Tree_val@U?$_Tree_simple_types@U?$pair@$$CBHV?$shared_ptr@Ureorder@dnnl@@@std@@@std@@@std@@@std@@U_Iterator_base0@2@@std@@QEAA@PEAU?$_Tree_node@U?$pair@$$CBHV?$shared_ptr@Ureorder@dnnl@@@std@@@std@@PEAX@1@PEBV?$_Tree_val@U?$_Tree_simple_types@U?$pair@$$CBHV?$shared_ptr@Ureorder@dnnl@@@std@@@std@@@std@@@1@@Z 0000000180030f10 f i MWCNNLayerImpl.obj
 0001:0002ff50       ??0?$_Tree_val@U?$_Tree_simple_types@U?$pair@$$CBHV?$shared_ptr@Umemory@dnnl@@@std@@@std@@@std@@@std@@QEAA@XZ 0000000180030f50 f i MWCNNLayerImpl.obj
 0001:0002ff80       ??0?$_Tree_val@U?$_Tree_simple_types@U?$pair@$$CBHV?$shared_ptr@Ureorder@dnnl@@@std@@@std@@@std@@@std@@QEAA@XZ 0000000180030f80 f i MWCNNLayerImpl.obj
 0001:0002ffb0       ??0?$_Vector_val@U?$_Simple_types@Uprimitive@dnnl@@@std@@@std@@QEAA@XZ 0000000180030fb0 f i MWCNNLayerImpl.obj
 0001:0002fff0       ??0?$_Vector_val@U?$_Simple_types@V?$unordered_map@HUmemory@dnnl@@U?$hash@H@std@@U?$equal_to@H@4@V?$allocator@U?$pair@$$CBHUmemory@dnnl@@@std@@@4@@std@@@std@@@std@@QEAA@XZ 0000000180030ff0 f i MWCNNLayerImpl.obj
 0001:00030030       ??0?$allocator@U?$_Tree_node@U?$pair@$$CBHV?$shared_ptr@Umemory@dnnl@@@std@@@std@@PEAX@std@@@std@@QEAA@XZ 0000000180031030 f i MWCNNLayerImpl.obj
 0001:00030040       ??0?$allocator@U?$_Tree_node@U?$pair@$$CBHV?$shared_ptr@Ureorder@dnnl@@@std@@@std@@PEAX@std@@@std@@QEAA@XZ 0000000180031040 f i MWCNNLayerImpl.obj
 0001:00030050       ??0?$allocator@Uprimitive@dnnl@@@std@@QEAA@XZ 0000000180031050 f i MWCNNLayerImpl.obj
 0001:00030060       ??0?$allocator@V?$unordered_map@HUmemory@dnnl@@U?$hash@H@std@@U?$equal_to@H@4@V?$allocator@U?$pair@$$CBHUmemory@dnnl@@@std@@@4@@std@@@std@@QEAA@XZ 0000000180031060 f i MWCNNLayerImpl.obj
 0001:00030070       ??0?$map@HV?$shared_ptr@Umemory@dnnl@@@std@@U?$less@H@2@V?$allocator@U?$pair@$$CBHV?$shared_ptr@Umemory@dnnl@@@std@@@std@@@2@@std@@QEAA@XZ 0000000180031070 f i MWCNNLayerImpl.obj
 0001:000300a0       ??0?$map@HV?$shared_ptr@Ureorder@dnnl@@@std@@U?$less@H@2@V?$allocator@U?$pair@$$CBHV?$shared_ptr@Ureorder@dnnl@@@std@@@std@@@2@@std@@QEAA@XZ 00000001800310a0 f i MWCNNLayerImpl.obj
 0001:000300d0       ??0?$shared_ptr@Umemory@dnnl@@@std@@QEAA@$$T@Z 00000001800310d0 f i MWCNNLayerImpl.obj
 0001:00030100       ??0?$shared_ptr@Ureorder@dnnl@@@std@@QEAA@$$T@Z 0000000180031100 f i MWCNNLayerImpl.obj
 0001:00030130       ??0?$shared_ptr@Ureorder@dnnl@@@std@@QEAA@AEBV01@@Z 0000000180031130 f i MWCNNLayerImpl.obj
 0001:00030170       ??0?$shared_ptr@Ureorder@dnnl@@@std@@QEAA@XZ 0000000180031170 f i MWCNNLayerImpl.obj
 0001:00030190       ??0?$vector@Uprimitive@dnnl@@V?$allocator@Uprimitive@dnnl@@@std@@@std@@QEAA@XZ 0000000180031190 f i MWCNNLayerImpl.obj
 0001:000301d0       ??0?$vector@V?$unordered_map@HUmemory@dnnl@@U?$hash@H@std@@U?$equal_to@H@4@V?$allocator@U?$pair@$$CBHUmemory@dnnl@@@std@@@4@@std@@V?$allocator@V?$unordered_map@HUmemory@dnnl@@U?$hash@H@std@@U?$equal_to@H@4@V?$allocator@U?$pair@$$CBHUmemory@dnnl@@@std@@@4@@std@@@2@@std@@QEAA@XZ 00000001800311d0 f i MWCNNLayerImpl.obj
 0001:00030210       ??1?$_Alloc_construct_ptr@V?$allocator@U?$_Tree_node@U?$pair@$$CBHV?$shared_ptr@Ureorder@dnnl@@@std@@@std@@PEAX@std@@@std@@@std@@QEAA@XZ 0000000180031210 f i MWCNNLayerImpl.obj
 0001:00030250       ??1?$_Tree_temp_node@V?$allocator@U?$_Tree_node@U?$pair@$$CBHV?$shared_ptr@Ureorder@dnnl@@@std@@@std@@PEAX@std@@@std@@@std@@QEAA@XZ 0000000180031250 f i MWCNNLayerImpl.obj
 0001:000302e0       ??1?$_Tree_temp_node_alloc@V?$allocator@U?$_Tree_node@U?$pair@$$CBHV?$shared_ptr@Ureorder@dnnl@@@std@@@std@@PEAX@std@@@std@@@std@@QEAA@XZ 00000001800312e0 f i MWCNNLayerImpl.obj
 0001:00030300       ??4?$shared_ptr@Ureorder@dnnl@@@std@@QEAAAEAV01@AEBV01@@Z 0000000180031300 f i MWCNNLayerImpl.obj
 0001:00030340       ??A?$map@HV?$shared_ptr@Umemory@dnnl@@@std@@U?$less@H@2@V?$allocator@U?$pair@$$CBHV?$shared_ptr@Umemory@dnnl@@@std@@@std@@@2@@std@@QEAAAEAV?$shared_ptr@Umemory@dnnl@@@1@AEBH@Z 0000000180031340 f i MWCNNLayerImpl.obj
 0001:00030370       ??A?$map@HV?$shared_ptr@Ureorder@dnnl@@@std@@U?$less@H@2@V?$allocator@U?$pair@$$CBHV?$shared_ptr@Ureorder@dnnl@@@std@@@std@@@2@@std@@QEAAAEAV?$shared_ptr@Ureorder@dnnl@@@1@AEBH@Z 0000000180031370 f i MWCNNLayerImpl.obj
 0001:000303a0       ??A?$vector@PEAMV?$allocator@PEAM@std@@@std@@QEAAAEAPEAM_K@Z 00000001800313a0 f i MWCNNLayerImpl.obj
 0001:000303d0       ??C?$_Tree_iterator@V?$_Tree_val@U?$_Tree_simple_types@U?$pair@$$CBHV?$shared_ptr@Umemory@dnnl@@@std@@@std@@@std@@@std@@@std@@QEBAPEAU?$pair@$$CBHV?$shared_ptr@Umemory@dnnl@@@std@@@1@XZ 00000001800313d0 f i MWCNNLayerImpl.obj
 0001:000303f0       ??C?$_Tree_iterator@V?$_Tree_val@U?$_Tree_simple_types@U?$pair@$$CBHV?$shared_ptr@Ureorder@dnnl@@@std@@@std@@@std@@@std@@@std@@QEBAPEAU?$pair@$$CBHV?$shared_ptr@Ureorder@dnnl@@@std@@@1@XZ 00000001800313f0 f i MWCNNLayerImpl.obj
 0001:00030410       ??D?$_Tree_const_iterator@V?$_Tree_val@U?$_Tree_simple_types@U?$pair@$$CBHV?$shared_ptr@Umemory@dnnl@@@std@@@std@@@std@@@std@@@std@@QEBAAEBU?$pair@$$CBHV?$shared_ptr@Umemory@dnnl@@@std@@@1@XZ 0000000180031410 f i MWCNNLayerImpl.obj
 0001:00030430       ??D?$_Tree_const_iterator@V?$_Tree_val@U?$_Tree_simple_types@U?$pair@$$CBHV?$shared_ptr@Ureorder@dnnl@@@std@@@std@@@std@@@std@@@std@@QEBAAEBU?$pair@$$CBHV?$shared_ptr@Ureorder@dnnl@@@std@@@1@XZ 0000000180031430 f i MWCNNLayerImpl.obj
 0001:00030450       ??D?$_Tree_iterator@V?$_Tree_val@U?$_Tree_simple_types@U?$pair@$$CBHV?$shared_ptr@Umemory@dnnl@@@std@@@std@@@std@@@std@@@std@@QEBAAEAU?$pair@$$CBHV?$shared_ptr@Umemory@dnnl@@@std@@@1@XZ 0000000180031450 f i MWCNNLayerImpl.obj
 0001:00030470       ??D?$_Tree_iterator@V?$_Tree_val@U?$_Tree_simple_types@U?$pair@$$CBHV?$shared_ptr@Ureorder@dnnl@@@std@@@std@@@std@@@std@@@std@@QEBAAEAU?$pair@$$CBHV?$shared_ptr@Ureorder@dnnl@@@std@@@1@XZ 0000000180031470 f i MWCNNLayerImpl.obj
 0001:00030490       ?_Alloc_sentinel_and_proxy@?$_Tree@V?$_Tmap_traits@HV?$shared_ptr@Umemory@dnnl@@@std@@U?$less@H@2@V?$allocator@U?$pair@$$CBHV?$shared_ptr@Umemory@dnnl@@@std@@@std@@@2@$0A@@std@@@std@@IEAAXXZ 0000000180031490 f i MWCNNLayerImpl.obj
 0001:00030500       ?_Alloc_sentinel_and_proxy@?$_Tree@V?$_Tmap_traits@HV?$shared_ptr@Ureorder@dnnl@@@std@@U?$less@H@2@V?$allocator@U?$pair@$$CBHV?$shared_ptr@Ureorder@dnnl@@@std@@@std@@@2@$0A@@std@@@std@@IEAAXXZ 0000000180031500 f i MWCNNLayerImpl.obj
 0001:00030570       ?_Allocate@?$_Alloc_construct_ptr@V?$allocator@U?$_Tree_node@U?$pair@$$CBHV?$shared_ptr@Ureorder@dnnl@@@std@@@std@@PEAX@std@@@std@@@std@@QEAAXXZ 0000000180031570 f i MWCNNLayerImpl.obj
 0001:000305b0       ?_Check_grow_by_1@?$_Tree@V?$_Tmap_traits@HV?$shared_ptr@Ureorder@dnnl@@@std@@U?$less@H@2@V?$allocator@U?$pair@$$CBHV?$shared_ptr@Ureorder@dnnl@@@std@@@std@@@2@$0A@@std@@@std@@IEAAXXZ 00000001800315b0 f i MWCNNLayerImpl.obj
 0001:000305f0       ?_Get_first@?$_Compressed_pair@U?$less@H@std@@V?$_Compressed_pair@V?$allocator@U?$_Tree_node@U?$pair@$$CBHV?$shared_ptr@Ureorder@dnnl@@@std@@@std@@PEAX@std@@@std@@V?$_Tree_val@U?$_Tree_simple_types@U?$pair@$$CBHV?$shared_ptr@Ureorder@dnnl@@@std@@@std@@@std@@@2@$00@2@$00@std@@QEBAAEBU?$less@H@2@XZ 00000001800315f0 f i MWCNNLayerImpl.obj
 0001:00030600       ?_Get_first@?$_Compressed_pair@V?$allocator@U?$_Tree_node@U?$pair@$$CBHV?$shared_ptr@Ureorder@dnnl@@@std@@@std@@PEAX@std@@@std@@V?$_Tree_val@U?$_Tree_simple_types@U?$pair@$$CBHV?$shared_ptr@Ureorder@dnnl@@@std@@@std@@@std@@@2@$00@std@@QEBAAEBV?$allocator@U?$_Tree_node@U?$pair@$$CBHV?$shared_ptr@Ureorder@dnnl@@@std@@@std@@PEAX@std@@@2@XZ 0000000180031600 f i MWCNNLayerImpl.obj
 0001:00030610       ?_Get_scary@?$_Tree@V?$_Tmap_traits@HV?$shared_ptr@Ureorder@dnnl@@@std@@U?$less@H@2@V?$allocator@U?$pair@$$CBHV?$shared_ptr@Ureorder@dnnl@@@std@@@std@@@2@$0A@@std@@@std@@IEBAPEBV?$_Tree_val@U?$_Tree_simple_types@U?$pair@$$CBHV?$shared_ptr@Ureorder@dnnl@@@std@@@std@@@std@@@2@XZ 0000000180031610 f i MWCNNLayerImpl.obj
 0001:00030630       ?_Getal@?$_Tree@V?$_Tmap_traits@HV?$shared_ptr@Ureorder@dnnl@@@std@@U?$less@H@2@V?$allocator@U?$pair@$$CBHV?$shared_ptr@Ureorder@dnnl@@@std@@@std@@@2@$0A@@std@@@std@@IEBAAEBV?$allocator@U?$_Tree_node@U?$pair@$$CBHV?$shared_ptr@Ureorder@dnnl@@@std@@@std@@PEAX@std@@@2@XZ 0000000180031630 f i MWCNNLayerImpl.obj
 0001:00030650       ?_Getcomp@?$_Tree@V?$_Tmap_traits@HV?$shared_ptr@Ureorder@dnnl@@@std@@U?$less@H@2@V?$allocator@U?$pair@$$CBHV?$shared_ptr@Ureorder@dnnl@@@std@@@std@@@2@$0A@@std@@@std@@IEBAAEBU?$less@H@2@XZ 0000000180031650 f i MWCNNLayerImpl.obj
 0001:00030670       ?_Incref@?$_Ptr_base@Ureorder@dnnl@@@std@@IEBAXXZ 0000000180031670 f i MWCNNLayerImpl.obj
 0001:000306a0       ?_Insert_node@?$_Tree_val@U?$_Tree_simple_types@U?$pair@$$CBHV?$shared_ptr@Ureorder@dnnl@@@std@@@std@@@std@@@std@@QEAAPEAU?$_Tree_node@U?$pair@$$CBHV?$shared_ptr@Ureorder@dnnl@@@std@@@std@@PEAX@2@U?$_Tree_id@PEAU?$_Tree_node@U?$pair@$$CBHV?$shared_ptr@Ureorder@dnnl@@@std@@@std@@PEAX@std@@@2@QEAU32@@Z 00000001800316a0 f i MWCNNLayerImpl.obj
 0001:00030990       ?_Lrotate@?$_Tree_val@U?$_Tree_simple_types@U?$pair@$$CBHV?$shared_ptr@Ureorder@dnnl@@@std@@@std@@@std@@@std@@QEAAXPEAU?$_Tree_node@U?$pair@$$CBHV?$shared_ptr@Ureorder@dnnl@@@std@@@std@@PEAX@2@@Z 0000000180031990 f i MWCNNLayerImpl.obj
 0001:00030a70       ?_Orphan_ptr@?$_Tree_val@U?$_Tree_simple_types@U?$pair@$$CBHV?$shared_ptr@Umemory@dnnl@@@std@@@std@@@std@@@std@@QEAAXQEAU?$_Tree_node@U?$pair@$$CBHV?$shared_ptr@Umemory@dnnl@@@std@@@std@@PEAX@2@@Z 0000000180031a70 f i MWCNNLayerImpl.obj
 0001:00030a80       ?_Orphan_ptr@?$_Tree_val@U?$_Tree_simple_types@U?$pair@$$CBHV?$shared_ptr@Ureorder@dnnl@@@std@@@std@@@std@@@std@@QEAAXQEAU?$_Tree_node@U?$pair@$$CBHV?$shared_ptr@Ureorder@dnnl@@@std@@@std@@PEAX@2@@Z 0000000180031a80 f i MWCNNLayerImpl.obj
 0001:00030a90       ?_Release@?$_Alloc_construct_ptr@V?$allocator@U?$_Tree_node@U?$pair@$$CBHV?$shared_ptr@Ureorder@dnnl@@@std@@@std@@PEAX@std@@@std@@@std@@QEAAPEAU?$_Tree_node@U?$pair@$$CBHV?$shared_ptr@Ureorder@dnnl@@@std@@@std@@PEAX@2@XZ 0000000180031a90 f i MWCNNLayerImpl.obj
 0001:00030ac0       ?_Rrotate@?$_Tree_val@U?$_Tree_simple_types@U?$pair@$$CBHV?$shared_ptr@Ureorder@dnnl@@@std@@@std@@@std@@@std@@QEAAXPEAU?$_Tree_node@U?$pair@$$CBHV?$shared_ptr@Ureorder@dnnl@@@std@@@std@@PEAX@2@@Z 0000000180031ac0 f i MWCNNLayerImpl.obj
 0001:00030ba0       ?_Swap@?$_Ptr_base@Ureorder@dnnl@@@std@@IEAAXAEAV12@@Z 0000000180031ba0 f i MWCNNLayerImpl.obj
 0001:00030be0       ?allocate@?$allocator@U?$_Tree_node@U?$pair@$$CBHV?$shared_ptr@Ureorder@dnnl@@@std@@@std@@PEAX@std@@@std@@QEAAPEAU?$_Tree_node@U?$pair@$$CBHV?$shared_ptr@Ureorder@dnnl@@@std@@@std@@PEAX@2@_K@Z 0000000180031be0 f i MWCNNLayerImpl.obj
 0001:00030c10       ?clear@?$_Tree@V?$_Tmap_traits@HV?$shared_ptr@Umemory@dnnl@@@std@@U?$less@H@2@V?$allocator@U?$pair@$$CBHV?$shared_ptr@Umemory@dnnl@@@std@@@std@@@2@$0A@@std@@@std@@QEAAXXZ 0000000180031c10 f i MWCNNLayerImpl.obj
 0001:00030ca0       ?clear@?$_Tree@V?$_Tmap_traits@HV?$shared_ptr@Ureorder@dnnl@@@std@@U?$less@H@2@V?$allocator@U?$pair@$$CBHV?$shared_ptr@Ureorder@dnnl@@@std@@@std@@@2@$0A@@std@@@std@@QEAAXXZ 0000000180031ca0 f i MWCNNLayerImpl.obj
 0001:00030d30       ?clear@?$vector@Uprimitive@dnnl@@V?$allocator@Uprimitive@dnnl@@@std@@@std@@QEAAXXZ 0000000180031d30 f i MWCNNLayerImpl.obj
 0001:00030da0       ?clear@?$vector@V?$unordered_map@HUmemory@dnnl@@U?$hash@H@std@@U?$equal_to@H@4@V?$allocator@U?$pair@$$CBHUmemory@dnnl@@@std@@@4@@std@@V?$allocator@V?$unordered_map@HUmemory@dnnl@@U?$hash@H@std@@U?$equal_to@H@4@V?$allocator@U?$pair@$$CBHUmemory@dnnl@@@std@@@4@@std@@@2@@std@@QEAAXXZ 0000000180031da0 f i MWCNNLayerImpl.obj
 0001:00030e10       ?deallocate@?$allocator@U?$_Tree_node@U?$pair@$$CBHV?$shared_ptr@Ureorder@dnnl@@@std@@@std@@PEAX@std@@@std@@QEAAXQEAU?$_Tree_node@U?$pair@$$CBHV?$shared_ptr@Ureorder@dnnl@@@std@@@std@@PEAX@2@_K@Z 0000000180031e10 f i MWCNNLayerImpl.obj
 0001:00030e40       ?find@?$_Tree@V?$_Tmap_traits@HV?$shared_ptr@Umemory@dnnl@@@std@@U?$less@H@2@V?$allocator@U?$pair@$$CBHV?$shared_ptr@Umemory@dnnl@@@std@@@std@@@2@$0A@@std@@@std@@QEAA?AV?$_Tree_iterator@V?$_Tree_val@U?$_Tree_simple_types@U?$pair@$$CBHV?$shared_ptr@Umemory@dnnl@@@std@@@std@@@std@@@std@@@2@AEBH@Z 0000000180031e40 f i MWCNNLayerImpl.obj
 0001:00030e90       ?find@?$_Tree@V?$_Tmap_traits@HV?$shared_ptr@Ureorder@dnnl@@@std@@U?$less@H@2@V?$allocator@U?$pair@$$CBHV?$shared_ptr@Ureorder@dnnl@@@std@@@std@@@2@$0A@@std@@@std@@QEAA?AV?$_Tree_iterator@V?$_Tree_val@U?$_Tree_simple_types@U?$pair@$$CBHV?$shared_ptr@Ureorder@dnnl@@@std@@@std@@@std@@@std@@@2@AEBH@Z 0000000180031e90 f i MWCNNLayerImpl.obj
 0001:00030ee0       ?max_size@?$_Default_allocator_traits@V?$allocator@U?$_Tree_node@U?$pair@$$CBHV?$shared_ptr@Ureorder@dnnl@@@std@@@std@@PEAX@std@@@std@@@std@@SA_KAEBV?$allocator@U?$_Tree_node@U?$pair@$$CBHV?$shared_ptr@Ureorder@dnnl@@@std@@@std@@PEAX@std@@@2@@Z 0000000180031ee0 f i MWCNNLayerImpl.obj
 0001:00030ef0       ?max_size@?$_Tree@V?$_Tmap_traits@HV?$shared_ptr@Ureorder@dnnl@@@std@@U?$less@H@2@V?$allocator@U?$pair@$$CBHV?$shared_ptr@Ureorder@dnnl@@@std@@@std@@@2@$0A@@std@@@std@@QEBA_KXZ 0000000180031ef0 f i MWCNNLayerImpl.obj
 0001:00030f40       ?pointer_to@?$pointer_traits@PEAU?$pair@$$CBHV?$shared_ptr@Umemory@dnnl@@@std@@@std@@@std@@SAPEAU?$pair@$$CBHV?$shared_ptr@Umemory@dnnl@@@std@@@2@AEAU32@@Z 0000000180031f40 f i MWCNNLayerImpl.obj
 0001:00030f60       ?pointer_to@?$pointer_traits@PEAU?$pair@$$CBHV?$shared_ptr@Ureorder@dnnl@@@std@@@std@@@std@@SAPEAU?$pair@$$CBHV?$shared_ptr@Ureorder@dnnl@@@std@@@2@AEAU32@@Z 0000000180031f60 f i MWCNNLayerImpl.obj
 0001:00030f80       ?set_data_handle@memory@dnnl@@QEBAXPEAX@Z 0000000180031f80 f i MWCNNLayerImpl.obj
 0001:00030fc0       ?size@?$_Tree@V?$_Tmap_traits@HV?$shared_ptr@Umemory@dnnl@@@std@@U?$less@H@2@V?$allocator@U?$pair@$$CBHV?$shared_ptr@Umemory@dnnl@@@std@@@std@@@2@$0A@@std@@@std@@QEBA_KXZ 0000000180031fc0 f i MWCNNLayerImpl.obj
 0001:00030fe0       ?size@?$_Tree@V?$_Tmap_traits@HV?$shared_ptr@Ureorder@dnnl@@@std@@U?$less@H@2@V?$allocator@U?$pair@$$CBHV?$shared_ptr@Ureorder@dnnl@@@std@@@std@@@2@$0A@@std@@@std@@QEBA_KXZ 0000000180031fe0 f i MWCNNLayerImpl.obj
 0001:00031000       ?swap@?$shared_ptr@Ureorder@dnnl@@@std@@QEAAXAEAV12@@Z 0000000180032000 f i MWCNNLayerImpl.obj
 0001:00031030       ?allocate@MWTargetNetworkImpl@@QEAAXHQEAPEAVMWCNNLayer@@HH@Z 0000000180032030 f   MWTargetNetworkImpl.obj
 0001:00031370       ?deallocate@MWTargetNetworkImpl@@QEAAXXZ 0000000180032370 f   MWTargetNetworkImpl.obj
 0001:00031490       ?preSetup@MWTargetNetworkImpl@@QEAAXXZ 0000000180032490 f   MWTargetNetworkImpl.obj
 0001:00031550       ?cleanup@MWTargetNetworkImpl@@QEAAXXZ 0000000180032550 f   MWTargetNetworkImpl.obj
 0001:00031560       ?getLayerOutput@MWTargetNetworkImpl@@QEAAPEAMQEAPEAVMWCNNLayer@@HH@Z 0000000180032560 f   MWTargetNetworkImpl.obj
 0001:000315c0       ?getLayerActivation@MWTargetNetworkImpl@@QEAAPEAMPEAVMWTensorBase@@@Z 00000001800325c0 f   MWTargetNetworkImpl.obj
 0001:00031b40       ?getBufferPtr@MWTargetNetworkImpl@@QEAAPEAMH@Z 0000000180032b40 f   MWTargetNetworkImpl.obj
 0001:00031ba0       ?setReorderLayerMemory@MWTargetNetworkImpl@@QEAAXV?$shared_ptr@Umemory@dnnl@@@std@@@Z 0000000180032ba0 f   MWTargetNetworkImpl.obj
 0001:00031be0       ?setReorderPrim@MWTargetNetworkImpl@@QEAAXV?$shared_ptr@Ureorder@dnnl@@@std@@@Z 0000000180032be0 f   MWTargetNetworkImpl.obj
 0001:00031c20       ?getReorderLayerMemory@MWTargetNetworkImpl@@QEAA?AV?$shared_ptr@Umemory@dnnl@@@std@@XZ 0000000180032c20 f   MWTargetNetworkImpl.obj
 0001:00031c70       ?getReorderPrim@MWTargetNetworkImpl@@QEAA?AV?$shared_ptr@Ureorder@dnnl@@@std@@XZ 0000000180032c70 f   MWTargetNetworkImpl.obj
 0001:00031cc0       ?getPermuteBuffer@MWTargetNetworkImpl@@QEAAPEAMH@Z 0000000180032cc0 f   MWTargetNetworkImpl.obj
 0001:00031d30       ??$?0AEAPEAUengine@dnnl@@@?$_Compressed_pair@U?$default_delete@Uengine@dnnl@@@std@@PEAUengine@dnnl@@$00@std@@QEAA@U_Zero_then_variadic_args_t@1@AEAPEAUengine@dnnl@@@Z 0000000180032d30 f i MWTargetNetworkImpl.obj
 0001:00031d70       ??$?0U?$default_delete@Uengine@dnnl@@@std@@$0A@@?$unique_ptr@Uengine@dnnl@@U?$default_delete@Uengine@dnnl@@@std@@@std@@QEAA@PEAUengine@dnnl@@@Z 0000000180032d70 f i MWTargetNetworkImpl.obj
 0001:00031da0       ??$?4U?$default_delete@Uengine@dnnl@@@std@@$0A@@?$unique_ptr@Uengine@dnnl@@U?$default_delete@Uengine@dnnl@@@std@@@std@@QEAAAEAV01@$$QEAV01@@Z 0000000180032da0 f i MWTargetNetworkImpl.obj
 0001:00031e10       ??$?DUreorder@dnnl@@$0A@@?$shared_ptr@Ureorder@dnnl@@@std@@QEBAAEAUreorder@dnnl@@XZ 0000000180032e10 f i MWTargetNetworkImpl.obj
 0001:00031e30       ??$_Copy_memmove@PEAPEAMPEAPEAM@std@@YAPEAPEAMPEAPEAM00@Z 0000000180032e30 f i MWTargetNetworkImpl.obj
 0001:00031ed0       ??$_Destroy_range@V?$allocator@PEAM@std@@@std@@YAXPEAPEAMQEAPEAMAEAV?$allocator@PEAM@0@@Z 0000000180032ed0 f i MWTargetNetworkImpl.obj
 0001:00031ee0       ??$_Emplace_back@PEAM@?$_Uninitialized_backout_al@V?$allocator@PEAM@std@@@std@@QEAAX$$QEAPEAM@Z 0000000180032ee0 f i MWTargetNetworkImpl.obj
 0001:00031f40       ??$_Emplace_back_with_unused_capacity@PEAM@?$vector@PEAMV?$allocator@PEAM@std@@@std@@AEAA?A_T$$QEAPEAM@Z 0000000180032f40 f i MWTargetNetworkImpl.obj
 0001:00031ff0       ??$_Emplace_reallocate@PEAM@?$vector@PEAMV?$allocator@PEAM@std@@@std@@QEAAPEAPEAMQEAPEAM$$QEAPEAM@Z 0000000180032ff0 f i MWTargetNetworkImpl.obj
 0001:00032200       ??$_Get_unwrapped@AEBQEAPEAM@std@@YA?A_TAEBQEAPEAM@Z 0000000180033200 f i MWTargetNetworkImpl.obj
 0001:00032210       ??$_To_address@PEAPEAM@std@@YA?A_PAEBQEAPEAM@Z 0000000180033210 f i MWTargetNetworkImpl.obj
 0001:00032220       ??$_Unfancy@PEAM@std@@YAPEAPEAMPEAPEAM@Z 0000000180033220 f i MWTargetNetworkImpl.obj
 0001:00032230       ??$_Uninitialized_move@PEAPEAMV?$allocator@PEAM@std@@@std@@YAPEAPEAMQEAPEAM0PEAPEAMAEAV?$allocator@PEAM@0@@Z 0000000180033230 f i MWTargetNetworkImpl.obj
 0001:00032310       ??$_Voidify_iter@PEAPEAM@std@@YAPEAXPEAPEAM@Z 0000000180033310 f i MWTargetNetworkImpl.obj
 0001:00032320       ??$addressof@V?$unique_ptr@Uengine@dnnl@@U?$default_delete@Uengine@dnnl@@@std@@@std@@@std@@YAPEAV?$unique_ptr@Uengine@dnnl@@U?$default_delete@Uengine@dnnl@@@std@@@0@AEAV10@@Z 0000000180033320 f i MWTargetNetworkImpl.obj
 0001:00032330       ??$construct@PEAMPEAM@?$_Default_allocator_traits@V?$allocator@PEAM@std@@@std@@SAXAEAV?$allocator@PEAM@1@QEAPEAM$$QEAPEAM@Z 0000000180033330 f i MWTargetNetworkImpl.obj
 0001:00032380       ??$emplace_back@PEAM@?$vector@PEAMV?$allocator@PEAM@std@@@std@@QEAA?A_T$$QEAPEAM@Z 0000000180033380 f i MWTargetNetworkImpl.obj
 0001:00032400       ??$exchange@PEAUengine@dnnl@@$$T@std@@YAPEAUengine@dnnl@@AEAPEAU12@$$QEA$$T@Z 0000000180033400 f i MWTargetNetworkImpl.obj
 0001:00032440       ??$exchange@PEAUengine@dnnl@@AEAPEAU12@@std@@YAPEAUengine@dnnl@@AEAPEAU12@0@Z 0000000180033440 f i MWTargetNetworkImpl.obj
 0001:00032480       ??$forward@AEAPEAUengine@dnnl@@@std@@YAAEAPEAUengine@dnnl@@AEAPEAU12@@Z 0000000180033480 f i MWTargetNetworkImpl.obj
 0001:00032490       ??$forward@U?$default_delete@Uengine@dnnl@@@std@@@std@@YA$$QEAU?$default_delete@Uengine@dnnl@@@0@AEAU10@@Z 0000000180033490 f i MWTargetNetworkImpl.obj
 0001:000324a0       ??0?$_Uninitialized_backout_al@V?$allocator@PEAM@std@@@std@@QEAA@PEAPEAMAEAV?$allocator@PEAM@1@@Z 00000001800334a0 f i MWTargetNetworkImpl.obj
 0001:000324e0       ??0?$handle@PEAUdnnl_engine@@U?$handle_traits@PEAUdnnl_engine@@@dnnl@@@dnnl@@QEAA@XZ 00000001800334e0 f i MWTargetNetworkImpl.obj
 0001:00032510       ??0Cpu@@QEAA@XZ            0000000180033510 f i MWTargetNetworkImpl.obj
 0001:00033180       ??0engine@dnnl@@QEAA@W4kind@01@_K@Z 0000000180034180 f i MWTargetNetworkImpl.obj
 0001:000331f0       ??1?$_Uninitialized_backout_al@V?$allocator@PEAM@std@@@std@@QEAA@XZ 00000001800341f0 f i MWTargetNetworkImpl.obj
 0001:00033220       ??1?$unique_ptr@Uengine@dnnl@@U?$default_delete@Uengine@dnnl@@@std@@@std@@QEAA@XZ 0000000180034220 f i MWTargetNetworkImpl.obj
 0001:00033260       ??R?$default_delete@Uengine@dnnl@@@std@@QEBAXPEAUengine@dnnl@@@Z 0000000180034260 f i MWTargetNetworkImpl.obj
 0001:000332b0       ??_Gengine@dnnl@@QEAAPEAXI@Z 00000001800342b0 f i MWTargetNetworkImpl.obj
 0001:000332f0       ?_Calculate_growth@?$vector@PEAMV?$allocator@PEAM@std@@@std@@AEBA_K_K@Z 00000001800342f0 f i MWTargetNetworkImpl.obj
 0001:00033380       ?_Change_array@?$vector@PEAMV?$allocator@PEAM@std@@@std@@AEAAXQEAPEAM_K1@Z 0000000180034380 f i MWTargetNetworkImpl.obj
 0001:00033480       ?_Destroy@?$vector@PEAMV?$allocator@PEAM@std@@@std@@AEAAXPEAPEAM0@Z 0000000180034480 f i MWTargetNetworkImpl.obj
 0001:000334c0       ?_Get_first@?$_Compressed_pair@U?$default_delete@Uengine@dnnl@@@std@@PEAUengine@dnnl@@$00@std@@QEAAAEAU?$default_delete@Uengine@dnnl@@@2@XZ 00000001800344c0 f i MWTargetNetworkImpl.obj
 0001:000334d0       ?_Get_first@?$_Compressed_pair@V?$allocator@PEAM@std@@V?$_Vector_val@U?$_Simple_types@PEAM@std@@@2@$00@std@@QEAAAEAV?$allocator@PEAM@2@XZ 00000001800344d0 f i MWTargetNetworkImpl.obj
 0001:000334e0       ?_Get_first@?$_Compressed_pair@V?$allocator@PEAM@std@@V?$_Vector_val@U?$_Simple_types@PEAM@std@@@2@$00@std@@QEBAAEBV?$allocator@PEAM@2@XZ 00000001800344e0 f i MWTargetNetworkImpl.obj
 0001:000334f0       ?_Getal@?$vector@PEAMV?$allocator@PEAM@std@@@std@@AEAAAEAV?$allocator@PEAM@2@XZ 00000001800344f0 f i MWTargetNetworkImpl.obj
 0001:00033510       ?_Getal@?$vector@PEAMV?$allocator@PEAM@std@@@std@@AEBAAEBV?$allocator@PEAM@2@XZ 0000000180034510 f i MWTargetNetworkImpl.obj
 0001:00033530       ?_Orphan_range@?$vector@PEAMV?$allocator@PEAM@std@@@std@@AEBAXPEAPEAM0@Z 0000000180034530 f i MWTargetNetworkImpl.obj
 0001:00033540       ?_Release@?$_Uninitialized_backout_al@V?$allocator@PEAM@std@@@std@@QEAAPEAPEAMXZ 0000000180034540 f i MWTargetNetworkImpl.obj
 0001:00033560       ?_Umove@?$vector@PEAMV?$allocator@PEAM@std@@@std@@AEAAPEAPEAMPEAPEAM00@Z 0000000180034560 f i MWTargetNetworkImpl.obj
 0001:000335a0       ?_Umove_if_noexcept1@?$vector@PEAMV?$allocator@PEAM@std@@@std@@AEAAXPEAPEAM00U?$integral_constant@_N$00@2@@Z 00000001800345a0 f i MWTargetNetworkImpl.obj
 0001:000335e0       ?_Umove_if_noexcept@?$vector@PEAMV?$allocator@PEAM@std@@@std@@AEAAXPEAPEAM00@Z 00000001800345e0 f i MWTargetNetworkImpl.obj
 0001:00033640       ?_Xlength@?$vector@PEAMV?$allocator@PEAM@std@@@std@@CAXXZ 0000000180034640 f i MWTargetNetworkImpl.obj
 0001:00033660       ?allocate@?$allocator@PEAM@std@@QEAAPEAPEAM_K@Z 0000000180034660 f i MWTargetNetworkImpl.obj
 0001:00033690       ?capacity@?$vector@PEAMV?$allocator@PEAM@std@@@std@@QEBA_KXZ 0000000180034690 f i MWTargetNetworkImpl.obj
 0001:000336c0       ?clear@?$vector@PEAMV?$allocator@PEAM@std@@@std@@QEAAXXZ 00000001800346c0 f i MWTargetNetworkImpl.obj
 0001:00033730       ?convert_to_c@engine@dnnl@@CA?AW4dnnl_engine_kind_t@@W4kind@12@@Z 0000000180034730 f i MWTargetNetworkImpl.obj
 0001:00033740       ?deallocate@?$allocator@PEAM@std@@QEAAXQEAPEAM_K@Z 0000000180034740 f i MWTargetNetworkImpl.obj
 0001:00033770       ?get32bitAsBE@Cpu@@AEBAIPEBD@Z 0000000180034770 f i MWTargetNetworkImpl.obj
 0001:000337e0       ?get@?$_Ptr_base@Ureorder@dnnl@@@std@@IEBAPEAUreorder@dnnl@@XZ 00000001800347e0 f i MWTargetNetworkImpl.obj
 0001:000337f0       ?getCpuid@Cpu@@SAXIQEAI@Z  00000001800347f0 f i MWTargetNetworkImpl.obj
 0001:00033820       ?getCpuidEx@Cpu@@SAXIIQEAI@Z 0000000180034820 f i MWTargetNetworkImpl.obj
 0001:00033850       ?getImpl@MWCNNLayer@@QEAAPEAVMWCNNLayerImpl@@XZ 0000000180034850 f i MWTargetNetworkImpl.obj
 0001:00033860       ?getOwner@MWTensorBase@@QEBAPEAVMWCNNLayer@@XZ 0000000180034860 f i MWTargetNetworkImpl.obj
 0001:00033870       ?getXfeature@Cpu@@SA_KXZ   0000000180034870 f i MWTargetNetworkImpl.obj
 0001:00033880       ?has@Cpu@@QEBA_N_K@Z       0000000180034880 f i MWTargetNetworkImpl.obj
 0001:000338c0       ?isCustomLayer@MWCNNLayer@@QEBA_NXZ 00000001800348c0 f i MWTargetNetworkImpl.obj
 0001:000338d0       ?max_size@?$_Default_allocator_traits@V?$allocator@PEAM@std@@@std@@SA_KAEBV?$allocator@PEAM@2@@Z 00000001800348d0 f i MWTargetNetworkImpl.obj
 0001:000338e0       ?max_size@?$vector@PEAMV?$allocator@PEAM@std@@@std@@QEBA_KXZ 00000001800348e0 f i MWTargetNetworkImpl.obj
 0001:00033930       ?push_back@?$vector@PEAMV?$allocator@PEAM@std@@@std@@QEAAX$$QEAPEAM@Z 0000000180034930 f i MWTargetNetworkImpl.obj
 0001:00033960       ?release@?$unique_ptr@Uengine@dnnl@@U?$default_delete@Uengine@dnnl@@@std@@@std@@QEAAPEAUengine@dnnl@@XZ 0000000180034960 f i MWTargetNetworkImpl.obj
 0001:00033990       ?reset@?$unique_ptr@Uengine@dnnl@@U?$default_delete@Uengine@dnnl@@@std@@@std@@QEAAXPEAUengine@dnnl@@@Z 0000000180034990 f i MWTargetNetworkImpl.obj
 0001:000339e0       ?size@?$vector@PEAMV?$allocator@PEAM@std@@@std@@QEBA_KXZ 00000001800349e0 f i MWTargetNetworkImpl.obj
 0001:00033a10       ?configureReorder@MWMkldnnUtils@@SAXPEAVMWCNNLayerImpl@@PEAVMWTensorBase@@W4format_type@@H@Z 0000000180034a10 f   MWMkldnnUtils.obj
 0001:00033f50       ?TargetImplconfigureReorder@MWMkldnnUtils@@SAXPEAVMWTargetNetworkImpl@@PEAVMWTensorBase@@W4format_tag@memory@dnnl@@@Z 0000000180034f50 f   MWMkldnnUtils.obj
 0001:000341a0       ?getLayerMemoryPrimitive@MWMkldnnUtils@@SA?AV?$shared_ptr@Umemory@dnnl@@@std@@PEAVMWTensorBase@@@Z 00000001800351a0 f   MWMkldnnUtils.obj
 0001:00034440       ?getformatType@MWMkldnnUtils@@SA?AW4format_type@@Udesc@memory@dnnl@@PEAVMWTensorBase@@@Z 0000000180035440 f   MWMkldnnUtils.obj
 0001:00034f90       ?checkformatType@MWMkldnnUtils@@SA_NUdesc@memory@dnnl@@PEAVMWTensorBase@@W4format_tag@34@@Z 0000000180035f90 f   MWMkldnnUtils.obj
 0001:00035270       ?isReorderNeeded@MWMkldnnUtils@@SA_NW4format_type@@@Z 0000000180036270 f   MWMkldnnUtils.obj
 0001:000352c0       ?reorderInputsTo@MWMkldnnUtils@@SAXPEAVMWCNNLayerImpl@@W4format_type@@@Z 00000001800362c0 f   MWMkldnnUtils.obj
 0001:000358c0       ?getMKLDNNFormatTag@MWMkldnnUtils@@SA?AW4format_tag@memory@dnnl@@W4format_type@@@Z 00000001800368c0 f   MWMkldnnUtils.obj
 0001:00035980       ??$?0AEAUmemory@dnnl@@AEAU01@@?$_Ref_count_obj2@Ureorder@dnnl@@@std@@QEAA@AEAUmemory@dnnl@@0@Z 0000000180036980 f i MWMkldnnUtils.obj
 0001:00035a00       ??$_Construct_in_place@Ureorder@dnnl@@AEAUmemory@2@AEAU32@@std@@YAXAEAUreorder@dnnl@@AEAUmemory@2@1@Z 0000000180036a00 f i MWMkldnnUtils.obj
 0001:00035aa0       ??$_Destroy_in_place@Ureorder@dnnl@@@std@@YAXAEAUreorder@dnnl@@@Z 0000000180036aa0 f i MWMkldnnUtils.obj
 0001:00035ac0       ??$_Move_construct_from@Ureorder@dnnl@@@?$_Ptr_base@Ureorder@dnnl@@@std@@IEAAX$$QEAV01@@Z 0000000180036ac0 f i MWMkldnnUtils.obj
 0001:00035b10       ??$_Set_ptr_rep_and_enable_shared@Ureorder@dnnl@@@?$shared_ptr@Ureorder@dnnl@@@std@@AEAAXQEAUreorder@dnnl@@QEAV_Ref_count_base@1@@Z 0000000180036b10 f i MWMkldnnUtils.obj
 0001:00035b40       ??$_Voidify_iter@PEAUreorder@dnnl@@@std@@YAPEAXPEAUreorder@dnnl@@@Z 0000000180036b40 f i MWMkldnnUtils.obj
 0001:00035b50       ??$addressof@Ureorder@dnnl@@@std@@YAPEAUreorder@dnnl@@AEAU12@@Z 0000000180036b50 f i MWMkldnnUtils.obj
 0001:00035b60       ??$make_shared@Ureorder@dnnl@@AEAUmemory@2@AEAU32@@std@@YA?AV?$shared_ptr@Ureorder@dnnl@@@0@AEAUmemory@dnnl@@0@Z 0000000180036b60 f i MWMkldnnUtils.obj
 0001:00035c50       ??$move@AEAV?$shared_ptr@Ureorder@dnnl@@@std@@@std@@YA$$QEAV?$shared_ptr@Ureorder@dnnl@@@0@AEAV10@@Z 0000000180036c50 f i MWMkldnnUtils.obj
 0001:00035c60       ??0?$shared_ptr@Ureorder@dnnl@@@std@@QEAA@$$QEAV01@@Z 0000000180036c60 f i MWMkldnnUtils.obj
 0001:00035ca0       ??0desc@memory@dnnl@@QEAA@AEBV?$vector@_JV?$allocator@_J@std@@@std@@W4data_type@12@0_N@Z 0000000180036ca0 f i MWMkldnnUtils.obj
 0001:00035db0       ??1?$_Ref_count_obj2@Ureorder@dnnl@@@std@@UEAA@XZ 0000000180036db0 f i MWMkldnnUtils.obj
 0001:00035de0       ??B?$shared_ptr@Umemory@dnnl@@@std@@QEBA_NXZ 0000000180036de0 f i MWMkldnnUtils.obj
 0001:00035e20       ??_G?$_Ref_count_obj2@Ureorder@dnnl@@@std@@UEAAPEAXI@Z 0000000180036e20 f i MWMkldnnUtils.obj
 0001:00035e20       ??_E?$_Ref_count_obj2@Ureorder@dnnl@@@std@@UEAAPEAXI@Z 0000000180036e20 f i MWMkldnnUtils.obj
 0001:00035e60       ?_Delete_this@?$_Ref_count_obj2@Ureorder@dnnl@@@std@@EEAAXXZ 0000000180036e60 f i MWMkldnnUtils.obj
 0001:00035eb0       ?_Destroy@?$_Ref_count_obj2@Ureorder@dnnl@@@std@@EEAAXXZ 0000000180036eb0 f i MWMkldnnUtils.obj
 0001:00035ed0       ?empty@?$vector@_JV?$allocator@_J@std@@@std@@QEBA_NXZ 0000000180036ed0 f i MWMkldnnUtils.obj
 0001:00035f10       ?getArgumentsPipeline@MWCNNLayerImpl@@QEAAAEAV?$vector@V?$unordered_map@HUmemory@dnnl@@U?$hash@H@std@@U?$equal_to@H@4@V?$allocator@U?$pair@$$CBHUmemory@dnnl@@@std@@@4@@std@@V?$allocator@V?$unordered_map@HUmemory@dnnl@@U?$hash@H@std@@U?$equal_to@H@4@V?$allocator@U?$pair@$$CBHUmemory@dnnl@@@std@@@4@@std@@@2@@std@@XZ 0000000180036f10 f i MWMkldnnUtils.obj
 0001:00035f20       ?getPipeline@MWCNNLayerImpl@@QEAAAEAV?$vector@Uprimitive@dnnl@@V?$allocator@Uprimitive@dnnl@@@std@@@std@@XZ 0000000180036f20 f i MWMkldnnUtils.obj
 0001:00035f30       ?getSourcePortIndex@MWTensorBase@@QEBAHXZ 0000000180036f30 f i MWMkldnnUtils.obj
 0001:00035f40       ?getTargetImpl@MWCNNLayerImpl@@QEAAPEAVMWTargetNetworkImpl@@XZ 0000000180036f40 f i MWMkldnnUtils.obj
 0001:00035f50       ??0MWCustomLayerForMKLDNN@@QEAA@XZ 0000000180036f50 f   MWCustomLayerForMKLDNN.obj
 0001:00035fc0       ??1MWCustomLayerForMKLDNN@@UEAA@XZ 0000000180036fc0 f   MWCustomLayerForMKLDNN.obj
 0001:00036000       ?getCustomLayerMemory@MWCustomLayerForMKLDNN@@QEAA?AV?$shared_ptr@Umemory@dnnl@@@std@@PEAVMWTensorBase@@@Z 0000000180037000 f   MWCustomLayerForMKLDNN.obj
 0001:000360d0       ?getMaxBufSize@MWCustomLayerForMKLDNN@@QEAAHXZ 00000001800370d0 f   MWCustomLayerForMKLDNN.obj
 0001:000360f0       ?allocate@MWCustomLayerForMKLDNN@@UEAAXXZ 00000001800370f0 f   MWCustomLayerForMKLDNN.obj
 0001:00036180       ?deallocate@MWCustomLayerForMKLDNN@@QEAAXXZ 0000000180037180 f   MWCustomLayerForMKLDNN.obj
 0001:000361e0       ?cleanup@MWCustomLayerForMKLDNN@@UEAAXXZ 00000001800371e0 f   MWCustomLayerForMKLDNN.obj
 0001:00036210       ?setCustomLayerMemory@MWCustomLayerForMKLDNN@@AEAAXPEAVMWTensorBase@@V?$shared_ptr@Umemory@dnnl@@@std@@@Z 0000000180037210 f   MWCustomLayerForMKLDNN.obj
 0001:000362f0       ?setupLayer@MWCustomLayerForMKLDNN@@IEAAXPEAVMWTargetNetworkImpl@@@Z 00000001800372f0 f   MWCustomLayerForMKLDNN.obj
 0001:00036320       ?createLayerMemory@MWCustomLayerForMKLDNN@@IEAAXPEAVMWTensorBase@@QEAW4DIMSLABEL@2@@Z 0000000180037320 f   MWCustomLayerForMKLDNN.obj
 0001:00036720       ?setCustomLayerMemoryData@MWCustomLayerForMKLDNN@@IEAAXPEAVMWTensorBase@@@Z 0000000180037720 f   MWCustomLayerForMKLDNN.obj
 0001:00036790       ?layerMemoryReorder@MWCustomLayerForMKLDNN@@IEAAXPEAVMWTensorBase@@H@Z 0000000180037790 f   MWCustomLayerForMKLDNN.obj
 0001:00036a40       ??$?0$$V@?$_Compressed_pair@V?$allocator@U?$_Tree_node@U?$pair@QEAVMWTensorBase@@V?$shared_ptr@Umemory@dnnl@@@std@@@std@@PEAX@std@@@std@@V?$_Tree_val@U?$_Tree_simple_types@U?$pair@QEAVMWTensorBase@@V?$shared_ptr@Umemory@dnnl@@@std@@@std@@@std@@@2@$00@std@@QEAA@U_Zero_then_variadic_args_t@1@@Z 0000000180037a40 f i MWCustomLayerForMKLDNN.obj
 0001:00036a70       ??$?0AEAUdesc@memory@dnnl@@AEAUengine@2@PEAM@?$_Ref_count_obj2@Umemory@dnnl@@@std@@QEAA@AEAUdesc@memory@dnnl@@AEAUengine@4@$$QEAPEAM@Z 0000000180037a70 f i MWCustomLayerForMKLDNN.obj
 0001:00036b10       ??$?0AEBQEAU?$_Tree_node@U?$pair@QEAVMWTensorBase@@V?$shared_ptr@Umemory@dnnl@@@std@@@std@@PEAX@std@@_N$0A@@?$pair@PEAU?$_Tree_node@U?$pair@QEAVMWTensorBase@@V?$shared_ptr@Umemory@dnnl@@@std@@@std@@PEAX@std@@_N@std@@QEAA@AEBQEAU?$_Tree_node@U?$pair@QEAVMWTensorBase@@V?$shared_ptr@Umemory@dnnl@@@std@@@std@@PEAX@1@$$QEA_N@Z 0000000180037b10 f i MWCustomLayerForMKLDNN.obj
 0001:00036b60       ??$?0AEBQEAVMWTensorBase@@$$Z$$V@?$pair@QEAVMWTensorBase@@V?$shared_ptr@Umemory@dnnl@@@std@@@std@@QEAA@Upiecewise_construct_t@1@V?$tuple@AEBQEAVMWTensorBase@@@1@V?$tuple@$$V@1@@Z 0000000180037b60 f i MWCustomLayerForMKLDNN.obj
 0001:00036bd0       ??$?0AEBQEAVMWTensorBase@@$0A@@?$tuple@AEBQEAVMWTensorBase@@@std@@QEAA@AEBQEAVMWTensorBase@@@Z 0000000180037bd0 f i MWCustomLayerForMKLDNN.obj
 0001:00036c00       ??$?0AEBQEAVMWTensorBase@@@?$_Tuple_val@AEBQEAVMWTensorBase@@@std@@QEAA@AEBQEAVMWTensorBase@@@Z 0000000180037c00 f i MWCustomLayerForMKLDNN.obj
 0001:00036c30       ??$?0AEBU?$less@PEAVMWTensorBase@@@std@@U_Zero_then_variadic_args_t@1@@?$_Compressed_pair@U?$less@PEAVMWTensorBase@@@std@@V?$_Compressed_pair@V?$allocator@U?$_Tree_node@U?$pair@QEAVMWTensorBase@@V?$shared_ptr@Umemory@dnnl@@@std@@@std@@PEAX@std@@@std@@V?$_Tree_val@U?$_Tree_simple_types@U?$pair@QEAVMWTensorBase@@V?$shared_ptr@Umemory@dnnl@@@std@@@std@@@std@@@2@$00@2@$00@std@@QEAA@U_One_then_variadic_args_t@1@AEBU?$less@PEAVMWTensorBase@@@1@$$QEAU_Zero_then_variadic_args_t@1@@Z 0000000180037c30 f i MWCustomLayerForMKLDNN.obj
 0001:00036c80       ??$?0AEBUpiecewise_construct_t@std@@V?$tuple@AEBQEAVMWTensorBase@@@1@V?$tuple@$$V@1@@?$_Tree_temp_node@V?$allocator@U?$_Tree_node@U?$pair@QEAVMWTensorBase@@V?$shared_ptr@Umemory@dnnl@@@std@@@std@@PEAX@std@@@std@@@std@@QEAA@AEAV?$allocator@U?$_Tree_node@U?$pair@QEAVMWTensorBase@@V?$shared_ptr@Umemory@dnnl@@@std@@@std@@PEAX@std@@@1@PEAU?$_Tree_node@U?$pair@QEAVMWTensorBase@@V?$shared_ptr@Umemory@dnnl@@@std@@@std@@PEAX@1@AEBUpiecewise_construct_t@1@$$QEAV?$tuple@AEBQEAVMWTensorBase@@@1@$$QEAV?$tuple@$$V@1@@Z 0000000180037c80 f i MWCustomLayerForMKLDNN.obj
 0001:00036d90       ??$?0PEAU?$_Tree_node@U?$pair@QEAVMWTensorBase@@V?$shared_ptr@Umemory@dnnl@@@std@@@std@@PEAX@std@@_N$0A@@?$pair@PEAU?$_Tree_node@U?$pair@QEAVMWTensorBase@@V?$shared_ptr@Umemory@dnnl@@@std@@@std@@PEAX@std@@_N@std@@QEAA@$$QEAPEAU?$_Tree_node@U?$pair@QEAVMWTensorBase@@V?$shared_ptr@Umemory@dnnl@@@std@@@std@@PEAX@1@$$QEA_N@Z 0000000180037d90 f i MWCustomLayerForMKLDNN.obj
 0001:00036de0       ??$?0U_Exact_args_t@std@@AEBQEAVMWTensorBase@@$$V$0A@@?$tuple@AEBQEAVMWTensorBase@@@std@@QEAA@U_Exact_args_t@1@AEBQEAVMWTensorBase@@@Z 0000000180037de0 f i MWCustomLayerForMKLDNN.obj
 0001:00036e30       ??$?0V?$tuple@AEBQEAVMWTensorBase@@@std@@V?$tuple@$$V@1@$0A@$$Z$S@?$pair@QEAVMWTensorBase@@V?$shared_ptr@Umemory@dnnl@@@std@@@std@@QEAA@AEAV?$tuple@AEBQEAVMWTensorBase@@@1@AEAV?$tuple@$$V@1@U?$integer_sequence@_K$0A@@1@U?$integer_sequence@_K$S@1@@Z 0000000180037e30 f i MWCustomLayerForMKLDNN.obj
 0001:00036ea0       ??$?8Umemory@dnnl@@U01@@std@@YA_NAEBV?$shared_ptr@Umemory@dnnl@@@0@0@Z 0000000180037ea0 f i MWCustomLayerForMKLDNN.obj
 0001:00036ef0       ??$_Buyheadnode@V?$allocator@U?$_Tree_node@U?$pair@QEAVMWTensorBase@@V?$shared_ptr@Umemory@dnnl@@@std@@@std@@PEAX@std@@@std@@@?$_Tree_node@U?$pair@QEAVMWTensorBase@@V?$shared_ptr@Umemory@dnnl@@@std@@@std@@PEAX@std@@SAPEAU01@AEAV?$allocator@U?$_Tree_node@U?$pair@QEAVMWTensorBase@@V?$shared_ptr@Umemory@dnnl@@@std@@@std@@PEAX@std@@@1@@Z 0000000180037ef0 f i MWCustomLayerForMKLDNN.obj
 0001:00036f70       ??$_Construct_in_place@PEAU?$_Tree_node@U?$pair@QEAVMWTensorBase@@V?$shared_ptr@Umemory@dnnl@@@std@@@std@@PEAX@std@@AEAPEAU12@@std@@YAXAEAPEAU?$_Tree_node@U?$pair@QEAVMWTensorBase@@V?$shared_ptr@Umemory@dnnl@@@std@@@std@@PEAX@0@0@Z 0000000180037f70 f i MWCustomLayerForMKLDNN.obj
 0001:00036fc0       ??$_Construct_in_place@PEAU?$_Tree_node@U?$pair@QEAVMWTensorBase@@V?$shared_ptr@Umemory@dnnl@@@std@@@std@@PEAX@std@@AEBQEAU12@@std@@YAXAEAPEAU?$_Tree_node@U?$pair@QEAVMWTensorBase@@V?$shared_ptr@Umemory@dnnl@@@std@@@std@@PEAX@0@AEBQEAU10@@Z 0000000180037fc0 f i MWCustomLayerForMKLDNN.obj
 0001:00037010       ??$_Construct_in_place@Umemory@dnnl@@AEAUdesc@12@AEAUengine@2@PEAM@std@@YAXAEAUmemory@dnnl@@AEAUdesc@12@AEAUengine@2@$$QEAPEAM@Z 0000000180038010 f i MWCustomLayerForMKLDNN.obj
 0001:000370a0       ??$_Destroy_in_place@PEAU?$_Tree_node@U?$pair@QEAVMWTensorBase@@V?$shared_ptr@Umemory@dnnl@@@std@@@std@@PEAX@std@@@std@@YAXAEAPEAU?$_Tree_node@U?$pair@QEAVMWTensorBase@@V?$shared_ptr@Umemory@dnnl@@@std@@@std@@PEAX@0@@Z 00000001800380a0 f i MWCustomLayerForMKLDNN.obj
 0001:000370b0       ??$_Erase_head@V?$allocator@U?$_Tree_node@U?$pair@QEAVMWTensorBase@@V?$shared_ptr@Umemory@dnnl@@@std@@@std@@PEAX@std@@@std@@@?$_Tree_val@U?$_Tree_simple_types@U?$pair@QEAVMWTensorBase@@V?$shared_ptr@Umemory@dnnl@@@std@@@std@@@std@@@std@@QEAAXAEAV?$allocator@U?$_Tree_node@U?$pair@QEAVMWTensorBase@@V?$shared_ptr@Umemory@dnnl@@@std@@@std@@PEAX@std@@@1@@Z 00000001800380b0 f i MWCustomLayerForMKLDNN.obj
 0001:00037100       ??$_Erase_tree@V?$allocator@U?$_Tree_node@U?$pair@QEAVMWTensorBase@@V?$shared_ptr@Umemory@dnnl@@@std@@@std@@PEAX@std@@@std@@@?$_Tree_val@U?$_Tree_simple_types@U?$pair@QEAVMWTensorBase@@V?$shared_ptr@Umemory@dnnl@@@std@@@std@@@std@@@std@@QEAAXAEAV?$allocator@U?$_Tree_node@U?$pair@QEAVMWTensorBase@@V?$shared_ptr@Umemory@dnnl@@@std@@@std@@PEAX@std@@@1@PEAU?$_Tree_node@U?$pair@QEAVMWTensorBase@@V?$shared_ptr@Umemory@dnnl@@@std@@@std@@PEAX@1@@Z 0000000180038100 f i MWCustomLayerForMKLDNN.obj
 0001:00037160       ??$_Find@PEAVMWTensorBase@@@?$_Tree@V?$_Tmap_traits@PEAVMWTensorBase@@V?$shared_ptr@Umemory@dnnl@@@std@@U?$less@PEAVMWTensorBase@@@3@V?$allocator@U?$pair@QEAVMWTensorBase@@V?$shared_ptr@Umemory@dnnl@@@std@@@std@@@3@$0A@@std@@@std@@AEBAPEAU?$_Tree_node@U?$pair@QEAVMWTensorBase@@V?$shared_ptr@Umemory@dnnl@@@std@@@std@@PEAX@1@AEBQEAVMWTensorBase@@@Z 0000000180038160 f i MWCustomLayerForMKLDNN.obj
 0001:000371c0       ??$_Find_lower_bound@PEAVMWTensorBase@@@?$_Tree@V?$_Tmap_traits@PEAVMWTensorBase@@V?$shared_ptr@Umemory@dnnl@@@std@@U?$less@PEAVMWTensorBase@@@3@V?$allocator@U?$pair@QEAVMWTensorBase@@V?$shared_ptr@Umemory@dnnl@@@std@@@std@@@3@$0A@@std@@@std@@IEBA?AU?$_Tree_find_result@PEAU?$_Tree_node@U?$pair@QEAVMWTensorBase@@V?$shared_ptr@Umemory@dnnl@@@std@@@std@@PEAX@std@@@1@AEBQEAVMWTensorBase@@@Z 00000001800381c0 f i MWCustomLayerForMKLDNN.obj
 0001:000372d0       ??$_Freenode0@V?$allocator@U?$_Tree_node@U?$pair@QEAVMWTensorBase@@V?$shared_ptr@Umemory@dnnl@@@std@@@std@@PEAX@std@@@std@@@?$_Tree_node@U?$pair@QEAVMWTensorBase@@V?$shared_ptr@Umemory@dnnl@@@std@@@std@@PEAX@std@@SAXAEAV?$allocator@U?$_Tree_node@U?$pair@QEAVMWTensorBase@@V?$shared_ptr@Umemory@dnnl@@@std@@@std@@PEAX@std@@@1@PEAU01@@Z 00000001800382d0 f i MWCustomLayerForMKLDNN.obj
 0001:00037330       ??$_Freenode@V?$allocator@U?$_Tree_node@U?$pair@QEAVMWTensorBase@@V?$shared_ptr@Umemory@dnnl@@@std@@@std@@PEAX@std@@@std@@@?$_Tree_node@U?$pair@QEAVMWTensorBase@@V?$shared_ptr@Umemory@dnnl@@@std@@@std@@PEAX@std@@SAXAEAV?$allocator@U?$_Tree_node@U?$pair@QEAVMWTensorBase@@V?$shared_ptr@Umemory@dnnl@@@std@@@std@@PEAX@std@@@1@PEAU01@@Z 0000000180038330 f i MWCustomLayerForMKLDNN.obj
 0001:00037380       ??$_Kfn@QEAVMWTensorBase@@V?$shared_ptr@Umemory@dnnl@@@std@@@?$_Tmap_traits@PEAVMWTensorBase@@V?$shared_ptr@Umemory@dnnl@@@std@@U?$less@PEAVMWTensorBase@@@3@V?$allocator@U?$pair@QEAVMWTensorBase@@V?$shared_ptr@Umemory@dnnl@@@std@@@std@@@3@$0A@@std@@SAAEBQEAVMWTensorBase@@AEBU?$pair@QEAVMWTensorBase@@V?$shared_ptr@Umemory@dnnl@@@std@@@1@@Z 0000000180038380 f i MWCustomLayerForMKLDNN.obj
 0001:00037390       ??$_Lower_bound_duplicate@PEAVMWTensorBase@@@?$_Tree@V?$_Tmap_traits@PEAVMWTensorBase@@V?$shared_ptr@Umemory@dnnl@@@std@@U?$less@PEAVMWTensorBase@@@3@V?$allocator@U?$pair@QEAVMWTensorBase@@V?$shared_ptr@Umemory@dnnl@@@std@@@std@@@3@$0A@@std@@@std@@IEBA_NQEAU?$_Tree_node@U?$pair@QEAVMWTensorBase@@V?$shared_ptr@Umemory@dnnl@@@std@@@std@@PEAX@1@AEBQEAVMWTensorBase@@@Z 0000000180038390 f i MWCustomLayerForMKLDNN.obj
 0001:00037410       ??$_Try_emplace@AEBQEAVMWTensorBase@@$$V@?$map@PEAVMWTensorBase@@V?$shared_ptr@Umemory@dnnl@@@std@@U?$less@PEAVMWTensorBase@@@3@V?$allocator@U?$pair@QEAVMWTensorBase@@V?$shared_ptr@Umemory@dnnl@@@std@@@std@@@3@@std@@AEAA?AU?$pair@PEAU?$_Tree_node@U?$pair@QEAVMWTensorBase@@V?$shared_ptr@Umemory@dnnl@@@std@@@std@@PEAX@std@@_N@1@AEBQEAVMWTensorBase@@@Z 0000000180038410 f i MWCustomLayerForMKLDNN.obj
 0001:000375b0       ??$_Tuple_get@$0A@AEBQEAVMWTensorBase@@@std@@YA$$QEA_P$$QEAV?$tuple@AEBQEAVMWTensorBase@@@0@@Z 00000001800385b0 f i MWCustomLayerForMKLDNN.obj
 0001:000375c0       ??$_Voidify_iter@PEAPEAU?$_Tree_node@U?$pair@QEAVMWTensorBase@@V?$shared_ptr@Umemory@dnnl@@@std@@@std@@PEAX@std@@@std@@YAPEAXPEAPEAU?$_Tree_node@U?$pair@QEAVMWTensorBase@@V?$shared_ptr@Umemory@dnnl@@@std@@@std@@PEAX@0@@Z 00000001800385c0 f i MWCustomLayerForMKLDNN.obj
 0001:000375d0       ??$_Voidify_iter@PEAU?$pair@QEAVMWTensorBase@@V?$shared_ptr@Umemory@dnnl@@@std@@@std@@@std@@YAPEAXPEAU?$pair@QEAVMWTensorBase@@V?$shared_ptr@Umemory@dnnl@@@std@@@0@@Z 00000001800385d0 f i MWCustomLayerForMKLDNN.obj
 0001:000375e0       ??$addressof@$$CBV?$_Tree_val@U?$_Tree_simple_types@U?$pair@QEAVMWTensorBase@@V?$shared_ptr@Umemory@dnnl@@@std@@@std@@@std@@@std@@@std@@YAPEBV?$_Tree_val@U?$_Tree_simple_types@U?$pair@QEAVMWTensorBase@@V?$shared_ptr@Umemory@dnnl@@@std@@@std@@@std@@@0@AEBV10@@Z 00000001800385e0 f i MWCustomLayerForMKLDNN.obj
 0001:000375f0       ??$addressof@PEAU?$_Tree_node@U?$pair@QEAVMWTensorBase@@V?$shared_ptr@Umemory@dnnl@@@std@@@std@@PEAX@std@@@std@@YAPEAPEAU?$_Tree_node@U?$pair@QEAVMWTensorBase@@V?$shared_ptr@Umemory@dnnl@@@std@@@std@@PEAX@0@AEAPEAU10@@Z 00000001800385f0 f i MWCustomLayerForMKLDNN.obj
 0001:00037600       ??$addressof@U?$pair@QEAVMWTensorBase@@V?$shared_ptr@Umemory@dnnl@@@std@@@std@@@std@@YAPEAU?$pair@QEAVMWTensorBase@@V?$shared_ptr@Umemory@dnnl@@@std@@@0@AEAU10@@Z 0000000180038600 f i MWCustomLayerForMKLDNN.obj
 0001:00037610       ??$addressof@V?$_Tree_val@U?$_Tree_simple_types@U?$pair@QEAVMWTensorBase@@V?$shared_ptr@Umemory@dnnl@@@std@@@std@@@std@@@std@@@std@@YAPEAV?$_Tree_val@U?$_Tree_simple_types@U?$pair@QEAVMWTensorBase@@V?$shared_ptr@Umemory@dnnl@@@std@@@std@@@std@@@0@AEAV10@@Z 0000000180038610 f i MWCustomLayerForMKLDNN.obj
 0001:00037620       ??$construct@U?$pair@QEAVMWTensorBase@@V?$shared_ptr@Umemory@dnnl@@@std@@@std@@AEBUpiecewise_construct_t@2@V?$tuple@AEBQEAVMWTensorBase@@@2@V?$tuple@$$V@2@@?$_Default_allocator_traits@V?$allocator@U?$_Tree_node@U?$pair@QEAVMWTensorBase@@V?$shared_ptr@Umemory@dnnl@@@std@@@std@@PEAX@std@@@std@@@std@@SAXAEAV?$allocator@U?$_Tree_node@U?$pair@QEAVMWTensorBase@@V?$shared_ptr@Umemory@dnnl@@@std@@@std@@PEAX@std@@@1@QEAU?$pair@QEAVMWTensorBase@@V?$shared_ptr@Umemory@dnnl@@@std@@@1@AEBUpiecewise_construct_t@1@$$QEAV?$tuple@AEBQEAVMWTensorBase@@@1@$$QEAV?$tuple@$$V@1@@Z 0000000180038620 f i MWCustomLayerForMKLDNN.obj
 0001:000376e0       ??$destroy@U?$pair@QEAVMWTensorBase@@V?$shared_ptr@Umemory@dnnl@@@std@@@std@@@?$_Default_allocator_traits@V?$allocator@U?$_Tree_node@U?$pair@QEAVMWTensorBase@@V?$shared_ptr@Umemory@dnnl@@@std@@@std@@PEAX@std@@@std@@@std@@SAXAEAV?$allocator@U?$_Tree_node@U?$pair@QEAVMWTensorBase@@V?$shared_ptr@Umemory@dnnl@@@std@@@std@@PEAX@std@@@1@QEAU?$pair@QEAVMWTensorBase@@V?$shared_ptr@Umemory@dnnl@@@std@@@1@@Z 00000001800386e0 f i MWCustomLayerForMKLDNN.obj
 0001:00037700       ??$exchange@PEAU?$_Tree_node@U?$pair@QEAVMWTensorBase@@V?$shared_ptr@Umemory@dnnl@@@std@@@std@@PEAX@std@@$$T@std@@YAPEAU?$_Tree_node@U?$pair@QEAVMWTensorBase@@V?$shared_ptr@Umemory@dnnl@@@std@@@std@@PEAX@0@AEAPEAU10@$$QEA$$T@Z 0000000180038700 f i MWCustomLayerForMKLDNN.obj
 0001:00037740       ??$exchange@PEAU?$_Tree_node@U?$pair@QEAVMWTensorBase@@V?$shared_ptr@Umemory@dnnl@@@std@@@std@@PEAX@std@@AEAPEAU12@@std@@YAPEAU?$_Tree_node@U?$pair@QEAVMWTensorBase@@V?$shared_ptr@Umemory@dnnl@@@std@@@std@@PEAX@0@AEAPEAU10@0@Z 0000000180038740 f i MWCustomLayerForMKLDNN.obj
 0001:00037780       ??$forward@AEAPEAU?$_Tree_node@U?$pair@QEAVMWTensorBase@@V?$shared_ptr@Umemory@dnnl@@@std@@@std@@PEAX@std@@@std@@YAAEAPEAU?$_Tree_node@U?$pair@QEAVMWTensorBase@@V?$shared_ptr@Umemory@dnnl@@@std@@@std@@PEAX@0@AEAPEAU10@@Z 0000000180038780 f i MWCustomLayerForMKLDNN.obj
 0001:00037790       ??$forward@AEBQEAU?$_Tree_node@U?$pair@QEAVMWTensorBase@@V?$shared_ptr@Umemory@dnnl@@@std@@@std@@PEAX@std@@@std@@YAAEBQEAU?$_Tree_node@U?$pair@QEAVMWTensorBase@@V?$shared_ptr@Umemory@dnnl@@@std@@@std@@PEAX@0@AEBQEAU10@@Z 0000000180038790 f i MWCustomLayerForMKLDNN.obj
 0001:000377a0       ??$forward@AEBQEAVMWTensorBase@@@std@@YAAEBQEAVMWTensorBase@@AEBQEAV1@@Z 00000001800387a0 f i MWCustomLayerForMKLDNN.obj
 0001:000377b0       ??$forward@AEBU?$less@PEAVMWTensorBase@@@std@@@std@@YAAEBU?$less@PEAVMWTensorBase@@@0@AEBU10@@Z 00000001800387b0 f i MWCustomLayerForMKLDNN.obj
 0001:000377c0       ??$forward@PEAU?$_Tree_node@U?$pair@QEAVMWTensorBase@@V?$shared_ptr@Umemory@dnnl@@@std@@@std@@PEAX@std@@@std@@YA$$QEAPEAU?$_Tree_node@U?$pair@QEAVMWTensorBase@@V?$shared_ptr@Umemory@dnnl@@@std@@@std@@PEAX@0@AEAPEAU10@@Z 00000001800387c0 f i MWCustomLayerForMKLDNN.obj
 0001:000377d0       ??$forward@V?$tuple@AEBQEAVMWTensorBase@@@std@@@std@@YA$$QEAV?$tuple@AEBQEAVMWTensorBase@@@0@AEAV10@@Z 00000001800387d0 f i MWCustomLayerForMKLDNN.obj
 0001:000377e0       ??$forward_as_tuple@AEBQEAVMWTensorBase@@@std@@YA?AV?$tuple@AEBQEAVMWTensorBase@@@0@AEBQEAVMWTensorBase@@@Z 00000001800387e0 f i MWCustomLayerForMKLDNN.obj
 0001:00037810       ??$make_shared@Umemory@dnnl@@AEAUdesc@12@AEAUengine@2@PEAM@std@@YA?AV?$shared_ptr@Umemory@dnnl@@@0@AEAUdesc@memory@dnnl@@AEAUengine@4@$$QEAPEAM@Z 0000000180038810 f i MWCustomLayerForMKLDNN.obj
 0001:00037920       ??$move@AEAV?$tuple@AEBQEAVMWTensorBase@@@std@@@std@@YA$$QEAV?$tuple@AEBQEAVMWTensorBase@@@0@AEAV10@@Z 0000000180038920 f i MWCustomLayerForMKLDNN.obj
 0001:00037930       ??0?$_Alloc_construct_ptr@V?$allocator@U?$_Tree_node@U?$pair@QEAVMWTensorBase@@V?$shared_ptr@Umemory@dnnl@@@std@@@std@@PEAX@std@@@std@@@std@@QEAA@AEAV?$allocator@U?$_Tree_node@U?$pair@QEAVMWTensorBase@@V?$shared_ptr@Umemory@dnnl@@@std@@@std@@PEAX@std@@@1@@Z 0000000180038930 f i MWCustomLayerForMKLDNN.obj
 0001:00037960       ??0?$_Tree@V?$_Tmap_traits@PEAVMWTensorBase@@V?$shared_ptr@Umemory@dnnl@@@std@@U?$less@PEAVMWTensorBase@@@3@V?$allocator@U?$pair@QEAVMWTensorBase@@V?$shared_ptr@Umemory@dnnl@@@std@@@std@@@3@$0A@@std@@@std@@QEAA@AEBU?$less@PEAVMWTensorBase@@@1@@Z 0000000180038960 f i MWCustomLayerForMKLDNN.obj
 0001:000379a0       ??0?$_Tree_const_iterator@V?$_Tree_val@U?$_Tree_simple_types@U?$pair@QEAVMWTensorBase@@V?$shared_ptr@Umemory@dnnl@@@std@@@std@@@std@@@std@@@std@@QEAA@PEAU?$_Tree_node@U?$pair@QEAVMWTensorBase@@V?$shared_ptr@Umemory@dnnl@@@std@@@std@@PEAX@1@PEBV?$_Tree_val@U?$_Tree_simple_types@U?$pair@QEAVMWTensorBase@@V?$shared_ptr@Umemory@dnnl@@@std@@@std@@@std@@@1@@Z 00000001800389a0 f i MWCustomLayerForMKLDNN.obj
 0001:000379e0       ??0?$_Tree_iterator@V?$_Tree_val@U?$_Tree_simple_types@U?$pair@QEAVMWTensorBase@@V?$shared_ptr@Umemory@dnnl@@@std@@@std@@@std@@@std@@@std@@QEAA@PEAU?$_Tree_node@U?$pair@QEAVMWTensorBase@@V?$shared_ptr@Umemory@dnnl@@@std@@@std@@PEAX@1@PEBV?$_Tree_val@U?$_Tree_simple_types@U?$pair@QEAVMWTensorBase@@V?$shared_ptr@Umemory@dnnl@@@std@@@std@@@std@@@1@@Z 00000001800389e0 f i MWCustomLayerForMKLDNN.obj
 0001:00037a20       ??0?$_Tree_temp_node_alloc@V?$allocator@U?$_Tree_node@U?$pair@QEAVMWTensorBase@@V?$shared_ptr@Umemory@dnnl@@@std@@@std@@PEAX@std@@@std@@@std@@QEAA@AEAV?$allocator@U?$_Tree_node@U?$pair@QEAVMWTensorBase@@V?$shared_ptr@Umemory@dnnl@@@std@@@std@@PEAX@std@@@1@@Z 0000000180038a20 f i MWCustomLayerForMKLDNN.obj
 0001:00037a60       ??0?$_Tree_unchecked_const_iterator@V?$_Tree_val@U?$_Tree_simple_types@U?$pair@QEAVMWTensorBase@@V?$shared_ptr@Umemory@dnnl@@@std@@@std@@@std@@@std@@U_Iterator_base0@2@@std@@QEAA@PEAU?$_Tree_node@U?$pair@QEAVMWTensorBase@@V?$shared_ptr@Umemory@dnnl@@@std@@@std@@PEAX@1@PEBV?$_Tree_val@U?$_Tree_simple_types@U?$pair@QEAVMWTensorBase@@V?$shared_ptr@Umemory@dnnl@@@std@@@std@@@std@@@1@@Z 0000000180038a60 f i MWCustomLayerForMKLDNN.obj
 0001:00037aa0       ??0?$_Tree_val@U?$_Tree_simple_types@U?$pair@QEAVMWTensorBase@@V?$shared_ptr@Umemory@dnnl@@@std@@@std@@@std@@@std@@QEAA@XZ 0000000180038aa0 f i MWCustomLayerForMKLDNN.obj
 0001:00037ad0       ??0?$allocator@U?$_Tree_node@U?$pair@QEAVMWTensorBase@@V?$shared_ptr@Umemory@dnnl@@@std@@@std@@PEAX@std@@@std@@QEAA@XZ 0000000180038ad0 f i MWCustomLayerForMKLDNN.obj
 0001:00037ae0       ??0?$map@PEAVMWTensorBase@@V?$shared_ptr@Umemory@dnnl@@@std@@U?$less@PEAVMWTensorBase@@@3@V?$allocator@U?$pair@QEAVMWTensorBase@@V?$shared_ptr@Umemory@dnnl@@@std@@@std@@@3@@std@@QEAA@XZ 0000000180038ae0 f i MWCustomLayerForMKLDNN.obj
 0001:00037b10       ??0?$tuple@AEBQEAVMWTensorBase@@@std@@QEAA@$$QEAV01@@Z 0000000180038b10 f i MWCustomLayerForMKLDNN.obj
 0001:00037b50       ??1?$_Alloc_construct_ptr@V?$allocator@U?$_Tree_node@U?$pair@QEAVMWTensorBase@@V?$shared_ptr@Umemory@dnnl@@@std@@@std@@PEAX@std@@@std@@@std@@QEAA@XZ 0000000180038b50 f i MWCustomLayerForMKLDNN.obj
 0001:00037b90       ??1?$_Tree@V?$_Tmap_traits@PEAVMWTensorBase@@V?$shared_ptr@Umemory@dnnl@@@std@@U?$less@PEAVMWTensorBase@@@3@V?$allocator@U?$pair@QEAVMWTensorBase@@V?$shared_ptr@Umemory@dnnl@@@std@@@std@@@3@$0A@@std@@@std@@QEAA@XZ 0000000180038b90 f i MWCustomLayerForMKLDNN.obj
 0001:00037bd0       ??1?$_Tree_temp_node@V?$allocator@U?$_Tree_node@U?$pair@QEAVMWTensorBase@@V?$shared_ptr@Umemory@dnnl@@@std@@@std@@PEAX@std@@@std@@@std@@QEAA@XZ 0000000180038bd0 f i MWCustomLayerForMKLDNN.obj
 0001:00037c60       ??1?$_Tree_temp_node_alloc@V?$allocator@U?$_Tree_node@U?$pair@QEAVMWTensorBase@@V?$shared_ptr@Umemory@dnnl@@@std@@@std@@PEAX@std@@@std@@@std@@QEAA@XZ 0000000180038c60 f i MWCustomLayerForMKLDNN.obj
 0001:00037c80       ??1?$map@PEAVMWTensorBase@@V?$shared_ptr@Umemory@dnnl@@@std@@U?$less@PEAVMWTensorBase@@@3@V?$allocator@U?$pair@QEAVMWTensorBase@@V?$shared_ptr@Umemory@dnnl@@@std@@@std@@@3@@std@@QEAA@XZ 0000000180038c80 f i MWCustomLayerForMKLDNN.obj
 0001:00037ca0       ??1?$pair@QEAVMWTensorBase@@V?$shared_ptr@Umemory@dnnl@@@std@@@std@@QEAA@XZ 0000000180038ca0 f i MWCustomLayerForMKLDNN.obj
 0001:00037cc0       ??8?$_Tree_const_iterator@V?$_Tree_val@U?$_Tree_simple_types@U?$pair@QEAVMWTensorBase@@V?$shared_ptr@Umemory@dnnl@@@std@@@std@@@std@@@std@@@std@@QEBA_NAEBV01@@Z 0000000180038cc0 f i MWCustomLayerForMKLDNN.obj
 0001:00037d00       ??9?$_Tree_const_iterator@V?$_Tree_val@U?$_Tree_simple_types@U?$pair@QEAVMWTensorBase@@V?$shared_ptr@Umemory@dnnl@@@std@@@std@@@std@@@std@@@std@@QEBA_NAEBV01@@Z 0000000180038d00 f i MWCustomLayerForMKLDNN.obj
 0001:00037d40       ??A?$map@PEAVMWTensorBase@@V?$shared_ptr@Umemory@dnnl@@@std@@U?$less@PEAVMWTensorBase@@@3@V?$allocator@U?$pair@QEAVMWTensorBase@@V?$shared_ptr@Umemory@dnnl@@@std@@@std@@@3@@std@@QEAAAEAV?$shared_ptr@Umemory@dnnl@@@1@AEBQEAVMWTensorBase@@@Z 0000000180038d40 f i MWCustomLayerForMKLDNN.obj
 0001:00037d70       ??C?$_Tree_iterator@V?$_Tree_val@U?$_Tree_simple_types@U?$pair@QEAVMWTensorBase@@V?$shared_ptr@Umemory@dnnl@@@std@@@std@@@std@@@std@@@std@@QEBAPEAU?$pair@QEAVMWTensorBase@@V?$shared_ptr@Umemory@dnnl@@@std@@@1@XZ 0000000180038d70 f i MWCustomLayerForMKLDNN.obj
 0001:00037d90       ??D?$_Tree_const_iterator@V?$_Tree_val@U?$_Tree_simple_types@U?$pair@QEAVMWTensorBase@@V?$shared_ptr@Umemory@dnnl@@@std@@@std@@@std@@@std@@@std@@QEBAAEBU?$pair@QEAVMWTensorBase@@V?$shared_ptr@Umemory@dnnl@@@std@@@1@XZ 0000000180038d90 f i MWCustomLayerForMKLDNN.obj
 0001:00037db0       ??D?$_Tree_iterator@V?$_Tree_val@U?$_Tree_simple_types@U?$pair@QEAVMWTensorBase@@V?$shared_ptr@Umemory@dnnl@@@std@@@std@@@std@@@std@@@std@@QEBAAEAU?$pair@QEAVMWTensorBase@@V?$shared_ptr@Umemory@dnnl@@@std@@@1@XZ 0000000180038db0 f i MWCustomLayerForMKLDNN.obj
 0001:00037dd0       ??R?$less@PEAVMWTensorBase@@@std@@QEBA_NAEBQEAVMWTensorBase@@0@Z 0000000180038dd0 f i MWCustomLayerForMKLDNN.obj
 0001:00037e10       ??_G?$pair@QEAVMWTensorBase@@V?$shared_ptr@Umemory@dnnl@@@std@@@std@@QEAAPEAXI@Z 0000000180038e10 f i MWCustomLayerForMKLDNN.obj
 0001:00037e50       ??_EMWCustomLayerForMKLDNN@@UEAAPEAXI@Z 0000000180038e50 f i MWCustomLayerForMKLDNN.obj
 0001:00037e50       ??_GMWCustomLayerForMKLDNN@@UEAAPEAXI@Z 0000000180038e50 f i MWCustomLayerForMKLDNN.obj
 0001:00037e90       ?_Alloc_sentinel_and_proxy@?$_Tree@V?$_Tmap_traits@PEAVMWTensorBase@@V?$shared_ptr@Umemory@dnnl@@@std@@U?$less@PEAVMWTensorBase@@@3@V?$allocator@U?$pair@QEAVMWTensorBase@@V?$shared_ptr@Umemory@dnnl@@@std@@@std@@@3@$0A@@std@@@std@@IEAAXXZ 0000000180038e90 f i MWCustomLayerForMKLDNN.obj
 0001:00037f00       ?_Allocate@?$_Alloc_construct_ptr@V?$allocator@U?$_Tree_node@U?$pair@QEAVMWTensorBase@@V?$shared_ptr@Umemory@dnnl@@@std@@@std@@PEAX@std@@@std@@@std@@QEAAXXZ 0000000180038f00 f i MWCustomLayerForMKLDNN.obj
 0001:00037f40       ?_Check_grow_by_1@?$_Tree@V?$_Tmap_traits@PEAVMWTensorBase@@V?$shared_ptr@Umemory@dnnl@@@std@@U?$less@PEAVMWTensorBase@@@3@V?$allocator@U?$pair@QEAVMWTensorBase@@V?$shared_ptr@Umemory@dnnl@@@std@@@std@@@3@$0A@@std@@@std@@IEAAXXZ 0000000180038f40 f i MWCustomLayerForMKLDNN.obj
 0001:00037f80       ?_Get_first@?$_Compressed_pair@U?$less@PEAVMWTensorBase@@@std@@V?$_Compressed_pair@V?$allocator@U?$_Tree_node@U?$pair@QEAVMWTensorBase@@V?$shared_ptr@Umemory@dnnl@@@std@@@std@@PEAX@std@@@std@@V?$_Tree_val@U?$_Tree_simple_types@U?$pair@QEAVMWTensorBase@@V?$shared_ptr@Umemory@dnnl@@@std@@@std@@@std@@@2@$00@2@$00@std@@QEBAAEBU?$less@PEAVMWTensorBase@@@2@XZ 0000000180038f80 f i MWCustomLayerForMKLDNN.obj
 0001:00037f90       ?_Get_first@?$_Compressed_pair@V?$allocator@U?$_Tree_node@U?$pair@QEAVMWTensorBase@@V?$shared_ptr@Umemory@dnnl@@@std@@@std@@PEAX@std@@@std@@V?$_Tree_val@U?$_Tree_simple_types@U?$pair@QEAVMWTensorBase@@V?$shared_ptr@Umemory@dnnl@@@std@@@std@@@std@@@2@$00@std@@QEAAAEAV?$allocator@U?$_Tree_node@U?$pair@QEAVMWTensorBase@@V?$shared_ptr@Umemory@dnnl@@@std@@@std@@PEAX@std@@@2@XZ 0000000180038f90 f i MWCustomLayerForMKLDNN.obj
 0001:00037fa0       ?_Get_first@?$_Compressed_pair@V?$allocator@U?$_Tree_node@U?$pair@QEAVMWTensorBase@@V?$shared_ptr@Umemory@dnnl@@@std@@@std@@PEAX@std@@@std@@V?$_Tree_val@U?$_Tree_simple_types@U?$pair@QEAVMWTensorBase@@V?$shared_ptr@Umemory@dnnl@@@std@@@std@@@std@@@2@$00@std@@QEBAAEBV?$allocator@U?$_Tree_node@U?$pair@QEAVMWTensorBase@@V?$shared_ptr@Umemory@dnnl@@@std@@@std@@PEAX@std@@@2@XZ 0000000180038fa0 f i MWCustomLayerForMKLDNN.obj
 0001:00037fb0       ?_Get_scary@?$_Tree@V?$_Tmap_traits@PEAVMWTensorBase@@V?$shared_ptr@Umemory@dnnl@@@std@@U?$less@PEAVMWTensorBase@@@3@V?$allocator@U?$pair@QEAVMWTensorBase@@V?$shared_ptr@Umemory@dnnl@@@std@@@std@@@3@$0A@@std@@@std@@IEAAPEAV?$_Tree_val@U?$_Tree_simple_types@U?$pair@QEAVMWTensorBase@@V?$shared_ptr@Umemory@dnnl@@@std@@@std@@@std@@@2@XZ 0000000180038fb0 f i MWCustomLayerForMKLDNN.obj
 0001:00037fd0       ?_Get_scary@?$_Tree@V?$_Tmap_traits@PEAVMWTensorBase@@V?$shared_ptr@Umemory@dnnl@@@std@@U?$less@PEAVMWTensorBase@@@3@V?$allocator@U?$pair@QEAVMWTensorBase@@V?$shared_ptr@Umemory@dnnl@@@std@@@std@@@3@$0A@@std@@@std@@IEBAPEBV?$_Tree_val@U?$_Tree_simple_types@U?$pair@QEAVMWTensorBase@@V?$shared_ptr@Umemory@dnnl@@@std@@@std@@@std@@@2@XZ 0000000180038fd0 f i MWCustomLayerForMKLDNN.obj
 0001:00037ff0       ?_Getal@?$_Tree@V?$_Tmap_traits@PEAVMWTensorBase@@V?$shared_ptr@Umemory@dnnl@@@std@@U?$less@PEAVMWTensorBase@@@3@V?$allocator@U?$pair@QEAVMWTensorBase@@V?$shared_ptr@Umemory@dnnl@@@std@@@std@@@3@$0A@@std@@@std@@IEAAAEAV?$allocator@U?$_Tree_node@U?$pair@QEAVMWTensorBase@@V?$shared_ptr@Umemory@dnnl@@@std@@@std@@PEAX@std@@@2@XZ 0000000180038ff0 f i MWCustomLayerForMKLDNN.obj
 0001:00038010       ?_Getal@?$_Tree@V?$_Tmap_traits@PEAVMWTensorBase@@V?$shared_ptr@Umemory@dnnl@@@std@@U?$less@PEAVMWTensorBase@@@3@V?$allocator@U?$pair@QEAVMWTensorBase@@V?$shared_ptr@Umemory@dnnl@@@std@@@std@@@3@$0A@@std@@@std@@IEBAAEBV?$allocator@U?$_Tree_node@U?$pair@QEAVMWTensorBase@@V?$shared_ptr@Umemory@dnnl@@@std@@@std@@PEAX@std@@@2@XZ 0000000180039010 f i MWCustomLayerForMKLDNN.obj
 0001:00038030       ?_Getcomp@?$_Tree@V?$_Tmap_traits@PEAVMWTensorBase@@V?$shared_ptr@Umemory@dnnl@@@std@@U?$less@PEAVMWTensorBase@@@3@V?$allocator@U?$pair@QEAVMWTensorBase@@V?$shared_ptr@Umemory@dnnl@@@std@@@std@@@3@$0A@@std@@@std@@IEBAAEBU?$less@PEAVMWTensorBase@@@2@XZ 0000000180039030 f i MWCustomLayerForMKLDNN.obj
 0001:00038050       ?_Insert_node@?$_Tree_val@U?$_Tree_simple_types@U?$pair@QEAVMWTensorBase@@V?$shared_ptr@Umemory@dnnl@@@std@@@std@@@std@@@std@@QEAAPEAU?$_Tree_node@U?$pair@QEAVMWTensorBase@@V?$shared_ptr@Umemory@dnnl@@@std@@@std@@PEAX@2@U?$_Tree_id@PEAU?$_Tree_node@U?$pair@QEAVMWTensorBase@@V?$shared_ptr@Umemory@dnnl@@@std@@@std@@PEAX@std@@@2@QEAU32@@Z 0000000180039050 f i MWCustomLayerForMKLDNN.obj
 0001:00038340       ?_Lrotate@?$_Tree_val@U?$_Tree_simple_types@U?$pair@QEAVMWTensorBase@@V?$shared_ptr@Umemory@dnnl@@@std@@@std@@@std@@@std@@QEAAXPEAU?$_Tree_node@U?$pair@QEAVMWTensorBase@@V?$shared_ptr@Umemory@dnnl@@@std@@@std@@PEAX@2@@Z 0000000180039340 f i MWCustomLayerForMKLDNN.obj
 0001:00038420       ?_Release@?$_Alloc_construct_ptr@V?$allocator@U?$_Tree_node@U?$pair@QEAVMWTensorBase@@V?$shared_ptr@Umemory@dnnl@@@std@@@std@@PEAX@std@@@std@@@std@@QEAAPEAU?$_Tree_node@U?$pair@QEAVMWTensorBase@@V?$shared_ptr@Umemory@dnnl@@@std@@@std@@PEAX@2@XZ 0000000180039420 f i MWCustomLayerForMKLDNN.obj
 0001:00038450       ?_Rrotate@?$_Tree_val@U?$_Tree_simple_types@U?$pair@QEAVMWTensorBase@@V?$shared_ptr@Umemory@dnnl@@@std@@@std@@@std@@@std@@QEAAXPEAU?$_Tree_node@U?$pair@QEAVMWTensorBase@@V?$shared_ptr@Umemory@dnnl@@@std@@@std@@PEAX@2@@Z 0000000180039450 f i MWCustomLayerForMKLDNN.obj
 0001:00038530       ?allocate@?$allocator@U?$_Tree_node@U?$pair@QEAVMWTensorBase@@V?$shared_ptr@Umemory@dnnl@@@std@@@std@@PEAX@std@@@std@@QEAAPEAU?$_Tree_node@U?$pair@QEAVMWTensorBase@@V?$shared_ptr@Umemory@dnnl@@@std@@@std@@PEAX@2@_K@Z 0000000180039530 f i MWCustomLayerForMKLDNN.obj
 0001:00038560       ?cleanupLayer@MWCustomLayerForMKLDNN@@MEAAXXZ 0000000180039560 f i MWCustomLayerForMKLDNN.obj
 0001:00038570       ?deallocate@?$_Default_allocator_traits@V?$allocator@U?$_Tree_node@U?$pair@QEAVMWTensorBase@@V?$shared_ptr@Umemory@dnnl@@@std@@@std@@PEAX@std@@@std@@@std@@SAXAEAV?$allocator@U?$_Tree_node@U?$pair@QEAVMWTensorBase@@V?$shared_ptr@Umemory@dnnl@@@std@@@std@@PEAX@std@@@2@QEAU?$_Tree_node@U?$pair@QEAVMWTensorBase@@V?$shared_ptr@Umemory@dnnl@@@std@@@std@@PEAX@2@_K@Z 0000000180039570 f i MWCustomLayerForMKLDNN.obj
 0001:000385a0       ?deallocate@?$allocator@U?$_Tree_node@U?$pair@QEAVMWTensorBase@@V?$shared_ptr@Umemory@dnnl@@@std@@@std@@PEAX@std@@@std@@QEAAXQEAU?$_Tree_node@U?$pair@QEAVMWTensorBase@@V?$shared_ptr@Umemory@dnnl@@@std@@@std@@PEAX@2@_K@Z 00000001800395a0 f i MWCustomLayerForMKLDNN.obj
 0001:000385d0       ?empty@?$_Tree@V?$_Tmap_traits@PEAVMWTensorBase@@V?$shared_ptr@Umemory@dnnl@@@std@@U?$less@PEAVMWTensorBase@@@3@V?$allocator@U?$pair@QEAVMWTensorBase@@V?$shared_ptr@Umemory@dnnl@@@std@@@std@@@3@$0A@@std@@@std@@QEBA_NXZ 00000001800395d0 f i MWCustomLayerForMKLDNN.obj
 0001:00038610       ?end@?$_Tree@V?$_Tmap_traits@PEAVMWTensorBase@@V?$shared_ptr@Umemory@dnnl@@@std@@U?$less@PEAVMWTensorBase@@@3@V?$allocator@U?$pair@QEAVMWTensorBase@@V?$shared_ptr@Umemory@dnnl@@@std@@@std@@@3@$0A@@std@@@std@@QEAA?AV?$_Tree_iterator@V?$_Tree_val@U?$_Tree_simple_types@U?$pair@QEAVMWTensorBase@@V?$shared_ptr@Umemory@dnnl@@@std@@@std@@@std@@@std@@@2@XZ 0000000180039610 f i MWCustomLayerForMKLDNN.obj
 0001:00038650       ?execute@reorder@dnnl@@QEBAXAEBUstream@2@AEAUmemory@2@1@Z 0000000180039650 f i MWCustomLayerForMKLDNN.obj
 0001:00038740       ?find@?$_Tree@V?$_Tmap_traits@PEAVMWTensorBase@@V?$shared_ptr@Umemory@dnnl@@@std@@U?$less@PEAVMWTensorBase@@@3@V?$allocator@U?$pair@QEAVMWTensorBase@@V?$shared_ptr@Umemory@dnnl@@@std@@@std@@@3@$0A@@std@@@std@@QEAA?AV?$_Tree_iterator@V?$_Tree_val@U?$_Tree_simple_types@U?$pair@QEAVMWTensorBase@@V?$shared_ptr@Umemory@dnnl@@@std@@@std@@@std@@@std@@@2@AEBQEAVMWTensorBase@@@Z 0000000180039740 f i MWCustomLayerForMKLDNN.obj
 0001:00038790       ?max_size@?$_Default_allocator_traits@V?$allocator@U?$_Tree_node@U?$pair@QEAVMWTensorBase@@V?$shared_ptr@Umemory@dnnl@@@std@@@std@@PEAX@std@@@std@@@std@@SA_KAEBV?$allocator@U?$_Tree_node@U?$pair@QEAVMWTensorBase@@V?$shared_ptr@Umemory@dnnl@@@std@@@std@@PEAX@std@@@2@@Z 0000000180039790 f i MWCustomLayerForMKLDNN.obj
 0001:000387a0       ?max_size@?$_Tree@V?$_Tmap_traits@PEAVMWTensorBase@@V?$shared_ptr@Umemory@dnnl@@@std@@U?$less@PEAVMWTensorBase@@@3@V?$allocator@U?$pair@QEAVMWTensorBase@@V?$shared_ptr@Umemory@dnnl@@@std@@@std@@@3@$0A@@std@@@std@@QEBA_KXZ 00000001800397a0 f i MWCustomLayerForMKLDNN.obj
 0001:000387f0       ?pointer_to@?$pointer_traits@PEAU?$pair@QEAVMWTensorBase@@V?$shared_ptr@Umemory@dnnl@@@std@@@std@@@std@@SAPEAU?$pair@QEAVMWTensorBase@@V?$shared_ptr@Umemory@dnnl@@@std@@@2@AEAU32@@Z 00000001800397f0 f i MWCustomLayerForMKLDNN.obj
 0001:00038810       ?size@?$_Tree@V?$_Tmap_traits@PEAVMWTensorBase@@V?$shared_ptr@Umemory@dnnl@@@std@@U?$less@PEAVMWTensorBase@@@3@V?$allocator@U?$pair@QEAVMWTensorBase@@V?$shared_ptr@Umemory@dnnl@@@std@@@std@@@3@$0A@@std@@@std@@QEBA_KXZ 0000000180039810 f i MWCustomLayerForMKLDNN.obj
 0001:00038830       ?ros_line_follower_all_initializer@@YAXXZ 0000000180039830 f   ros_line_follower_all_sfun.obj
 0001:00038840       ?ros_line_follower_all_terminator@@YAXXZ 0000000180039840 f   ros_line_follower_all_sfun.obj
 0001:00038850       ?load_ros_line_follower_all_optimization_info@@YAPEAUmxArray_tag@@EEE@Z 0000000180039850 f   ros_line_follower_all_sfun.obj
 0001:00038900       ?unload_ros_line_follower_all_optimization_info@@YAXXZ 0000000180039900 f   ros_line_follower_all_sfun.obj
 0001:00038930       ?sf_ros_line_follower_all_method_dispatcher@@YAIPEAUSimStruct_tag@@IPEBDHPEAX@Z 0000000180039930 f   ros_line_follower_all_sfun.obj
 0001:00038980       ?sf_ros_line_follower_all_process_check_sum_call@@YAIHQEAPEAUmxArray_tag@@HQEAPEBU1@@Z 0000000180039980 f   ros_line_follower_all_sfun.obj
 0001:00038e70       ?sf_ros_line_follower_all_get_eml_resolved_functions_info@@YAIHQEAPEAUmxArray_tag@@HQEAPEBU1@@Z 0000000180039e70 f   ros_line_follower_all_sfun.obj
 0001:00039050       ?sf_ros_line_follower_all_third_party_uses_info@@YAIHQEAPEAUmxArray_tag@@HQEAPEBU1@@Z 000000018003a050 f   ros_line_follower_all_sfun.obj
 0001:00039220       ?sf_ros_line_follower_all_jit_fallback_info@@YAIHQEAPEAUmxArray_tag@@HQEAPEBU1@@Z 000000018003a220 f   ros_line_follower_all_sfun.obj
 0001:000393f0       ?sf_ros_line_follower_all_get_post_codegen_info@@YAIHQEAPEAUmxArray_tag@@HQEAPEBU1@@Z 000000018003a3f0 f   ros_line_follower_all_sfun.obj
 0001:000395d0       ?sf_ros_line_follower_all_updateBuildInfo_args_info@@YAIHQEAPEAUmxArray_tag@@HQEAPEBU1@@Z 000000018003a5d0 f   ros_line_follower_all_sfun.obj
 0001:000397a0       ?ros_line_follower_all_register_exported_symbols@@YAXPEAUSimStruct_tag@@@Z 000000018003a7a0 f   ros_line_follower_all_sfun.obj
 0001:000397b0       ?allocate@c3_mynet_new0_ros_line_follower_all0@@AEAAXXZ 000000018003a7b0 f   c3_ros_line_follower_all.obj
 0001:00039870       ?postsetup@c3_mynet_new0_ros_line_follower_all0@@AEAAXXZ 000000018003a870 f   c3_ros_line_follower_all.obj
 0001:000398a0       ??0c3_mynet_new0_ros_line_follower_all0@@QEAA@XZ 000000018003a8a0 f   c3_ros_line_follower_all.obj
 0001:0003adc0       ?deallocate@c3_mynet_new0_ros_line_follower_all0@@AEAAXXZ 000000018003bdc0 f   c3_ros_line_follower_all.obj
 0001:0003ae20       ?setSize@c3_mynet_new0_ros_line_follower_all0@@QEAAXXZ 000000018003be20 f   c3_ros_line_follower_all.obj
 0001:0003ae90       ?resetState@c3_mynet_new0_ros_line_follower_all0@@QEAAXXZ 000000018003be90 f   c3_ros_line_follower_all.obj
 0001:0003aea0       ?setup@c3_mynet_new0_ros_line_follower_all0@@QEAAXXZ 000000018003bea0 f   c3_ros_line_follower_all.obj
 0001:0003c5e0       ?predict@c3_mynet_new0_ros_line_follower_all0@@QEAAXPEAUSFc3_ros_line_follower_allInstanceStruct@@@Z 000000018003d5e0 f   c3_ros_line_follower_all.obj
 0001:0003c640       ?cleanup@c3_mynet_new0_ros_line_follower_all0@@QEAAXXZ 000000018003d640 f   c3_ros_line_follower_all.obj
 0001:0003c6c0       ?getLayerOutput@c3_mynet_new0_ros_line_follower_all0@@QEAAPEAMHH@Z 000000018003d6c0 f   c3_ros_line_follower_all.obj
 0001:0003c710       ?getLayerOutputSize@c3_mynet_new0_ros_line_follower_all0@@QEAAHHH@Z 000000018003d710 f   c3_ros_line_follower_all.obj
 0001:0003c760       ?getInputDataPointer@c3_mynet_new0_ros_line_follower_all0@@QEAAPEAMH@Z 000000018003d760 f   c3_ros_line_follower_all.obj
 0001:0003c790       ?getInputDataPointer@c3_mynet_new0_ros_line_follower_all0@@QEAAPEAMXZ 000000018003d790 f   c3_ros_line_follower_all.obj
 0001:0003c7c0       ?getOutputDataPointer@c3_mynet_new0_ros_line_follower_all0@@QEAAPEAMH@Z 000000018003d7c0 f   c3_ros_line_follower_all.obj
 0001:0003c7f0       ?getOutputDataPointer@c3_mynet_new0_ros_line_follower_all0@@QEAAPEAMXZ 000000018003d7f0 f   c3_ros_line_follower_all.obj
 0001:0003c820       ?getBatchSize@c3_mynet_new0_ros_line_follower_all0@@QEAAHXZ 000000018003d820 f   c3_ros_line_follower_all.obj
 0001:0003c850       ??1c3_mynet_new0_ros_line_follower_all0@@QEAA@XZ 000000018003d850 f   c3_ros_line_follower_all.obj
 0001:0003c960       ?sf_c3_ros_line_follower_all_get_eml_resolved_functions_info@@YAPEBUmxArray_tag@@XZ 000000018003d960 f   c3_ros_line_follower_all.obj
 0001:0003cc80       ?sf_c3_ros_line_follower_all_get_check_sum@@YAXQEAPEAUmxArray_tag@@@Z 000000018003dc80 f   c3_ros_line_follower_all.obj
 0001:0003cd50       ?c3_ros_line_follower_all_method_dispatcher@@YAXPEAUSimStruct_tag@@HPEAX@Z 000000018003dd50 f   c3_ros_line_follower_all.obj
 0001:0003e2d0       ?sf_c3_ros_line_follower_all_third_party_uses_info@@YAPEAUmxArray_tag@@XZ 000000018003f2d0 f   c3_ros_line_follower_all.obj
 0001:0003e320       ?sf_c3_ros_line_follower_all_jit_fallback_info@@YAPEAUmxArray_tag@@XZ 000000018003f320 f   c3_ros_line_follower_all.obj
 0001:0003e4b0       ?sf_c3_ros_line_follower_all_updateBuildInfo_args_info@@YAPEAUmxArray_tag@@XZ 000000018003f4b0 f   c3_ros_line_follower_all.obj
 0001:0003e860       ?sf_c3_ros_line_follower_all_get_post_codegen_info@@YAPEBDXZ 000000018003f860 f   c3_ros_line_follower_all.obj
 0001:0003ee70       ??$?0$$V@?$_Compressed_pair@U?$default_delete@Uengine@dnnl@@@std@@PEAUengine@dnnl@@$00@std@@QEAA@U_Zero_then_variadic_args_t@1@@Z 000000018003fe70 f i c3_ros_line_follower_all.obj
 0001:0003ee90       ??$?0$$V@?$_Compressed_pair@V?$allocator@PEAM@std@@V?$_Vector_val@U?$_Simple_types@PEAM@std@@@2@$00@std@@QEAA@U_Zero_then_variadic_args_t@1@@Z 000000018003fe90 f i c3_ros_line_follower_all.obj
 0001:0003eec0       ??$?0AEBH$$Z$$V@?$pair@$$CBHH@std@@QEAA@Upiecewise_construct_t@1@V?$tuple@AEBH@1@V?$tuple@$$V@1@@Z 000000018003fec0 f i c3_ros_line_follower_all.obj
 0001:0003ef30       ??$?0AEBQEAU?$_Tree_node@U?$pair@$$CBHH@std@@PEAX@std@@_N$0A@@?$pair@PEAU?$_Tree_node@U?$pair@$$CBHH@std@@PEAX@std@@_N@std@@QEAA@AEBQEAU?$_Tree_node@U?$pair@$$CBHH@std@@PEAX@1@$$QEA_N@Z 000000018003ff30 f i c3_ros_line_follower_all.obj
 0001:0003ef80       ??$?0AEBUpiecewise_construct_t@std@@V?$tuple@AEBH@1@V?$tuple@$$V@1@@?$_Tree_temp_node@V?$allocator@U?$_Tree_node@U?$pair@$$CBHH@std@@PEAX@std@@@std@@@std@@QEAA@AEAV?$allocator@U?$_Tree_node@U?$pair@$$CBHH@std@@PEAX@std@@@1@PEAU?$_Tree_node@U?$pair@$$CBHH@std@@PEAX@1@AEBUpiecewise_construct_t@1@$$QEAV?$tuple@AEBH@1@$$QEAV?$tuple@$$V@1@@Z 000000018003ff80 f i c3_ros_line_follower_all.obj
 0001:0003f090       ??$?0PEAU?$_Tree_node@U?$pair@$$CBHH@std@@PEAX@std@@_N$0A@@?$pair@PEAU?$_Tree_node@U?$pair@$$CBHH@std@@PEAX@std@@_N@std@@QEAA@$$QEAPEAU?$_Tree_node@U?$pair@$$CBHH@std@@PEAX@1@$$QEA_N@Z 0000000180040090 f i c3_ros_line_follower_all.obj
 0001:0003f0e0       ??$?0U?$default_delete@Uengine@dnnl@@@std@@$0A@@?$unique_ptr@Uengine@dnnl@@U?$default_delete@Uengine@dnnl@@@std@@@std@@QEAA@XZ 00000001800400e0 f i c3_ros_line_follower_all.obj
 0001:0003f110       ??$?0V?$tuple@AEBH@std@@V?$tuple@$$V@1@$0A@$$Z$S@?$pair@$$CBHH@std@@QEAA@AEAV?$tuple@AEBH@1@AEAV?$tuple@$$V@1@U?$integer_sequence@_K$0A@@1@U?$integer_sequence@_K$S@1@@Z 0000000180040110 f i c3_ros_line_follower_all.obj
 0001:0003f160       ??$_Construct_in_place@PEAU?$_Tree_node@U?$pair@$$CBHH@std@@PEAX@std@@AEAPEAU12@@std@@YAXAEAPEAU?$_Tree_node@U?$pair@$$CBHH@std@@PEAX@0@0@Z 0000000180040160 f i c3_ros_line_follower_all.obj
 0001:0003f1b0       ??$_Try_emplace@AEBH$$V@?$map@HHU?$less@H@std@@V?$allocator@U?$pair@$$CBHH@std@@@2@@std@@AEAA?AU?$pair@PEAU?$_Tree_node@U?$pair@$$CBHH@std@@PEAX@std@@_N@1@AEBH@Z 00000001800401b0 f i c3_ros_line_follower_all.obj
 0001:0003f350       ??$_Voidify_iter@PEAU?$pair@$$CBHH@std@@@std@@YAPEAXPEAU?$pair@$$CBHH@0@@Z 0000000180040350 f i c3_ros_line_follower_all.obj
 0001:0003f360       ??$construct@U?$pair@$$CBHH@std@@AEBUpiecewise_construct_t@2@V?$tuple@AEBH@2@V?$tuple@$$V@2@@?$_Default_allocator_traits@V?$allocator@U?$_Tree_node@U?$pair@$$CBHH@std@@PEAX@std@@@std@@@std@@SAXAEAV?$allocator@U?$_Tree_node@U?$pair@$$CBHH@std@@PEAX@std@@@1@QEAU?$pair@$$CBHH@1@AEBUpiecewise_construct_t@1@$$QEAV?$tuple@AEBH@1@$$QEAV?$tuple@$$V@1@@Z 0000000180040360 f i c3_ros_line_follower_all.obj
 0001:0003f420       ??$exchange@PEAU?$_Tree_node@U?$pair@$$CBHH@std@@PEAX@std@@$$T@std@@YAPEAU?$_Tree_node@U?$pair@$$CBHH@std@@PEAX@0@AEAPEAU10@$$QEA$$T@Z 0000000180040420 f i c3_ros_line_follower_all.obj
 0001:0003f460       ??$forward@AEAPEAU?$_Tree_node@U?$pair@$$CBHH@std@@PEAX@std@@@std@@YAAEAPEAU?$_Tree_node@U?$pair@$$CBHH@std@@PEAX@0@AEAPEAU10@@Z 0000000180040460 f i c3_ros_line_follower_all.obj
 0001:0003f470       ??$forward@PEAU?$_Tree_node@U?$pair@$$CBHH@std@@PEAX@std@@@std@@YA$$QEAPEAU?$_Tree_node@U?$pair@$$CBHH@std@@PEAX@0@AEAPEAU10@@Z 0000000180040470 f i c3_ros_line_follower_all.obj
 0001:0003f480       ??0?$MWTensor@M@@QEAA@XZ   0000000180040480 f i c3_ros_line_follower_all.obj
 0001:0003f4c0       ??0?$_Alloc_construct_ptr@V?$allocator@U?$_Tree_node@U?$pair@$$CBHH@std@@PEAX@std@@@std@@@std@@QEAA@AEAV?$allocator@U?$_Tree_node@U?$pair@$$CBHH@std@@PEAX@std@@@1@@Z 00000001800404c0 f i c3_ros_line_follower_all.obj
 0001:0003f4f0       ??0?$_Tree_temp_node_alloc@V?$allocator@U?$_Tree_node@U?$pair@$$CBHH@std@@PEAX@std@@@std@@@std@@QEAA@AEAV?$allocator@U?$_Tree_node@U?$pair@$$CBHH@std@@PEAX@std@@@1@@Z 00000001800404f0 f i c3_ros_line_follower_all.obj
 0001:0003f530       ??0?$_Vector_val@U?$_Simple_types@PEAM@std@@@std@@QEAA@XZ 0000000180040530 f i c3_ros_line_follower_all.obj
 0001:0003f570       ??0?$allocator@PEAM@std@@QEAA@XZ 0000000180040570 f i c3_ros_line_follower_all.obj
 0001:0003f580       ??0?$vector@PEAMV?$allocator@PEAM@std@@@std@@QEAA@XZ 0000000180040580 f i c3_ros_line_follower_all.obj
 0001:0003f5c0       ??0MWAvgPoolingLayer@@QEAA@XZ 00000001800405c0 f i c3_ros_line_follower_all.obj
 0001:0003f600       ??0MWConvLayer@@QEAA@XZ    0000000180040600 f i c3_ros_line_follower_all.obj
 0001:0003f630       ??0MWFCLayer@@QEAA@XZ      0000000180040630 f i c3_ros_line_follower_all.obj
 0001:0003f660       ??0MWInputLayer@@QEAA@XZ   0000000180040660 f i c3_ros_line_follower_all.obj
 0001:0003f690       ??0MWMaxPoolingLayer@@QEAA@XZ 0000000180040690 f i c3_ros_line_follower_all.obj
 0001:0003f6d0       ??0MWOutputLayer@@QEAA@XZ  00000001800406d0 f i c3_ros_line_follower_all.obj
 0001:0003f700       ??0MWTargetNetworkImpl@@QEAA@XZ 0000000180040700 f i c3_ros_line_follower_all.obj
 0001:0003f770       ??0MWTensorBase@@QEAA@XZ   0000000180040770 f i c3_ros_line_follower_all.obj
 0001:0003f8b0       ??0SFc3_ros_line_follower_allInstanceStruct@@QEAA@XZ 00000001800408b0 f i c3_ros_line_follower_all.obj
 0001:0003f8e0       ??1?$_Alloc_construct_ptr@V?$allocator@U?$_Tree_node@U?$pair@$$CBHH@std@@PEAX@std@@@std@@@std@@QEAA@XZ 00000001800408e0 f i c3_ros_line_follower_all.obj
 0001:0003f920       ??1?$_Tree_temp_node@V?$allocator@U?$_Tree_node@U?$pair@$$CBHH@std@@PEAX@std@@@std@@@std@@QEAA@XZ 0000000180040920 f i c3_ros_line_follower_all.obj
 0001:0003f9b0       ??1?$_Tree_temp_node_alloc@V?$allocator@U?$_Tree_node@U?$pair@$$CBHH@std@@PEAX@std@@@std@@@std@@QEAA@XZ 00000001800409b0 f i c3_ros_line_follower_all.obj
 0001:0003f9d0       ??1?$vector@PEAMV?$allocator@PEAM@std@@@std@@QEAA@XZ 00000001800409d0 f i c3_ros_line_follower_all.obj
 0001:0003f9f0       ??1MWAvgPoolingLayer@@UEAA@XZ 00000001800409f0 f i c3_ros_line_follower_all.obj
 0001:0003fa20       ??1MWConvLayer@@UEAA@XZ    0000000180040a20 f i c3_ros_line_follower_all.obj
 0001:0003fa50       ??1MWFCLayer@@UEAA@XZ      0000000180040a50 f i c3_ros_line_follower_all.obj
 0001:0003fa80       ??1MWInputLayer@@UEAA@XZ   0000000180040a80 f i c3_ros_line_follower_all.obj
 0001:0003fab0       ??1MWMaxPoolingLayer@@UEAA@XZ 0000000180040ab0 f i c3_ros_line_follower_all.obj
 0001:0003fae0       ??1MWOutputLayer@@UEAA@XZ  0000000180040ae0 f i c3_ros_line_follower_all.obj
 0001:0003fb10       ??1MWTargetNetworkImpl@@QEAA@XZ 0000000180040b10 f i c3_ros_line_follower_all.obj
 0001:0003fb70       ??1SFc3_ros_line_follower_allInstanceStruct@@QEAA@XZ 0000000180040b70 f i c3_ros_line_follower_all.obj
 0001:0003fba0       ??A?$map@HHU?$less@H@std@@V?$allocator@U?$pair@$$CBHH@std@@@2@@std@@QEAAAEAHAEBH@Z 0000000180040ba0 f i c3_ros_line_follower_all.obj
 0001:0003fbd0       ??_GMWAvgPoolingLayer@@UEAAPEAXI@Z 0000000180040bd0 f i c3_ros_line_follower_all.obj
 0001:0003fbd0       ??_EMWAvgPoolingLayer@@UEAAPEAXI@Z 0000000180040bd0 f i c3_ros_line_follower_all.obj
 0001:0003fc10       ??_EMWConvLayer@@UEAAPEAXI@Z 0000000180040c10 f i c3_ros_line_follower_all.obj
 0001:0003fc10       ??_GMWConvLayer@@UEAAPEAXI@Z 0000000180040c10 f i c3_ros_line_follower_all.obj
 0001:0003fc50       ??_GMWFCLayer@@UEAAPEAXI@Z 0000000180040c50 f i c3_ros_line_follower_all.obj
 0001:0003fc50       ??_EMWFCLayer@@UEAAPEAXI@Z 0000000180040c50 f i c3_ros_line_follower_all.obj
 0001:0003fc90       ??_GMWInputLayer@@UEAAPEAXI@Z 0000000180040c90 f i c3_ros_line_follower_all.obj
 0001:0003fc90       ??_EMWInputLayer@@UEAAPEAXI@Z 0000000180040c90 f i c3_ros_line_follower_all.obj
 0001:0003fcd0       ??_GMWMaxPoolingLayer@@UEAAPEAXI@Z 0000000180040cd0 f i c3_ros_line_follower_all.obj
 0001:0003fcd0       ??_EMWMaxPoolingLayer@@UEAAPEAXI@Z 0000000180040cd0 f i c3_ros_line_follower_all.obj
 0001:0003fd10       ??_EMWOutputLayer@@UEAAPEAXI@Z 0000000180040d10 f i c3_ros_line_follower_all.obj
 0001:0003fd10       ??_GMWOutputLayer@@UEAAPEAXI@Z 0000000180040d10 f i c3_ros_line_follower_all.obj
 0001:0003fd50       ??_GMWTargetNetworkImpl@@QEAAPEAXI@Z 0000000180040d50 f i c3_ros_line_follower_all.obj
 0001:0003fd90       ??_GSFc3_ros_line_follower_allInstanceStruct@@QEAAPEAXI@Z 0000000180040d90 f i c3_ros_line_follower_all.obj
 0001:0003fdd0       ?_Allocate@?$_Alloc_construct_ptr@V?$allocator@U?$_Tree_node@U?$pair@$$CBHH@std@@PEAX@std@@@std@@@std@@QEAAXXZ 0000000180040dd0 f i c3_ros_line_follower_all.obj
 0001:0003fe10       ?_Check_grow_by_1@?$_Tree@V?$_Tmap_traits@HHU?$less@H@std@@V?$allocator@U?$pair@$$CBHH@std@@@2@$0A@@std@@@std@@IEAAXXZ 0000000180040e10 f i c3_ros_line_follower_all.obj
 0001:0003fe50       ?_Get_first@?$_Compressed_pair@V?$allocator@U?$_Tree_node@U?$pair@$$CBHH@std@@PEAX@std@@@std@@V?$_Tree_val@U?$_Tree_simple_types@U?$pair@$$CBHH@std@@@std@@@2@$00@std@@QEBAAEBV?$allocator@U?$_Tree_node@U?$pair@$$CBHH@std@@PEAX@std@@@2@XZ 0000000180040e50 f i c3_ros_line_follower_all.obj
 0001:0003fe60       ?_Getal@?$_Tree@V?$_Tmap_traits@HHU?$less@H@std@@V?$allocator@U?$pair@$$CBHH@std@@@2@$0A@@std@@@std@@IEBAAEBV?$allocator@U?$_Tree_node@U?$pair@$$CBHH@std@@PEAX@std@@@2@XZ 0000000180040e60 f i c3_ros_line_follower_all.obj
 0001:0003fe80       ?_Insert_node@?$_Tree_val@U?$_Tree_simple_types@U?$pair@$$CBHH@std@@@std@@@std@@QEAAPEAU?$_Tree_node@U?$pair@$$CBHH@std@@PEAX@2@U?$_Tree_id@PEAU?$_Tree_node@U?$pair@$$CBHH@std@@PEAX@std@@@2@QEAU32@@Z 0000000180040e80 f i c3_ros_line_follower_all.obj
 0001:00040170       ?_Lrotate@?$_Tree_val@U?$_Tree_simple_types@U?$pair@$$CBHH@std@@@std@@@std@@QEAAXPEAU?$_Tree_node@U?$pair@$$CBHH@std@@PEAX@2@@Z 0000000180041170 f i c3_ros_line_follower_all.obj
 0001:00040250       ?_Release@?$_Alloc_construct_ptr@V?$allocator@U?$_Tree_node@U?$pair@$$CBHH@std@@PEAX@std@@@std@@@std@@QEAAPEAU?$_Tree_node@U?$pair@$$CBHH@std@@PEAX@2@XZ 0000000180041250 f i c3_ros_line_follower_all.obj
 0001:00040280       ?_Rrotate@?$_Tree_val@U?$_Tree_simple_types@U?$pair@$$CBHH@std@@@std@@@std@@QEAAXPEAU?$_Tree_node@U?$pair@$$CBHH@std@@PEAX@2@@Z 0000000180041280 f i c3_ros_line_follower_all.obj
 0001:00040360       ?_Tidy@?$vector@PEAMV?$allocator@PEAM@std@@@std@@AEAAXXZ 0000000180041360 f i c3_ros_line_follower_all.obj
 0001:00040430       ?deallocate@?$allocator@U?$_Tree_node@U?$pair@$$CBHH@std@@PEAX@std@@@std@@QEAAXQEAU?$_Tree_node@U?$pair@$$CBHH@std@@PEAX@2@_K@Z 0000000180041430 f i c3_ros_line_follower_all.obj
 0001:00040460       ?max_size@?$_Default_allocator_traits@V?$allocator@U?$_Tree_node@U?$pair@$$CBHH@std@@PEAX@std@@@std@@@std@@SA_KAEBV?$allocator@U?$_Tree_node@U?$pair@$$CBHH@std@@PEAX@std@@@2@@Z 0000000180041460 f i c3_ros_line_follower_all.obj
 0001:00040470       ?max_size@?$_Tree@V?$_Tmap_traits@HHU?$less@H@std@@V?$allocator@U?$pair@$$CBHH@std@@@2@$0A@@std@@@std@@QEBA_KXZ 0000000180041470 f i c3_ros_line_follower_all.obj
 0001:000404c0       ?postSetup@MWTargetNetworkImpl@@QEAAXXZ 00000001800414c0 f i c3_ros_line_follower_all.obj
 0001:000404d0       ?setInPlaceIndex@MWCNNLayer@@QEAAXHH@Z 00000001800414d0 f i c3_ros_line_follower_all.obj
 0001:00040570       mexFunction                0000000180041570 f   ros_line_follower_all_sfun_registry.obj
 0001:00042d50       _ssSetInputPortDirectFeedThroughFcn 0000000180043d50 f   ros_line_follower_all_sfun_registry.obj
 0001:00042ed0       _ssSetRWorkValueFcn        0000000180043ed0 f   ros_line_follower_all_sfun_registry.obj
 0001:00042f50       _ssGetRWorkValueFcn        0000000180043f50 f   ros_line_follower_all_sfun_registry.obj
 0001:00042fc0       _ssSetIWorkValueFcn        0000000180043fc0 f   ros_line_follower_all_sfun_registry.obj
 0001:00043040       _ssGetIWorkValueFcn        0000000180044040 f   ros_line_follower_all_sfun_registry.obj
 0001:000430b0       _ssSetPWorkValueFcn        00000001800440b0 f   ros_line_follower_all_sfun_registry.obj
 0001:00043130       _ssGetPWorkValueFcn        0000000180044130 f   ros_line_follower_all_sfun_registry.obj
 0001:000431a0       _ssGetInputPortSignalFcn   00000001800441a0 f   ros_line_follower_all_sfun_registry.obj
 0001:00043550       _ssGetInputPortBufferDstPortFcn 0000000180044550 f   ros_line_follower_all_sfun_registry.obj
 0001:000435d0       _ssGetInputPortSignalPtrsFcn 00000001800445d0 f   ros_line_follower_all_sfun_registry.obj
 0001:00043980       ssGetParameterTuningCompliance 0000000180044980 f   ros_line_follower_all_sfun_registry.obj
 0001:000439f0       ssGetDTypeIdFromMxArray    00000001800449f0 f   ros_line_follower_all_sfun_registry.obj
 0001:00043b10       ssWriteRTWMx2dMatParam     0000000180044b10 f   ros_line_follower_all_sfun_registry.obj
 0001:00043ba0       ssWriteRTWMxVectParam      0000000180044ba0 f   ros_line_follower_all_sfun_registry.obj
 0001:00043c20       ssWriteRTWParameters       0000000180044c20 f   ros_line_follower_all_sfun_registry.obj
 0001:00044720       ssWriteRTWParamSettings    0000000180045720 f   ros_line_follower_all_sfun_registry.obj
 0001:00045460       ssWriteRTWStr              0000000180046460 f   ros_line_follower_all_sfun_registry.obj
 0001:000454c0       ssWriteRTWWorkVect         00000001800464c0 f   ros_line_follower_all_sfun_registry.obj
 0001:00045ab0       ssWarning                  0000000180046ab0 f   ros_line_follower_all_sfun_registry.obj
 0001:00045ba0       ssWriteRTWNameValuePair    0000000180046ba0 f   ros_line_follower_all_sfun_registry.obj
 0001:00046320       _ssSetInputPortMatrixDimensions 0000000180047320 f   ros_line_follower_all_sfun_registry.obj
 0001:00046440       _ssSetOutputPortMatrixDimensions 0000000180047440 f   ros_line_follower_all_sfun_registry.obj
 0001:00046560       _ssSetInputPortVectorDimension 0000000180047560 f   ros_line_follower_all_sfun_registry.obj
 0001:00046610       _ssSetOutputPortVectorDimension 0000000180047610 f   ros_line_follower_all_sfun_registry.obj
 0001:000466c0       ssIsRunTimeParamTunable    00000001800476c0 f   ros_line_follower_all_sfun_registry.obj
 0001:00046730       ssGetSFuncBlockHandle      0000000180047730 f   ros_line_follower_all_sfun_registry.obj
 0001:000467a0       _ssGetCurrentInputPortWidth 00000001800477a0 f   ros_line_follower_all_sfun_registry.obj
 0001:000468e0       _ssGetCurrentOutputPortWidth 00000001800478e0 f   ros_line_follower_all_sfun_registry.obj
 0001:00046a20       _ssGetCallSystemNumFcnCallDestinations 0000000180047a20 f   ros_line_follower_all_sfun_registry.obj
 0001:00046a90       ssGetIsZeroCrossControlDisabled 0000000180047a90 f   ros_line_follower_all_sfun_registry.obj
 0001:00046b00       ssSetIsInputPortUsedForContZcSignal 0000000180047b00 f   ros_line_follower_all_sfun_registry.obj
 0001:00046b70       ssSetZcSignalIsZcElementDisc 0000000180047b70 f   ros_line_follower_all_sfun_registry.obj
 0001:00046c20       ssSetZcSignalName          0000000180047c20 f   ros_line_follower_all_sfun_registry.obj
 0001:00046c90       ssSetZcSignalWidth         0000000180047c90 f   ros_line_follower_all_sfun_registry.obj
 0001:00046d00       ssSetZcSignalZcEventType   0000000180047d00 f   ros_line_follower_all_sfun_registry.obj
 0001:00046d70       ssSetZcSignalType          0000000180047d70 f   ros_line_follower_all_sfun_registry.obj
 0001:00046de0       ssSetZcSignalZcTol         0000000180047de0 f   ros_line_follower_all_sfun_registry.obj
 0001:00046e50       ssSetZcSignalNeedsEventNotification 0000000180047e50 f   ros_line_follower_all_sfun_registry.obj
 0001:00046ec0       ssCreateAndAddZcSignalInfo 0000000180047ec0 f   ros_line_follower_all_sfun_registry.obj
 0001:00046f30       ssCloneAndAddZcSignalInfo  0000000180047f30 f   ros_line_follower_all_sfun_registry.obj
 0001:00046fa0       ssGetNumZcSignals          0000000180047fa0 f   ros_line_follower_all_sfun_registry.obj
 0001:00047010       ssGetZcSignalVector        0000000180048010 f   ros_line_follower_all_sfun_registry.obj
 0001:00047080       ssGetZcSignalName          0000000180048080 f   ros_line_follower_all_sfun_registry.obj
 0001:000470f0       ssGetZcSignalWidth         00000001800480f0 f   ros_line_follower_all_sfun_registry.obj
 0001:00047160       ssGetZcSignalZcEventType   0000000180048160 f   ros_line_follower_all_sfun_registry.obj
 0001:000471d0       ssGetZcSignalZcEvents      00000001800481d0 f   ros_line_follower_all_sfun_registry.obj
 0001:00047240       ssGetZcSignalType          0000000180048240 f   ros_line_follower_all_sfun_registry.obj
 0001:000472b0       ssGetZcSignalZcTol         00000001800482b0 f   ros_line_follower_all_sfun_registry.obj
 0001:00047330       ssGetZcSignalNeedsEventNotification 0000000180048330 f   ros_line_follower_all_sfun_registry.obj
 0001:000473a0       ssGetZcSignalIsZcElementDisc 00000001800483a0 f   ros_line_follower_all_sfun_registry.obj
 0001:00047440       ssGetIsInputPortElementContinuous 0000000180048440 f   ros_line_follower_all_sfun_registry.obj
 0001:000474e0       _ssGetAbsTol               00000001800484e0 f   ros_line_follower_all_sfun_registry.obj
 0001:00047550       _ssSetStateAbsTol          0000000180048550 f   ros_line_follower_all_sfun_registry.obj
 0001:00047630       _ssSetInputPortReusableFcn 0000000180048630 f   ros_line_follower_all_sfun_registry.obj
 0001:00047740       _ssSetOutputPortReusableFcn 0000000180048740 f   ros_line_follower_all_sfun_registry.obj
 0001:00047850       _ssSetSymbolicDimsSupport  0000000180048850 f   ros_line_follower_all_sfun_registry.obj
 0001:000478c0       _ssRegisterSymbolicDimsExpr 00000001800488c0 f   ros_line_follower_all_sfun_registry.obj
 0001:00047940       _ssRegisterSymbolicDims    0000000180048940 f   ros_line_follower_all_sfun_registry.obj
 0001:000479e0       _ssRegisterSymbolicDimsString 00000001800489e0 f   ros_line_follower_all_sfun_registry.obj
 0001:00047a60       _ssRegisterSymbolicDimsIntValue 0000000180048a60 f   ros_line_follower_all_sfun_registry.obj
 0001:00047ad0       _ssRegisterSymbolicDimsPlus 0000000180048ad0 f   ros_line_follower_all_sfun_registry.obj
 0001:00047b50       _ssRegisterSymbolicDimsMinus 0000000180048b50 f   ros_line_follower_all_sfun_registry.obj
 0001:00047bd0       _ssRegisterSymbolicDimsMultiply 0000000180048bd0 f   ros_line_follower_all_sfun_registry.obj
 0001:00047c50       _ssRegisterSymbolicDimsDivide 0000000180048c50 f   ros_line_follower_all_sfun_registry.obj
 0001:00047cd0       _ssGetNumSymbolicDims      0000000180048cd0 f   ros_line_follower_all_sfun_registry.obj
 0001:00047d40       _ssGetSymbolicDim          0000000180048d40 f   ros_line_follower_all_sfun_registry.obj
 0001:00047dc0       _ssSetInputPortSymbolicDimsId 0000000180048dc0 f   ros_line_follower_all_sfun_registry.obj
 0001:00047e30       _ssGetCompInputPortSymbolicDimsId 0000000180048e30 f   ros_line_follower_all_sfun_registry.obj
 0001:00047ea0       _ssSetCompInputPortSymbolicDimsId 0000000180048ea0 f   ros_line_follower_all_sfun_registry.obj
 0001:00047f10       _ssSetOutputPortSymbolicDimsId 0000000180048f10 f   ros_line_follower_all_sfun_registry.obj
 0001:00047f80       _ssGetCompOutputPortSymbolicDimsId 0000000180048f80 f   ros_line_follower_all_sfun_registry.obj
 0001:00047ff0       _ssSetCompOutputPortSymbolicDimsId 0000000180048ff0 f   ros_line_follower_all_sfun_registry.obj
 0001:00048060       _ssSetCompDWorkSymbolicDimsId 0000000180049060 f   ros_line_follower_all_sfun_registry.obj
 0001:000480d0       ?sf_process_check_sum_call@@YAIHQEAPEAUmxArray_tag@@HQEAPEBU1@@Z 00000001800490d0 f   ros_line_follower_all_sfun_registry.obj
 0001:00048120       ?sf_process_get_third_party_uses_info_call@@YAIHQEAPEAUmxArray_tag@@HQEAPEBU1@@Z 0000000180049120 f   ros_line_follower_all_sfun_registry.obj
 0001:00048350       ?sf_process_get_jit_fallback_info_call@@YAIHQEAPEAUmxArray_tag@@HQEAPEBU1@@Z 0000000180049350 f   ros_line_follower_all_sfun_registry.obj
 0001:00048580       ?sf_process_get_post_codegen_info_call@@YAIHQEAPEAUmxArray_tag@@HQEAPEBU1@@Z 0000000180049580 f   ros_line_follower_all_sfun_registry.obj
 0001:000487b0       ?sf_process_get_updateBuildInfo_args_info_call@@YAIHQEAPEAUmxArray_tag@@HQEAPEBU1@@Z 00000001800497b0 f   ros_line_follower_all_sfun_registry.obj
 0001:000489e0       ?sf_process_get_eml_resolved_functions_info_call@@YAIHQEAPEAUmxArray_tag@@HQEAPEBU1@@Z 00000001800499e0 f   ros_line_follower_all_sfun_registry.obj
 0001:00048c10       ?sf_mex_unlock_call@@YAIHQEAPEAUmxArray_tag@@HQEAPEBU1@@Z 0000000180049c10 f   ros_line_follower_all_sfun_registry.obj
 0001:00048e30       ?sf_machine_global_initializer_called@@YAIXZ 0000000180049e30 f   ros_line_follower_all_sfun_registry.obj
 0001:00048e60       sf_machine_global_method_dispatcher 0000000180049e60 f   ros_line_follower_all_sfun_registry.obj
 0001:00048ec0       sf_machine_global_terminator 0000000180049ec0 f   ros_line_follower_all_sfun_registry.obj
 0001:00048ef0       ?sf_register_machine_exported_symbols@@YAXPEAUSimStruct_tag@@@Z 0000000180049ef0 f   ros_line_follower_all_sfun_registry.obj
 0001:00048f10       callCustomFcn              0000000180049f10 f   ros_line_follower_all_sfun_registry.obj
 0001:00048f20       sf_machine_global_initializer 0000000180049f20 f   ros_line_follower_all_sfun_registry.obj
 0001:00048f90       ?mdlGetSimState@@YAPEAUmxArray_tag@@PEAUSimStruct_tag@@@Z 0000000180049f90 f   ros_line_follower_all_sfun_registry.obj
 0001:00048fd0       ?mdlSetSimState@@YAXPEAUSimStruct_tag@@PEBUmxArray_tag@@@Z 0000000180049fd0 f   ros_line_follower_all_sfun_registry.obj
 0001:00049920       ?ProcessMexSfunctionEveryCall@@YAIHQEAPEAUmxArray_tag@@HQEAPEBU1@@Z 000000018004a920 f   ros_line_follower_all_sfun_registry.obj
 0001:0004aae0       __local_stdio_printf_options 000000018004bae0 f i ros_line_follower_all_sfun_registry.obj
 0001:0004aaf0       _vsnprintf_l               000000018004baf0 f i ros_line_follower_all_sfun_registry.obj
 0001:0004ab70       _vsprintf_l                000000018004bb70 f i ros_line_follower_all_sfun_registry.obj
 0001:0004abc0       sprintf                    000000018004bbc0 f i ros_line_follower_all_sfun_registry.obj
 0001:0004ac10       mexfilerequiredapiversion  000000018004bc10 f   c_mexapi_version.obj
 0001:0004ac40       ?getBitfieldFromFloat@@YAIM@Z 000000018004bc40 f   half_type.obj
 0001:0004ac70       ?getFloatFromBitfield@@YAMI@Z 000000018004bc70 f   half_type.obj
 0001:0004aca0       ??0real16_T@@QEAA@M@Z      000000018004bca0 f   half_type.obj
 0001:0004aef0       ??0real16_T@@QEAA@N@Z      000000018004bef0 f   half_type.obj
 0001:0004b1e0       ??Breal16_T@@QEBAMXZ       000000018004c1e0 f   half_type.obj
 0001:0004b2a0       ??Breal16_T@@QEBANXZ       000000018004c2a0 f   half_type.obj
 0001:0004b2d0       ??Hreal16_T@@QEBA?AV0@V0@@Z 000000018004c2d0 f   half_type.obj
 0001:0004b330       ??Greal16_T@@QEBA?AV0@V0@@Z 000000018004c330 f   half_type.obj
 0001:0004b390       ??Dreal16_T@@QEBA?AV0@V0@@Z 000000018004c390 f   half_type.obj
 0001:0004b3f0       ??Kreal16_T@@QEBA?AV0@V0@@Z 000000018004c3f0 f   half_type.obj
 0001:0004b450       ??Hreal16_T@@QEBA?AV0@XZ   000000018004c450 f   half_type.obj
 0001:0004b480       ??Greal16_T@@QEBA?AV0@XZ   000000018004c480 f   half_type.obj
 0001:0004b4c0       ??Ereal16_T@@QEAAAEAV0@XZ  000000018004c4c0 f   half_type.obj
 0001:0004b510       ??Ereal16_T@@QEAA?AV0@H@Z  000000018004c510 f   half_type.obj
 0001:0004b580       ??Freal16_T@@QEAAAEAV0@XZ  000000018004c580 f   half_type.obj
 0001:0004b5d0       ??Freal16_T@@QEAA?AV0@H@Z  000000018004c5d0 f   half_type.obj
 0001:0004b640       ??8real16_T@@QEBAEV0@@Z    000000018004c640 f   half_type.obj
 0001:0004b6a0       ??9real16_T@@QEBAEV0@@Z    000000018004c6a0 f   half_type.obj
 0001:0004b700       ??Preal16_T@@QEBAEV0@@Z    000000018004c700 f   half_type.obj
 0001:0004b750       ??Oreal16_T@@QEBAEV0@@Z    000000018004c750 f   half_type.obj
 0001:0004b7a0       ??Nreal16_T@@QEBAEV0@@Z    000000018004c7a0 f   half_type.obj
 0001:0004b7f0       ??Mreal16_T@@QEBAEV0@@Z    000000018004c7f0 f   half_type.obj
 0001:0004b840       ??4real16_T@@QEAAAEAV0@AEBV0@@Z 000000018004c840 f   half_type.obj
 0001:0004b870       ??4real16_T@@QECAXAEDV0@@Z 000000018004c870 f   half_type.obj
 0001:0004b8a0       ??4real16_T@@QECAXAEBV0@@Z 000000018004c8a0 f   half_type.obj
 0001:0004b8d0       ??Yreal16_T@@QEAAAEAV0@V0@@Z 000000018004c8d0 f   half_type.obj
 0001:0004b930       ??Zreal16_T@@QEAAAEAV0@V0@@Z 000000018004c930 f   half_type.obj
 0001:0004b990       ??Xreal16_T@@QEAAAEAV0@V0@@Z 000000018004c990 f   half_type.obj
 0001:0004b9f0       ??_0real16_T@@QEAAAEAV0@V0@@Z 000000018004c9f0 f   half_type.obj
 0001:0004ba50       ?getBitfieldFromHalf@@YAGVreal16_T@@@Z 000000018004ca50 f   half_type.obj
 0001:0004ba70       ?getHalfFromBitfield@@YA?AVreal16_T@@G@Z 000000018004ca70 f   half_type.obj
 0001:0004bab0       ?halfToFloat@@YAMVreal16_T@@@Z 000000018004cab0 f   half_type.obj
 0001:0004bad0       ?halfToDouble@@YANVreal16_T@@@Z 000000018004cad0 f   half_type.obj
 0001:0004baf0       ?floatToHalf@@YA?AVreal16_T@@M@Z 000000018004caf0 f   half_type.obj
 0001:0004bb20       ?doubleToHalf@@YA?AVreal16_T@@N@Z 000000018004cb20 f   half_type.obj
 0001:0004bb50       ?getBitPattern@real16_T@@QEBAGXZ 000000018004cb50 f i half_type.obj
 0001:0004bb60       ?setBitPattern@real16_T@@QEAAXG@Z 000000018004cb60 f i half_type.obj
 0001:0004bb78       dnnl_primitive_desc_iterator_create 000000018004cb78 f   mwdnnl:mwdnnl.dll
 0001:0004bb7e       dnnl_primitive_desc_iterator_fetch 000000018004cb7e f   mwdnnl:mwdnnl.dll
 0001:0004bb84       dnnl_primitive_desc_iterator_destroy 000000018004cb84 f   mwdnnl:mwdnnl.dll
 0001:0004bb8a       dnnl_primitive_desc_destroy 000000018004cb8a f   mwdnnl:mwdnnl.dll
 0001:0004bb90       dnnl_primitive_desc_query_md 000000018004cb90 f   mwdnnl:mwdnnl.dll
 0001:0004bb96       dnnl_primitive_create      000000018004cb96 f   mwdnnl:mwdnnl.dll
 0001:0004bb9c       dnnl_primitive_execute     000000018004cb9c f   mwdnnl:mwdnnl.dll
 0001:0004bba2       dnnl_primitive_destroy     000000018004cba2 f   mwdnnl:mwdnnl.dll
 0001:0004bba8       dnnl_memory_desc_init_by_tag 000000018004cba8 f   mwdnnl:mwdnnl.dll
 0001:0004bbae       dnnl_memory_create         000000018004cbae f   mwdnnl:mwdnnl.dll
 0001:0004bbb4       dnnl_memory_get_memory_desc 000000018004cbb4 f   mwdnnl:mwdnnl.dll
 0001:0004bbba       dnnl_memory_destroy        000000018004cbba f   mwdnnl:mwdnnl.dll
 0001:0004bbc0       dnnl_pooling_forward_desc_init 000000018004cbc0 f   mwdnnl:mwdnnl.dll
 0001:0004bbc6       dnnl_stream_create_v2      000000018004cbc6 f   mwdnnl:mwdnnl.dll
 0001:0004bbcc       dnnl_stream_destroy        000000018004cbcc f   mwdnnl:mwdnnl.dll
 0001:0004bbd2       dnnl_primitive_attr_create 000000018004cbd2 f   mwdnnl:mwdnnl.dll
 0001:0004bbd8       dnnl_primitive_attr_destroy 000000018004cbd8 f   mwdnnl:mwdnnl.dll
 0001:0004bbde       dnnl_memory_desc_equal     000000018004cbde f   mwdnnl:mwdnnl.dll
 0001:0004bbe4       dnnl_memory_get_engine     000000018004cbe4 f   mwdnnl:mwdnnl.dll
 0001:0004bbea       dnnl_reorder_primitive_desc_create 000000018004cbea f   mwdnnl:mwdnnl.dll
 0001:0004bbf0       dnnl_dilated_convolution_forward_desc_init 000000018004cbf0 f   mwdnnl:mwdnnl.dll
 0001:0004bbf6       dnnl_engine_destroy        000000018004cbf6 f   mwdnnl:mwdnnl.dll
 0001:0004bbfc       dnnl_memory_get_data_handle 000000018004cbfc f   mwdnnl:mwdnnl.dll
 0001:0004bc02       dnnl_eltwise_forward_desc_init 000000018004cc02 f   mwdnnl:mwdnnl.dll
 0001:0004bc08       dnnl_inner_product_forward_desc_init 000000018004cc08 f   mwdnnl:mwdnnl.dll
 0001:0004bc0e       dnnl_primitive_attr_set_post_ops 000000018004cc0e f   mwdnnl:mwdnnl.dll
 0001:0004bc14       dnnl_post_ops_create       000000018004cc14 f   mwdnnl:mwdnnl.dll
 0001:0004bc1a       dnnl_post_ops_destroy      000000018004cc1a f   mwdnnl:mwdnnl.dll
 0001:0004bc20       dnnl_post_ops_append_sum   000000018004cc20 f   mwdnnl:mwdnnl.dll
 0001:0004bc26       dnnl_post_ops_append_eltwise 000000018004cc26 f   mwdnnl:mwdnnl.dll
 0001:0004bc2c       dnnl_memory_desc_get_size  000000018004cc2c f   mwdnnl:mwdnnl.dll
 0001:0004bc32       dnnl_memory_set_data_handle_v2 000000018004cc32 f   mwdnnl:mwdnnl.dll
 0001:0004bc38       dnnl_engine_create         000000018004cc38 f   mwdnnl:mwdnnl.dll
 0001:0004bc3e       dnnl_memory_desc_init_by_strides 000000018004cc3e f   mwdnnl:mwdnnl.dll
 0001:0004bc44       sf_load_rtw_optimization_info 000000018004cc44 f   sf_runtime:sf_runtime.dll
 0001:0004bc4a       sf_mex_decode              000000018004cc4a f   sf_runtime:sf_runtime.dll
 0001:0004bc50       sf_init_ChartRunTimeInfo   000000018004cc50 f   sf_runtime:sf_runtime.dll
 0001:0004bc56       sf_free_ChartRunTimeInfo   000000018004cc56 f   sf_runtime:sf_runtime.dll
 0001:0004bc5c       sfrtGetEmlrtCtx            000000018004cc5c f   sf_runtime:sf_runtime.dll
 0001:0004bc62       sfrtGetCovrtInstance       000000018004cc62 f   sf_runtime:sf_runtime.dll
 0001:0004bc68       sf_get_chart_instance_ptr  000000018004cc68 f   sf_runtime:sf_runtime.dll
 0001:0004bc6e       sim_mode_is_rtw_gen        000000018004cc6e f   sf_runtime:sf_runtime.dll
 0001:0004bc74       sim_mode_is_external       000000018004cc74 f   sf_runtime:sf_runtime.dll
 0001:0004bc7a       sf_clear_rtw_identifier    000000018004cc7a f   sf_runtime:sf_runtime.dll
 0001:0004bc80       sf_get_time                000000018004cc80 f   sf_runtime:sf_runtime.dll
 0001:0004bc86       sfDoAnimationWrapper       000000018004cc86 f   sf_runtime:sf_runtime.dll
 0001:0004bc8c       setDataBrowseFcn           000000018004cc8c f   sf_runtime:sf_runtime.dll
 0001:0004bc92       setLegacyDebuggerFlag      000000018004cc92 f   sf_runtime:sf_runtime.dll
 0001:0004bc98       setDebuggerFlag            000000018004cc98 f   sf_runtime:sf_runtime.dll
 0001:0004bc9e       sf_warn_if_symbolic_dimension_param_changed 000000018004cc9e f   sf_runtime:sf_runtime.dll
 0001:0004bca4       sf_set_work_widths         000000018004cca4 f   sf_runtime:sf_runtime.dll
 0001:0004bcaa       sf_error_out_about_continuous_sample_time_with_persistent_vars 000000018004ccaa f   sf_runtime:sf_runtime.dll
 0001:0004bcb0       supportsLegacyBehaviorForPersistentVarInContinuousTime 000000018004ccb0 f   sf_runtime:sf_runtime.dll
 0001:0004bcb6       sfListenerCacheSimStruct   000000018004ccb6 f   sf_runtime:sf_runtime.dll
 0001:0004bcbc       sfListenerLightTerminate   000000018004ccbc f   sf_runtime:sf_runtime.dll
 0001:0004bcc2       sfListenerInitializeRuntimeVars 000000018004ccc2 f   sf_runtime:sf_runtime.dll
 0001:0004bcc8       sf_mex_error_message       000000018004ccc8 f   sf_runtime:sf_runtime.dll
 0001:0004bcce       sf_mex_create              000000018004ccce f   sf_runtime:sf_runtime.dll
 0001:0004bcd4       sf_mex_createcellmatrix    000000018004ccd4 f   sf_runtime:sf_runtime.dll
 0001:0004bcda       sf_mex_setcell             000000018004ccda f   sf_runtime:sf_runtime.dll
 0001:0004bce0       sf_mex_getcell             000000018004cce0 f   sf_runtime:sf_runtime.dll
 0001:0004bce6       sf_mex_assign              000000018004cce6 f   sf_runtime:sf_runtime.dll
 0001:0004bcec       sf_mex_dup                 000000018004ccec f   sf_runtime:sf_runtime.dll
 0001:0004bcf2       sf_mex_destroy             000000018004ccf2 f   sf_runtime:sf_runtime.dll
 0001:0004bcf8       sf_mex_import              000000018004ccf8 f   sf_runtime:sf_runtime.dll
 0001:0004bcfe       ssGetInputPortSignal_wrapper 000000018004ccfe f   sf_runtime:sf_runtime.dll
 0001:0004bd04       ssGetOutputPortSignal_wrapper 000000018004cd04 f   sf_runtime:sf_runtime.dll
 0001:0004bd0a       sf_get_ChartInfoStruct_CodeGen 000000018004cd0a f   sf_runtime:sf_runtime.dll
 0001:0004bd10       sf_get_hasSeparateUpdateOutputs 000000018004cd10 f   sf_runtime:sf_runtime.dll
 0001:0004bd16       callMdlMethodAndReportError 000000018004cd16 f   sf_runtime:sf_runtime.dll
 0001:0004bd1c       call_sf_machine_global_method_dispatcher 000000018004cd1c f   sf_runtime:sf_runtime.dll
 0001:0004bd22       getRuntimeInstanceInfoAsVoid 000000018004cd22 f   sf_runtime:sf_runtime.dll
 0001:0004bd28       sf_mex_error_direct_call   000000018004cd28 f   sf_runtime:sf_runtime.dll
 0001:0004bd2e       sf_clear_error_manager_info 000000018004cd2e f   sf_runtime:sf_runtime.dll
 0001:0004bd34       mxIsChar_800               000000018004cd34 f   libmx:libmx.dll
 0001:0004bd3a       mxGetScalar_800            000000018004cd3a f   libmx:libmx.dll
 0001:0004bd40       mxGetPr_800                000000018004cd40 f   libmx:libmx.dll
 0001:0004bd46       mxDestroyArray_800         000000018004cd46 f   libmx:libmx.dll
 0001:0004bd4c       mxCreateDoubleMatrix_800   000000018004cd4c f   libmx:libmx.dll
 0001:0004bd52       mxGetString_800            000000018004cd52 f   libmx:libmx.dll
 0001:0004bd58       mxDuplicateArray_800       000000018004cd58 f   libmx:libmx.dll
 0001:0004bd5e       mxSetCell_800              000000018004cd5e f   libmx:libmx.dll
 0001:0004bd64       mxSetField_800             000000018004cd64 f   libmx:libmx.dll
 0001:0004bd6a       mxCreateString_800         000000018004cd6a f   libmx:libmx.dll
 0001:0004bd70       mxCreateCellMatrix_800     000000018004cd70 f   libmx:libmx.dll
 0001:0004bd76       mxCreateStructMatrix_800   000000018004cd76 f   libmx:libmx.dll
 0001:0004bd7c       mxCalloc_800               000000018004cd7c f   libmx:libmx.dll
 0001:0004bd82       mxGetM_800                 000000018004cd82 f   libmx:libmx.dll
 0001:0004bd88       mxGetClassID_800           000000018004cd88 f   libmx:libmx.dll
 0001:0004bd8e       mxIsNumeric_800            000000018004cd8e f   libmx:libmx.dll
 0001:0004bd94       mxIsComplex_800            000000018004cd94 f   libmx:libmx.dll
 0001:0004bd9a       mxGetN_800                 000000018004cd9a f   libmx:libmx.dll
 0001:0004bda0       mxCreateDoubleScalar_800   000000018004cda0 f   libmx:libmx.dll
 0001:0004bda6       mexMakeArrayPersistent_800 000000018004cda6 f   libmex:libmex.dll
 0001:0004bdac       mexErrMsgTxt_800           000000018004cdac f   libmex:libmex.dll
 0001:0004bdb2       mexWarnMsgTxt_800          000000018004cdb2 f   libmex:libmex.dll
 0001:0004bdb8       mexCallMATLAB_800          000000018004cdb8 f   libmex:libmex.dll
 0001:0004bdbe       mexLock_800                000000018004cdbe f   libmex:libmex.dll
 0001:0004bdc4       mexUnlock_800              000000018004cdc4 f   libmex:libmex.dll
 0001:0004bdca       mexIsLocked_800            000000018004cdca f   libmex:libmex.dll
 0001:0004bdd0       utMalloc                   000000018004cdd0 f   libut:libut.dll
 0001:0004bdd6       utFree                     000000018004cdd6 f   libut:libut.dll
 0001:0004bddc       muDoubleScalarFloor        000000018004cddc f   libmwmathutil:libmwmathutil.dll
 0001:0004bde2       emlrtLicenseCheckR2012b    000000018004cde2 f   libemlrt:libemlrt.dll
 0001:0004bde8       emlrtDynamicBoundsCheckR2012b 000000018004cde8 f   libemlrt:libemlrt.dll
 0001:0004bdee       emlrtIntegerCheckR2012b    000000018004cdee f   libemlrt:libemlrt.dll
 0001:0004bdf4       emlrtNameCaptureMxArrayR2016a 000000018004cdf4 f   libemlrt:libemlrt.dll
 0001:0004bdfa       covrtCreateStateflowInstanceData 000000018004cdfa f   libcovrt:libcovrt.dll
 0001:0004be00       covrtDeleteStateflowInstanceData 000000018004ce00 f   libcovrt:libcovrt.dll
 0001:0004be06       covrtTransInitFcn          000000018004ce06 f   libcovrt:libcovrt.dll
 0001:0004be0c       covrtStateInitFcn          000000018004ce0c f   libcovrt:libcovrt.dll
 0001:0004be12       covrtChartInitFcn          000000018004ce12 f   libcovrt:libcovrt.dll
 0001:0004be18       covrtSigUpdateFcn          000000018004ce18 f   libcovrt:libcovrt.dll
 0001:0004be1e       covrtEmlInitFcn            000000018004ce1e f   libcovrt:libcovrt.dll
 0001:0004be24       covrtEmlFcnInitFcn         000000018004ce24 f   libcovrt:libcovrt.dll
 0001:0004be2a       covrtEmlFcnEval            000000018004ce2a f   libcovrt:libcovrt.dll
 0001:0004be30       ?_Xlength_error@std@@YAXPEBD@Z 000000018004ce30 f   msvcprt:MSVCP140.dll
 0001:0004be36       ?_Xout_of_range@std@@YAXPEBD@Z 000000018004ce36 f   msvcprt:MSVCP140.dll
 0001:0004be3c       ??2@YAPEAX_K@Z             000000018004ce3c f   MSVCRT:new_scalar.obj
 0001:0004be78       ??3@YAXPEAX_K@Z            000000018004ce78 f   MSVCRT:delete_scalar_size.obj
 0001:0004be80       __GSHandlerCheck           000000018004ce80 f   MSVCRT:gshandler.obj
 0001:0004bea0       __GSHandlerCheckCommon     000000018004cea0 f   MSVCRT:gshandler.obj
 0001:0004bf10       __security_check_cookie    000000018004cf10 f   MSVCRT:amdsecgs.obj
 0001:0004bf30       ??1type_info@@UEAA@XZ      000000018004cf30 f   MSVCRT:std_type_info_static.obj
 0001:0004bf3c       ??_Gtype_info@@UEAAPEAXI@Z 000000018004cf3c f i MSVCRT:std_type_info_static.obj
 0001:0004bf3c       ??_Etype_info@@UEAAPEAXI@Z 000000018004cf3c f i MSVCRT:std_type_info_static.obj
 0001:0004bf68       __GSHandlerCheck_EH4       000000018004cf68 f   MSVCRT:gshandlereh4.obj
 0001:0004bfe8       ??_M@YAXPEAX_K1P6AX0@Z@Z   000000018004cfe8 f   MSVCRT:ehvecdtr.obj
 0001:0004c054       ??_M@YAXPEAX_KHP6AX0@Z@Z   000000018004d054 f   MSVCRT:ehvecdtr.obj
 0001:0004c09c       ?__ArrayUnwind@@YAXPEAX_K1P6AX0@Z@Z 000000018004d09c f   MSVCRT:ehvecdtr.obj
 0001:0004c110       _alloca_probe              000000018004d110 f   MSVCRT:chkstk.obj
 0001:0004c110       __chkstk                   000000018004d110 f   MSVCRT:chkstk.obj
 0001:0004c160       ??_U@YAPEAX_K@Z            000000018004d160 f   MSVCRT:new_array.obj
 0001:0004c168       ??_V@YAXPEAX@Z             000000018004d168 f   MSVCRT:delete_array.obj
 0001:0004c170       __raise_securityfailure    000000018004d170 f   MSVCRT:gs_report.obj
 0001:0004c1a4       __report_gsfailure         000000018004d1a4 f   MSVCRT:gs_report.obj
 0001:0004c278       __report_rangecheckfailure 000000018004d278 f   MSVCRT:gs_report.obj
 0001:0004c28c       __report_securityfailure   000000018004d28c f   MSVCRT:gs_report.obj
 0001:0004c328       __report_securityfailureEx 000000018004d328 f   MSVCRT:gs_report.obj
 0001:0004c858       _CRT_INIT                  000000018004d858 f   MSVCRT:dll_dllmain.obj
 0001:0004c860       _DllMainCRTStartup         000000018004d860 f   MSVCRT:dll_dllmain.obj
 0001:0004c8a0       ??0bad_alloc@std@@QEAA@XZ  000000018004d8a0 f i MSVCRT:throw_bad_alloc.obj
 0001:0004c8c0       ?__scrt_throw_std_bad_alloc@@YAXXZ 000000018004d8c0 f   MSVCRT:throw_bad_alloc.obj
 0001:0004c8e0       ?__scrt_throw_std_bad_array_new_length@@YAXXZ 000000018004d8e0 f   MSVCRT:throw_bad_alloc.obj
 0001:0004c900       ??3@YAXPEAX@Z              000000018004d900 f   MSVCRT:delete_scalar.obj
 0001:0004c908       _guard_check_icall_nop     000000018004d908 f i MSVCRT:guard_support.obj
 0001:0004c90c       ReadNoFence64              000000018004d90c f i MSVCRT:guard_support.obj
 0001:0004c910       ReadPointerNoFence         000000018004d910 f i MSVCRT:guard_support.obj
 0001:0004c914       __castguard_check_failure_debugbreak 000000018004d914 f i MSVCRT:guard_support.obj
 0001:0004c930       __castguard_check_failure_fastfail 000000018004d930 f i MSVCRT:guard_support.obj
 0001:0004c954       __castguard_check_failure_nop 000000018004d954 f i MSVCRT:guard_support.obj
 0001:0004c958       __castguard_check_failure_os_handled 000000018004d958 f i MSVCRT:guard_support.obj
 0001:0004c9b8       __castguard_slow_path_check_debugbreak 000000018004d9b8 f i MSVCRT:guard_support.obj
 0001:0004c9ec       __castguard_slow_path_check_fastfail 000000018004d9ec f i MSVCRT:guard_support.obj
 0001:0004ca28       __castguard_slow_path_check_nop 000000018004da28 f i MSVCRT:guard_support.obj
 0001:0004ca2c       __castguard_slow_path_check_os_handled 000000018004da2c f i MSVCRT:guard_support.obj
 0001:0004caa0       _guard_icall_checks_enforced 000000018004daa0 f i MSVCRT:guard_support.obj
 0001:0004cab8       _guard_rf_checks_enforced  000000018004dab8 f i MSVCRT:guard_support.obj
 0001:0004cb28       __security_init_cookie     000000018004db28 f   MSVCRT:gs_support.obj
 0001:0004cbd4       DllMain                    000000018004dbd4 f   MSVCRT:dll_dllmain_stub.obj
 0001:0004cbf8       ?__scrt_initialize_type_info@@YAXXZ 000000018004dbf8 f   MSVCRT:tncleanup.obj
 0001:0004cc08       ?__scrt_uninitialize_type_info@@YAXXZ 000000018004dc08 f   MSVCRT:tncleanup.obj
 0001:0004cc14       __local_stdio_scanf_options 000000018004dc14 f i MSVCRT:default_local_stdio_options.obj
 0001:0004cc1c       __scrt_initialize_default_local_stdio_options 000000018004dc1c f   MSVCRT:default_local_stdio_options.obj
 0001:0004cc38       ?configure_argv@__scrt_narrow_argv_policy@@SAHXZ 000000018004dc38 f i MSVCRT:utility.obj
 0001:0004cc98       ?initialize_environment@__scrt_narrow_environment_policy@@SAHXZ 000000018004dc98 f i MSVCRT:utility.obj
 0001:0004ccd0       NtCurrentTeb               000000018004dcd0 f i MSVCRT:utility.obj
 0001:0004ccdc       __scrt_acquire_startup_lock 000000018004dcdc f   MSVCRT:utility.obj
 0001:0004cd18       __scrt_dllmain_after_initialize_c 000000018004dd18 f   MSVCRT:utility.obj
 0001:0004cd4c       __scrt_dllmain_before_initialize_c 000000018004dd4c f   MSVCRT:utility.obj
 0001:0004cd64       __scrt_dllmain_crt_thread_attach 000000018004dd64 f   MSVCRT:utility.obj
 0001:0004cd8c       __scrt_dllmain_crt_thread_detach 000000018004dd8c f   MSVCRT:utility.obj
 0001:0004cda4       __scrt_dllmain_exception_filter 000000018004dda4 f   MSVCRT:utility.obj
 0001:0004ce04       __scrt_dllmain_uninitialize_c 000000018004de04 f   MSVCRT:utility.obj
 0001:0004ce34       __scrt_dllmain_uninitialize_critical 000000018004de34 f   MSVCRT:utility.obj
 0001:0004ce48       __scrt_initialize_crt      000000018004de48 f   MSVCRT:utility.obj
 0001:0004ce94       __scrt_initialize_onexit_tables 000000018004de94 f   MSVCRT:utility.obj
 0001:0004cf20       __scrt_is_nonwritable_in_current_image 000000018004df20 f   MSVCRT:utility.obj
 0001:0004cfb8       __scrt_release_startup_lock 000000018004dfb8 f   MSVCRT:utility.obj
 0001:0004cfdc       __scrt_uninitialize_crt    000000018004dfdc f   MSVCRT:utility.obj
 0001:0004d008       _onexit                    000000018004e008 f   MSVCRT:utility.obj
 0001:0004d044       at_quick_exit              000000018004e044 f   MSVCRT:utility.obj
 0001:0004d064       atexit                     000000018004e064 f   MSVCRT:utility.obj
 0001:0004d07c       __scrt_get_dyn_tls_init_callback 000000018004e07c f   MSVCRT:dyn_tls_init.obj
 0001:0004d084       __crt_debugger_hook        000000018004e084 f   MSVCRT:utility_desktop.obj
 0001:0004d08c       __scrt_fastfail            000000018004e08c f   MSVCRT:utility_desktop.obj
 0001:0004d1d8       __scrt_get_show_window_mode 000000018004e1d8 f   MSVCRT:utility_desktop.obj
 0001:0004d214       __scrt_initialize_mta      000000018004e214 f   MSVCRT:utility_desktop.obj
 0001:0004d21c       __scrt_initialize_winrt    000000018004e21c f   MSVCRT:utility_desktop.obj
 0001:0004d220       __scrt_is_managed_app      000000018004e220 f   MSVCRT:utility_desktop.obj
 0001:0004d274       __scrt_set_unhandled_exception_filter 000000018004e274 f   MSVCRT:utility_desktop.obj
 0001:0004d284       __scrt_exe_initialize_mta  000000018004e284 f   MSVCRT:utility_desktop.obj
 0001:0004d284       __scrt_stub_for_initialize_mta 000000018004e284 f   MSVCRT:utility_desktop.obj
 0001:0004d288       __scrt_unhandled_exception_filter 000000018004e288 f   MSVCRT:utility_desktop.obj
 0001:0004d2e4       _RTC_Initialize            000000018004e2e4 f   MSVCRT:initsect.obj
 0001:0004d320       _RTC_Terminate             000000018004e320 f   MSVCRT:initsect.obj
 0001:0004d360       __isa_available_init       000000018004e360 f   MSVCRT:cpu_disp.obj
 0001:0004d504       _get_startup_argv_mode     000000018004e504 f   MSVCRT:argv_mode.obj
 0001:0004d50c       __scrt_is_ucrt_dll_in_use  000000018004e50c f   MSVCRT:ucrt_detection.obj
 0001:0004d518       RtlCaptureContext          000000018004e518 f   kernel32:KERNEL32.dll
 0001:0004d51e       RtlLookupFunctionEntry     000000018004e51e f   kernel32:KERNEL32.dll
 0001:0004d524       RtlVirtualUnwind           000000018004e524 f   kernel32:KERNEL32.dll
 0001:0004d52a       UnhandledExceptionFilter   000000018004e52a f   kernel32:KERNEL32.dll
 0001:0004d530       SetUnhandledExceptionFilter 000000018004e530 f   kernel32:KERNEL32.dll
 0001:0004d536       GetCurrentProcess          000000018004e536 f   kernel32:KERNEL32.dll
 0001:0004d53c       TerminateProcess           000000018004e53c f   kernel32:KERNEL32.dll
 0001:0004d542       IsProcessorFeaturePresent  000000018004e542 f   kernel32:KERNEL32.dll
 0001:0004d548       QueryPerformanceCounter    000000018004e548 f   kernel32:KERNEL32.dll
 0001:0004d54e       GetCurrentProcessId        000000018004e54e f   kernel32:KERNEL32.dll
 0001:0004d554       GetCurrentThreadId         000000018004e554 f   kernel32:KERNEL32.dll
 0001:0004d55a       GetSystemTimeAsFileTime    000000018004e55a f   kernel32:KERNEL32.dll
 0001:0004d560       DisableThreadLibraryCalls  000000018004e560 f   kernel32:KERNEL32.dll
 0001:0004d566       InitializeSListHead        000000018004e566 f   kernel32:KERNEL32.dll
 0001:0004d56c       IsDebuggerPresent          000000018004e56c f   kernel32:KERNEL32.dll
 0001:0004d572       GetStartupInfoW            000000018004e572 f   kernel32:KERNEL32.dll
 0001:0004d578       GetModuleHandleW           000000018004e578 f   kernel32:KERNEL32.dll
 0001:0004d57e       _purecall                  000000018004e57e f   vcruntime:VCRUNTIME140.dll
 0001:0004d584       memcmp                     000000018004e584 f   vcruntime:VCRUNTIME140.dll
 0001:0004d58a       memcpy                     000000018004e58a f   vcruntime:VCRUNTIME140.dll
 0001:0004d590       memmove                    000000018004e590 f   vcruntime:VCRUNTIME140.dll
 0001:0004d596       __std_exception_copy       000000018004e596 f   vcruntime:VCRUNTIME140.dll
 0001:0004d59c       __std_exception_destroy    000000018004e59c f   vcruntime:VCRUNTIME140.dll
 0001:0004d5a2       _CxxThrowException         000000018004e5a2 f   vcruntime:VCRUNTIME140.dll
 0001:0004d5a8       __CxxFrameHandler4         000000018004e5a8 f   vcruntime:VCRUNTIME140_1.dll
 0001:0004d5ae       memchr                     000000018004e5ae f   vcruntime:VCRUNTIME140.dll
 0001:0004d5b4       memset                     000000018004e5b4 f   vcruntime:VCRUNTIME140.dll
 0001:0004d5ba       __std_type_info_compare    000000018004e5ba f   vcruntime:VCRUNTIME140.dll
 0001:0004d5c0       __RTDynamicCast            000000018004e5c0 f   vcruntime:VCRUNTIME140.dll
 0001:0004d5c6       __current_exception        000000018004e5c6 f   vcruntime:VCRUNTIME140.dll
 0001:0004d5cc       __current_exception_context 000000018004e5cc f   vcruntime:VCRUNTIME140.dll
 0001:0004d5d2       __C_specific_handler       000000018004e5d2 f   vcruntime:VCRUNTIME140.dll
 0001:0004d5d8       __std_type_info_destroy_list 000000018004e5d8 f   vcruntime:VCRUNTIME140.dll
 0001:0004d5de       _invalid_parameter_noinfo_noreturn 000000018004e5de f   ucrt:api-ms-win-crt-runtime-l1-1-0.dll
 0001:0004d5e4       strlen                     000000018004e5e4 f   ucrt:api-ms-win-crt-string-l1-1-0.dll
 0001:0004d5ea       _wassert                   000000018004e5ea f   ucrt:api-ms-win-crt-runtime-l1-1-0.dll
 0001:0004d5f0       ceilf                      000000018004e5f0 f   ucrt:api-ms-win-crt-math-l1-1-0.dll
 0001:0004d5f6       getenv                     000000018004e5f6 f   ucrt:api-ms-win-crt-environment-l1-1-0.dll
 0001:0004d5fc       fopen                      000000018004e5fc f   ucrt:api-ms-win-crt-stdio-l1-1-0.dll
 0001:0004d602       calloc                     000000018004e602 f   ucrt:api-ms-win-crt-heap-l1-1-0.dll
 0001:0004d608       free                       000000018004e608 f   ucrt:api-ms-win-crt-heap-l1-1-0.dll
 0001:0004d60e       fclose                     000000018004e60e f   ucrt:api-ms-win-crt-stdio-l1-1-0.dll
 0001:0004d614       fread                      000000018004e614 f   ucrt:api-ms-win-crt-stdio-l1-1-0.dll
 0001:0004d61a       malloc                     000000018004e61a f   ucrt:api-ms-win-crt-heap-l1-1-0.dll
 0001:0004d620       strcmp                     000000018004e620 f   ucrt:api-ms-win-crt-string-l1-1-0.dll
 0001:0004d626       strcat                     000000018004e626 f   ucrt:api-ms-win-crt-string-l1-1-0.dll
 0001:0004d62c       __stdio_common_vsprintf    000000018004e62c f   ucrt:api-ms-win-crt-stdio-l1-1-0.dll
 0001:0004d632       _callnewh                  000000018004e632 f   ucrt:api-ms-win-crt-heap-l1-1-0.dll
 0001:0004d638       terminate                  000000018004e638 f   ucrt:api-ms-win-crt-runtime-l1-1-0.dll
 0001:0004d63e       _initterm                  000000018004e63e f   ucrt:api-ms-win-crt-runtime-l1-1-0.dll
 0001:0004d644       _initterm_e                000000018004e644 f   ucrt:api-ms-win-crt-runtime-l1-1-0.dll
 0001:0004d64a       _seh_filter_dll            000000018004e64a f   ucrt:api-ms-win-crt-runtime-l1-1-0.dll
 0001:0004d650       _configure_narrow_argv     000000018004e650 f   ucrt:api-ms-win-crt-runtime-l1-1-0.dll
 0001:0004d656       _initialize_narrow_environment 000000018004e656 f   ucrt:api-ms-win-crt-runtime-l1-1-0.dll
 0001:0004d65c       _initialize_onexit_table   000000018004e65c f   ucrt:api-ms-win-crt-runtime-l1-1-0.dll
 0001:0004d662       _register_onexit_function  000000018004e662 f   ucrt:api-ms-win-crt-runtime-l1-1-0.dll
 0001:0004d668       _execute_onexit_table      000000018004e668 f   ucrt:api-ms-win-crt-runtime-l1-1-0.dll
 0001:0004d66e       _crt_atexit                000000018004e66e f   ucrt:api-ms-win-crt-runtime-l1-1-0.dll
 0001:0004d674       _crt_at_quick_exit         000000018004e674 f   ucrt:api-ms-win-crt-runtime-l1-1-0.dll
 0001:0004d67a       _cexit                     000000018004e67a f   ucrt:api-ms-win-crt-runtime-l1-1-0.dll
 0001:0004d680       __acrt_initialize          000000018004e680 f   MSVCRT:ucrt_stubs.obj
 0001:0004d680       __scrt_stub_for_acrt_initialize 000000018004e680 f   MSVCRT:ucrt_stubs.obj
 0001:0004d680       __vcrt_initialize          000000018004e680 f   MSVCRT:ucrt_stubs.obj
 0001:0004d684       __acrt_thread_attach       000000018004e684 f   MSVCRT:ucrt_stubs.obj
 0001:0004d684       __scrt_stub_for_acrt_thread_attach 000000018004e684 f   MSVCRT:ucrt_stubs.obj
 0001:0004d684       __vcrt_thread_attach       000000018004e684 f   MSVCRT:ucrt_stubs.obj
 0001:0004d688       __acrt_thread_detach       000000018004e688 f   MSVCRT:ucrt_stubs.obj
 0001:0004d688       __scrt_stub_for_acrt_thread_detach 000000018004e688 f   MSVCRT:ucrt_stubs.obj
 0001:0004d688       __vcrt_thread_detach       000000018004e688 f   MSVCRT:ucrt_stubs.obj
 0001:0004d68c       __vcrt_uninitialize        000000018004e68c f   MSVCRT:ucrt_stubs.obj
 0001:0004d68c       __acrt_uninitialize        000000018004e68c f   MSVCRT:ucrt_stubs.obj
 0001:0004d68c       __scrt_stub_for_acrt_uninitialize 000000018004e68c f   MSVCRT:ucrt_stubs.obj
 0001:0004d690       __acrt_uninitialize_critical 000000018004e690 f   MSVCRT:ucrt_stubs.obj
 0001:0004d690       __vcrt_uninitialize_critical 000000018004e690 f   MSVCRT:ucrt_stubs.obj
 0001:0004d690       __scrt_stub_for_acrt_uninitialize_critical 000000018004e690 f   MSVCRT:ucrt_stubs.obj
 0001:0004d694       __scrt_stub_for_is_c_termination_complete 000000018004e694 f   MSVCRT:ucrt_stubs.obj
 0001:0004d694       _is_c_termination_complete 000000018004e694 f   MSVCRT:ucrt_stubs.obj
 0001:0004d6b0       _guard_dispatch_icall_nop  000000018004e6b0 f   MSVCRT:guard_dispatch.obj
 0001:0004d6d0       _guard_xfg_dispatch_icall_nop 000000018004e6d0 f   MSVCRT:guard_xfg_dispatch.obj
 0002:00000000       __imp_GetModuleHandleW     0000000180053000     kernel32:KERNEL32.dll
 0002:00000008       __imp_GetStartupInfoW      0000000180053008     kernel32:KERNEL32.dll
 0002:00000010       __imp_IsDebuggerPresent    0000000180053010     kernel32:KERNEL32.dll
 0002:00000018       __imp_InitializeSListHead  0000000180053018     kernel32:KERNEL32.dll
 0002:00000020       __imp_DisableThreadLibraryCalls 0000000180053020     kernel32:KERNEL32.dll
 0002:00000028       __imp_RtlCaptureContext    0000000180053028     kernel32:KERNEL32.dll
 0002:00000030       __imp_RtlLookupFunctionEntry 0000000180053030     kernel32:KERNEL32.dll
 0002:00000038       __imp_RtlVirtualUnwind     0000000180053038     kernel32:KERNEL32.dll
 0002:00000040       __imp_UnhandledExceptionFilter 0000000180053040     kernel32:KERNEL32.dll
 0002:00000048       __imp_SetUnhandledExceptionFilter 0000000180053048     kernel32:KERNEL32.dll
 0002:00000050       __imp_GetCurrentProcess    0000000180053050     kernel32:KERNEL32.dll
 0002:00000058       __imp_TerminateProcess     0000000180053058     kernel32:KERNEL32.dll
 0002:00000060       __imp_IsProcessorFeaturePresent 0000000180053060     kernel32:KERNEL32.dll
 0002:00000068       __imp_QueryPerformanceCounter 0000000180053068     kernel32:KERNEL32.dll
 0002:00000070       __imp_GetCurrentProcessId  0000000180053070     kernel32:KERNEL32.dll
 0002:00000078       __imp_GetCurrentThreadId   0000000180053078     kernel32:KERNEL32.dll
 0002:00000080       __imp_GetSystemTimeAsFileTime 0000000180053080     kernel32:KERNEL32.dll
 0002:00000088       \177KERNEL32_NULL_THUNK_DATA 0000000180053088     kernel32:KERNEL32.dll
 0002:00000090       __imp_?_Xout_of_range@std@@YAXPEBD@Z 0000000180053090     msvcprt:MSVCP140.dll
 0002:00000098       __imp_?_Xlength_error@std@@YAXPEBD@Z 0000000180053098     msvcprt:MSVCP140.dll
 0002:000000a0       \177MSVCP140_NULL_THUNK_DATA 00000001800530a0     msvcprt:MSVCP140.dll
 0002:000000a8       __imp_memset               00000001800530a8     vcruntime:VCRUNTIME140.dll
 0002:000000b0       __imp___std_exception_destroy 00000001800530b0     vcruntime:VCRUNTIME140.dll
 0002:000000b8       __imp__CxxThrowException   00000001800530b8     vcruntime:VCRUNTIME140.dll
 0002:000000c0       __imp_memchr               00000001800530c0     vcruntime:VCRUNTIME140.dll
 0002:000000c8       __imp___std_type_info_compare 00000001800530c8     vcruntime:VCRUNTIME140.dll
 0002:000000d0       __imp___RTDynamicCast      00000001800530d0     vcruntime:VCRUNTIME140.dll
 0002:000000d8       __imp__purecall            00000001800530d8     vcruntime:VCRUNTIME140.dll
 0002:000000e0       __imp___current_exception  00000001800530e0     vcruntime:VCRUNTIME140.dll
 0002:000000e8       __imp_memcmp               00000001800530e8     vcruntime:VCRUNTIME140.dll
 0002:000000f0       __imp_memcpy               00000001800530f0     vcruntime:VCRUNTIME140.dll
 0002:000000f8       __imp_memmove              00000001800530f8     vcruntime:VCRUNTIME140.dll
 0002:00000100       __imp___std_exception_copy 0000000180053100     vcruntime:VCRUNTIME140.dll
 0002:00000108       __imp___current_exception_context 0000000180053108     vcruntime:VCRUNTIME140.dll
 0002:00000110       __imp___C_specific_handler 0000000180053110     vcruntime:VCRUNTIME140.dll
 0002:00000118       __imp___std_type_info_destroy_list 0000000180053118     vcruntime:VCRUNTIME140.dll
 0002:00000120       \177VCRUNTIME140_NULL_THUNK_DATA 0000000180053120     vcruntime:VCRUNTIME140.dll
 0002:00000128       __imp___CxxFrameHandler4   0000000180053128     vcruntime:VCRUNTIME140_1.dll
 0002:00000130       \177VCRUNTIME140_1_NULL_THUNK_DATA 0000000180053130     vcruntime:VCRUNTIME140_1.dll
 0002:00000138       __imp_getenv               0000000180053138     ucrt:api-ms-win-crt-environment-l1-1-0.dll
 0002:00000140       \177api-ms-win-crt-environment-l1-1-0_NULL_THUNK_DATA 0000000180053140     ucrt:api-ms-win-crt-environment-l1-1-0.dll
 0002:00000148       __imp__callnewh            0000000180053148     ucrt:api-ms-win-crt-heap-l1-1-0.dll
 0002:00000150       __imp_malloc               0000000180053150     ucrt:api-ms-win-crt-heap-l1-1-0.dll
 0002:00000158       __imp_free                 0000000180053158     ucrt:api-ms-win-crt-heap-l1-1-0.dll
 0002:00000160       __imp_calloc               0000000180053160     ucrt:api-ms-win-crt-heap-l1-1-0.dll
 0002:00000168       \177api-ms-win-crt-heap-l1-1-0_NULL_THUNK_DATA 0000000180053168     ucrt:api-ms-win-crt-heap-l1-1-0.dll
 0002:00000170       __imp_ceilf                0000000180053170     ucrt:api-ms-win-crt-math-l1-1-0.dll
 0002:00000178       \177api-ms-win-crt-math-l1-1-0_NULL_THUNK_DATA 0000000180053178     ucrt:api-ms-win-crt-math-l1-1-0.dll
 0002:00000180       __imp__wassert             0000000180053180     ucrt:api-ms-win-crt-runtime-l1-1-0.dll
 0002:00000188       __imp__invalid_parameter_noinfo_noreturn 0000000180053188     ucrt:api-ms-win-crt-runtime-l1-1-0.dll
 0002:00000190       __imp__cexit               0000000180053190     ucrt:api-ms-win-crt-runtime-l1-1-0.dll
 0002:00000198       __imp__crt_at_quick_exit   0000000180053198     ucrt:api-ms-win-crt-runtime-l1-1-0.dll
